Archive member included because of file (symbol)

/usr/local/xenon/usr/lib/libxenon.a(startup_from_xell.o)
                              (_start)
/usr/local/xenon/usr/lib/libxenon.a(console.o)
                              main.o (console_init)
/usr/local/xenon/usr/lib/libxenon.a(newlib.o)
                              /usr/local/xenon/usr/lib/libxenon.a(startup_from_xell.o) (_exit)
/usr/local/xenon/usr/lib/libxenon.a(atomic.o)
                              /usr/local/xenon/usr/lib/libxenon.a(startup_from_xell.o) (atomic_clearset)
/usr/local/xenon/usr/lib/libxenon.a(cache.o)
                              /usr/local/xenon/usr/lib/libxenon.a(console.o) (memdcbst)
/usr/local/xenon/usr/lib/libxenon.a(except.o)
                              (exc_base)
/usr/local/xenon/usr/lib/libxenon.a(vm.o)
                              /usr/local/xenon/usr/lib/libxenon.a(except.o) (pagetable)
/usr/local/xenon/usr/lib/libxenon.a(usbmain.o)
                              main.o (usb_do_poll)
/usr/local/xenon/usr/lib/libxenon.a(tinyehci.o)
                              /usr/local/xenon/usr/lib/libxenon.a(usbmain.o) (USBStorage_Init)
/usr/local/xenon/usr/lib/libxenon.a(xenon_uart.o)
                              /usr/local/xenon/usr/lib/libxenon.a(newlib.o) (putch)
/usr/local/xenon/usr/lib/libxenon.a(xenos.o)
                              /usr/local/xenon/usr/lib/libxenon.a(console.o) (xenos_is_overscan)
/usr/local/xenon/usr/lib/libxenon.a(diskio.o)
                              /usr/local/xenon/usr/lib/libxenon.a(tinyehci.o) (unregister_bdev)
/usr/local/xenon/usr/lib/libxenon.a(fat.o)
                              /usr/local/xenon/usr/lib/libxenon.a(diskio.o) (vfs_fat_mount_ops)
/usr/local/xenon/usr/lib/libxenon.a(fat_rb.o)
                              /usr/local/xenon/usr/lib/libxenon.a(fat.o) (fat_init)
/usr/local/xenon/usr/lib/libxenon.a(file_rb.o)
                              /usr/local/xenon/usr/lib/libxenon.a(fat.o) (rb_filesize)
/usr/local/xenon/usr/lib/libxenon.a(dir_rb.o)
                              /usr/local/xenon/usr/lib/libxenon.a(fat.o) (rb_closedir)
/usr/local/xenon/usr/lib/libxenon.a(iso9660.o)
                              /usr/local/xenon/usr/lib/libxenon.a(diskio.o) (vfs_iso9660_mount_ops)
/usr/local/xenon/usr/lib/libxenon.a(lib_malloc.o)
                              /usr/local/xenon/usr/lib/libxenon.a(usbmain.o) (kmem_init)
/usr/local/xenon/usr/lib/libxenon.a(io.o)
                              /usr/local/xenon/usr/lib/libxenon.a(xenos.o) (read32n)
/usr/local/xenon/usr/lib/libxenon.a(time.o)
                              /usr/local/xenon/usr/lib/libxenon.a(xenos.o) (udelay)
/usr/local/xenon/usr/lib/libxenon.a(ohci.o)
                              /usr/local/xenon/usr/lib/libxenon.a(usbmain.o) (ohci_driver)
/usr/local/xenon/usr/lib/libxenon.a(usbd.o)
                              /usr/local/xenon/usr/lib/libxenon.a(usbmain.o) (usb_poll)
/usr/local/xenon/usr/lib/libxenon.a(usbdevs.o)
                              /usr/local/xenon/usr/lib/libxenon.a(usbd.o) (usb_find_driver)
/usr/local/xenon/usr/lib/libxenon.a(usbhid.o)
                              /usr/local/xenon/usr/lib/libxenon.a(usbdevs.o) (usbhid_driver)
/usr/local/xenon/usr/lib/libxenon.a(usbhub.o)
                              /usr/local/xenon/usr/lib/libxenon.a(usbd.o) (usb_scan)
/usr/local/xenon/usr/lib/libxenon.a(usb_os.o)
                              /usr/local/xenon/usr/lib/libxenon.a(tinyehci.o) (ehci_virt_to_dma)
/usr/local/xenon/usr/lib/libxenon.a(unicode_rb.o)
                              /usr/local/xenon/usr/lib/libxenon.a(fat_rb.o) (utf8encode)
/usr/local/xenon/usr/lib/libxenon.a(xenon_gpio.o)
                              /usr/local/xenon/usr/lib/libxenon.a(xenos.o) (xenon_gpio_set)
/usr/local/xenon/usr/lib/libxenon.a(xenon_smc.o)
                              /usr/local/xenon/usr/lib/libxenon.a(xenos.o) (xenon_smc_read_avpack)
/usr/local/xenon/usr/lib/libxenon.a(xenon_config.o)
                              /usr/local/xenon/usr/lib/libxenon.a(xenos.o) (xenon_config_get_avregion)
/usr/local/xenon/usr/lib/libxenon.a(disk_rb.o)
                              /usr/local/xenon/usr/lib/libxenon.a(fat_rb.o) (storage_write_sectors)
/usr/local/xenon/usr/lib/libxenon.a(lib_queue.o)
                              /usr/local/xenon/usr/lib/libxenon.a(ohci.o) (q_enqueue)
/usr/local/xenon/usr/lib/libxenon.a(usbctrl.o)
                              /usr/local/xenon/usr/lib/libxenon.a(usbdevs.o) (usbctrl_driver)
/usr/local/xenon/usr/lib/libxenon.a(usbdebug.o)
                              /usr/local/xenon/usr/lib/libxenon.a(usbhub.o) (usb_dbg_showdevice)
/usr/local/xenon/usr/lib/libxenon.a(xenon_sfcx.o)
                              /usr/local/xenon/usr/lib/libxenon.a(xenon_config.o) (sfcx_init)
/usr/local/xenon/usr/lib/libxenon.a(input.o)
                              /usr/local/xenon/usr/lib/libxenon.a(usbctrl.o) (set_controller_data)
/usr/local/xenon/xenon/lib/32/libc.a(lib_a-assert.o)
                              /usr/local/xenon/usr/lib/libxenon.a(xenos.o) (__assert_func)
/usr/local/xenon/xenon/lib/32/libc.a(lib_a-atoi.o)
                              /usr/local/xenon/usr/lib/libxenon.a(fat_rb.o) (atoi)
/usr/local/xenon/xenon/lib/32/libc.a(lib_a-ctype_.o)
                              /usr/local/xenon/usr/lib/libxenon.a(fat_rb.o) (__ctype_ptr__)
/usr/local/xenon/xenon/lib/32/libc.a(lib_a-errno.o)
                              /usr/local/xenon/usr/lib/libxenon.a(newlib.o) (__errno)
/usr/local/xenon/xenon/lib/32/libc.a(lib_a-exit.o)
                              /usr/local/xenon/usr/lib/libxenon.a(fat_rb.o) (exit)
/usr/local/xenon/xenon/lib/32/libc.a(lib_a-fiprintf.o)
                              /usr/local/xenon/xenon/lib/32/libc.a(lib_a-assert.o) (fiprintf)
/usr/local/xenon/xenon/lib/32/libc.a(lib_a-fopen.o)
                              main.o (fopen)
/usr/local/xenon/xenon/lib/32/libc.a(lib_a-fprintf.o)
                              main.o (fprintf)
/usr/local/xenon/xenon/lib/32/libc.a(lib_a-fseek.o)
                              /usr/local/xenon/xenon/lib/32/libc.a(lib_a-fopen.o) (_fseek_r)
/usr/local/xenon/xenon/lib/32/libc.a(lib_a-fstatr.o)
                              /usr/local/xenon/xenon/lib/32/libc.a(lib_a-fseek.o) (_fstat_r)
/usr/local/xenon/xenon/lib/32/libc.a(lib_a-impure.o)
                              /usr/local/xenon/xenon/lib/32/libc.a(lib_a-assert.o) (_impure_ptr)
/usr/local/xenon/xenon/lib/32/libc.a(lib_a-makebuf.o)
                              /usr/local/xenon/xenon/lib/32/libc.a(lib_a-fseek.o) (__smakebuf_r)
/usr/local/xenon/xenon/lib/32/libc.a(lib_a-malloc.o)
                              /usr/local/xenon/usr/lib/libxenon.a(fat.o) (free)
/usr/local/xenon/xenon/lib/32/libc.a(lib_a-mallocr.o)
                              /usr/local/xenon/xenon/lib/32/libc.a(lib_a-makebuf.o) (_malloc_r)
/usr/local/xenon/xenon/lib/32/libc.a(lib_a-memchr.o)
                              /usr/local/xenon/usr/lib/libxenon.a(disk_rb.o) (memchr)
/usr/local/xenon/xenon/lib/32/libc.a(lib_a-memcmp.o)
                              /usr/local/xenon/usr/lib/libxenon.a(iso9660.o) (memcmp)
/usr/local/xenon/xenon/lib/32/libc.a(lib_a-memcpy.o)
                              /usr/local/xenon/usr/lib/libxenon.a(console.o) (memcpy)
/usr/local/xenon/xenon/lib/32/libc.a(lib_a-memset.o)
                              /usr/local/xenon/usr/lib/libxenon.a(newlib.o) (memset)
/usr/local/xenon/xenon/lib/32/libc.a(lib_a-mlock.o)
                              /usr/local/xenon/xenon/lib/32/libc.a(lib_a-mallocr.o) (__malloc_lock)
/usr/local/xenon/xenon/lib/32/libc.a(lib_a-openr.o)
                              /usr/local/xenon/xenon/lib/32/libc.a(lib_a-fopen.o) (_open_r)
/usr/local/xenon/xenon/lib/32/libc.a(lib_a-printf.o)
                              main.o (printf)
/usr/local/xenon/xenon/lib/32/libc.a(lib_a-putchar.o)
                              /usr/local/xenon/usr/lib/libxenon.a(xenos.o) (putchar)
/usr/local/xenon/xenon/lib/32/libc.a(lib_a-putc.o)
                              /usr/local/xenon/xenon/lib/32/libc.a(lib_a-putchar.o) (_putc_r)
/usr/local/xenon/xenon/lib/32/libc.a(lib_a-puts.o)
                              /usr/local/xenon/usr/lib/libxenon.a(usbmain.o) (puts)
/usr/local/xenon/xenon/lib/32/libc.a(lib_a-reent.o)
                              /usr/local/xenon/xenon/lib/32/libc.a(lib_a-fstatr.o) (errno)
/usr/local/xenon/xenon/lib/32/libc.a(lib_a-refill.o)
                              /usr/local/xenon/xenon/lib/32/libc.a(lib_a-fseek.o) (__srefill_r)
/usr/local/xenon/xenon/lib/32/libc.a(lib_a-sbrkr.o)
                              /usr/local/xenon/xenon/lib/32/libc.a(lib_a-mallocr.o) (_sbrk_r)
/usr/local/xenon/xenon/lib/32/libc.a(lib_a-snprintf.o)
                              /usr/local/xenon/usr/lib/libxenon.a(diskio.o) (snprintf)
/usr/local/xenon/xenon/lib/32/libc.a(lib_a-sprintf.o)
                              /usr/local/xenon/usr/lib/libxenon.a(diskio.o) (sprintf)
/usr/local/xenon/xenon/lib/32/libc.a(lib_a-stdio.o)
                              /usr/local/xenon/xenon/lib/32/libc.a(lib_a-fopen.o) (__sclose)
/usr/local/xenon/xenon/lib/32/libc.a(lib_a-strcasecmp.o)
                              /usr/local/xenon/usr/lib/libxenon.a(file_rb.o) (strcasecmp)
/usr/local/xenon/xenon/lib/32/libc.a(lib_a-strcat.o)
                              /usr/local/xenon/usr/lib/libxenon.a(fat_rb.o) (strcat)
/usr/local/xenon/xenon/lib/32/libc.a(lib_a-strchr.o)
                              /usr/local/xenon/usr/lib/libxenon.a(fat_rb.o) (strchr)
/usr/local/xenon/xenon/lib/32/libc.a(lib_a-strcmp.o)
                              /usr/local/xenon/usr/lib/libxenon.a(newlib.o) (strcmp)
/usr/local/xenon/xenon/lib/32/libc.a(lib_a-strcpy.o)
                              /usr/local/xenon/usr/lib/libxenon.a(newlib.o) (strcpy)
/usr/local/xenon/xenon/lib/32/libc.a(lib_a-strlcpy.o)
                              /usr/local/xenon/usr/lib/libxenon.a(fat.o) (strlcpy)
/usr/local/xenon/xenon/lib/32/libc.a(lib_a-strlen.o)
                              /usr/local/xenon/usr/lib/libxenon.a(newlib.o) (strlen)
/usr/local/xenon/xenon/lib/32/libc.a(lib_a-strncasecmp.o)
                              /usr/local/xenon/usr/lib/libxenon.a(iso9660.o) (strncasecmp)
/usr/local/xenon/xenon/lib/32/libc.a(lib_a-strncmp.o)
                              /usr/local/xenon/usr/lib/libxenon.a(newlib.o) (strncmp)
/usr/local/xenon/xenon/lib/32/libc.a(lib_a-strncpy.o)
                              /usr/local/xenon/usr/lib/libxenon.a(iso9660.o) (strncpy)
/usr/local/xenon/xenon/lib/32/libc.a(lib_a-strrchr.o)
                              /usr/local/xenon/usr/lib/libxenon.a(fat_rb.o) (strrchr)
/usr/local/xenon/xenon/lib/32/libc.a(lib_a-strtok_r.o)
                              /usr/local/xenon/usr/lib/libxenon.a(dir_rb.o) (strtok_r)
/usr/local/xenon/xenon/lib/32/libc.a(lib_a-strtol.o)
                              /usr/local/xenon/xenon/lib/32/libc.a(lib_a-atoi.o) (_strtol_r)
/usr/local/xenon/xenon/lib/32/libc.a(lib_a-svfprintf.o)
                              /usr/local/xenon/xenon/lib/32/libc.a(lib_a-snprintf.o) (_svfprintf_r)
/usr/local/xenon/xenon/lib/32/libc.a(lib_a-vfiprintf.o)
                              /usr/local/xenon/xenon/lib/32/libc.a(lib_a-fiprintf.o) (_vfiprintf_r)
/usr/local/xenon/xenon/lib/32/libc.a(lib_a-vfprintf.o)
                              /usr/local/xenon/xenon/lib/32/libc.a(lib_a-fprintf.o) (_vfprintf_r)
/usr/local/xenon/xenon/lib/32/libc.a(lib_a-wbuf.o)
                              /usr/local/xenon/xenon/lib/32/libc.a(lib_a-putc.o) (__swbuf_r)
/usr/local/xenon/xenon/lib/32/libc.a(lib_a-writer.o)
                              /usr/local/xenon/xenon/lib/32/libc.a(lib_a-stdio.o) (_write_r)
/usr/local/xenon/xenon/lib/32/libc.a(lib_a-wsetup.o)
                              /usr/local/xenon/xenon/lib/32/libc.a(lib_a-vfiprintf.o) (__swsetup_r)
/usr/local/xenon/xenon/lib/32/libc.a(lib_a-abort.o)
                              /usr/local/xenon/xenon/lib/32/libc.a(lib_a-assert.o) (abort)
/usr/local/xenon/xenon/lib/32/libc.a(lib_a-__call_atexit.o)
                              /usr/local/xenon/xenon/lib/32/libc.a(lib_a-exit.o) (__call_exitprocs)
/usr/local/xenon/xenon/lib/32/libc.a(lib_a-closer.o)
                              /usr/local/xenon/xenon/lib/32/libc.a(lib_a-stdio.o) (_close_r)
/usr/local/xenon/xenon/lib/32/libc.a(lib_a-dtoa.o)
                              /usr/local/xenon/xenon/lib/32/libc.a(lib_a-svfprintf.o) (_dtoa_r)
/usr/local/xenon/xenon/lib/32/libc.a(lib_a-fflush.o)
                              /usr/local/xenon/xenon/lib/32/libc.a(lib_a-fseek.o) (_fflush_r)
/usr/local/xenon/xenon/lib/32/libc.a(lib_a-findfp.o)
                              /usr/local/xenon/xenon/lib/32/libc.a(lib_a-fopen.o) (__sfp_lock_acquire)
/usr/local/xenon/xenon/lib/32/libc.a(lib_a-flags.o)
                              /usr/local/xenon/xenon/lib/32/libc.a(lib_a-fopen.o) (__sflags)
/usr/local/xenon/xenon/lib/32/libc.a(lib_a-freer.o)
                              /usr/local/xenon/xenon/lib/32/libc.a(lib_a-fseek.o) (_free_r)
/usr/local/xenon/xenon/lib/32/libc.a(lib_a-fvwrite.o)
                              /usr/local/xenon/xenon/lib/32/libc.a(lib_a-puts.o) (__sfvwrite_r)
/usr/local/xenon/xenon/lib/32/libc.a(lib_a-fwalk.o)
                              /usr/local/xenon/xenon/lib/32/libc.a(lib_a-fflush.o) (_fwalk_reent)
/usr/local/xenon/xenon/lib/32/libc.a(lib_a-isattyr.o)
                              /usr/local/xenon/xenon/lib/32/libc.a(lib_a-makebuf.o) (_isatty_r)
/usr/local/xenon/xenon/lib/32/libc.a(lib_a-locale.o)
                              /usr/local/xenon/xenon/lib/32/libc.a(lib_a-svfprintf.o) (_localeconv_r)
/usr/local/xenon/xenon/lib/32/libc.a(lib_a-lseekr.o)
                              /usr/local/xenon/xenon/lib/32/libc.a(lib_a-stdio.o) (_lseek_r)
/usr/local/xenon/xenon/lib/32/libc.a(lib_a-memmove.o)
                              /usr/local/xenon/xenon/lib/32/libc.a(lib_a-svfprintf.o) (memmove)
/usr/local/xenon/xenon/lib/32/libc.a(lib_a-mprec.o)
                              /usr/local/xenon/xenon/lib/32/libc.a(lib_a-dtoa.o) (_Bfree)
/usr/local/xenon/xenon/lib/32/libc.a(lib_a-readr.o)
                              /usr/local/xenon/xenon/lib/32/libc.a(lib_a-stdio.o) (_read_r)
/usr/local/xenon/xenon/lib/32/libc.a(lib_a-reallocr.o)
                              /usr/local/xenon/xenon/lib/32/libc.a(lib_a-svfprintf.o) (_realloc_r)
/usr/local/xenon/xenon/lib/32/libc.a(lib_a-signal.o)
                              /usr/local/xenon/xenon/lib/32/libc.a(lib_a-abort.o) (raise)
/usr/local/xenon/xenon/lib/32/libc.a(lib_a-signalr.o)
                              /usr/local/xenon/xenon/lib/32/libc.a(lib_a-signal.o) (_getpid_r)
/usr/local/xenon/xenon/lib/32/libc.a(lib_a-s_isinfd.o)
                              /usr/local/xenon/xenon/lib/32/libc.a(lib_a-svfprintf.o) (__isinfd)
/usr/local/xenon/xenon/lib/32/libc.a(lib_a-s_isnand.o)
                              /usr/local/xenon/xenon/lib/32/libc.a(lib_a-svfprintf.o) (__isnand)
/usr/local/xenon/xenon/lib/32/libc.a(lib_a-callocr.o)
                              /usr/local/xenon/xenon/lib/32/libc.a(lib_a-mprec.o) (_calloc_r)
/usr/local/xenon/xenon/lib/32/libc.a(lib_a-fclose.o)
                              /usr/local/xenon/xenon/lib/32/libc.a(lib_a-findfp.o) (fclose)

Allocating common symbols
Common symbol       size              file

errno               0x4               /usr/local/xenon/xenon/lib/32/libc.a(lib_a-reent.o)
cache_mutex         0x4               /usr/local/xenon/usr/lib/libxenon.a(fat_rb.o)
heap_ptr            0x4               /usr/local/xenon/usr/lib/libxenon.a(newlib.o)
kmempool            0xc               /usr/local/xenon/usr/lib/libxenon.a(lib_malloc.o)
usb_buses           0x10              /usr/local/xenon/usr/lib/libxenon.a(usbmain.o)
devices             0x380             /usr/local/xenon/usr/lib/libxenon.a(diskio.o)
ehci_hcds           0x338             /usr/local/xenon/usr/lib/libxenon.a(tinyehci.o)

Discarded input sections

 .text          0x0000000000000000        0x0 /usr/local/xenon/lib/gcc/xenon/4.4.0/../../../../xenon/lib/../lib/crt1.o
 .data          0x0000000000000000        0x0 /usr/local/xenon/lib/gcc/xenon/4.4.0/../../../../xenon/lib/../lib/crt1.o
 .bss           0x0000000000000000        0x0 /usr/local/xenon/lib/gcc/xenon/4.4.0/../../../../xenon/lib/../lib/crt1.o
 .text          0x0000000000000000        0x0 /usr/local/xenon/lib/gcc/xenon/4.4.0/../../../../xenon/lib/../lib/crti.o
 .data          0x0000000000000000        0x0 /usr/local/xenon/lib/gcc/xenon/4.4.0/../../../../xenon/lib/../lib/crti.o
 .bss           0x0000000000000000        0x0 /usr/local/xenon/lib/gcc/xenon/4.4.0/../../../../xenon/lib/../lib/crti.o
 .init          0x0000000000000000        0xc /usr/local/xenon/lib/gcc/xenon/4.4.0/../../../../xenon/lib/../lib/crti.o
 .fini          0x0000000000000000        0xc /usr/local/xenon/lib/gcc/xenon/4.4.0/../../../../xenon/lib/../lib/crti.o
 .text          0x0000000000000000      0x184 /usr/local/xenon/lib/gcc/xenon/4.4.0/32/crtbegin.o
 .data          0x0000000000000000        0x4 /usr/local/xenon/lib/gcc/xenon/4.4.0/32/crtbegin.o
 .bss           0x0000000000000000       0x20 /usr/local/xenon/lib/gcc/xenon/4.4.0/32/crtbegin.o
 .got2          0x0000000000000000       0x28 /usr/local/xenon/lib/gcc/xenon/4.4.0/32/crtbegin.o
 .ctors         0x0000000000000000        0x4 /usr/local/xenon/lib/gcc/xenon/4.4.0/32/crtbegin.o
 .dtors         0x0000000000000000        0x4 /usr/local/xenon/lib/gcc/xenon/4.4.0/32/crtbegin.o
 .jcr           0x0000000000000000        0x0 /usr/local/xenon/lib/gcc/xenon/4.4.0/32/crtbegin.o
 .fini          0x0000000000000000        0x4 /usr/local/xenon/lib/gcc/xenon/4.4.0/32/crtbegin.o
 .init          0x0000000000000000        0x4 /usr/local/xenon/lib/gcc/xenon/4.4.0/32/crtbegin.o
 .text          0x0000000000000000        0x0 main.o
 .data          0x0000000000000000        0x0 main.o
 .bss           0x0000000000000000        0x0 main.o
 .data          0x0000000000000000        0x0 /usr/local/xenon/usr/lib/libxenon.a(startup_from_xell.o)
 .bss           0x0000000000000000        0x0 /usr/local/xenon/usr/lib/libxenon.a(startup_from_xell.o)
 .text          0x0000000000000000        0x0 /usr/local/xenon/usr/lib/libxenon.a(console.o)
 .data          0x0000000000000000        0x0 /usr/local/xenon/usr/lib/libxenon.a(console.o)
 .bss           0x0000000000000000        0x0 /usr/local/xenon/usr/lib/libxenon.a(console.o)
 .text.console_pset
                0x0000000000000000       0x6c /usr/local/xenon/usr/lib/libxenon.a(console.o)
 .text.console_set_colors
                0x0000000000000000       0x14 /usr/local/xenon/usr/lib/libxenon.a(console.o)
 .text.console_close
                0x0000000000000000       0x10 /usr/local/xenon/usr/lib/libxenon.a(console.o)
 .text          0x0000000000000000        0x0 /usr/local/xenon/usr/lib/libxenon.a(newlib.o)
 .data          0x0000000000000000        0x0 /usr/local/xenon/usr/lib/libxenon.a(newlib.o)
 .bss           0x0000000000000000        0x0 /usr/local/xenon/usr/lib/libxenon.a(newlib.o)
 .text.vfs_default_lseek
                0x0000000000000000       0x60 /usr/local/xenon/usr/lib/libxenon.a(newlib.o)
 .text.umount   0x0000000000000000       0x54 /usr/local/xenon/usr/lib/libxenon.a(newlib.o)
 .text.unlink   0x0000000000000000        0x8 /usr/local/xenon/usr/lib/libxenon.a(newlib.o)
 .text.readdir  0x0000000000000000       0x9c /usr/local/xenon/usr/lib/libxenon.a(newlib.o)
 .text.closedir
                0x0000000000000000       0xa8 /usr/local/xenon/usr/lib/libxenon.a(newlib.o)
 .text.opendir  0x0000000000000000      0x154 /usr/local/xenon/usr/lib/libxenon.a(newlib.o)
 .bss.dd_array  0x0000000000000000      0xb00 /usr/local/xenon/usr/lib/libxenon.a(newlib.o)
 .data          0x0000000000000000        0x0 /usr/local/xenon/usr/lib/libxenon.a(atomic.o)
 .bss           0x0000000000000000        0x0 /usr/local/xenon/usr/lib/libxenon.a(atomic.o)
 .data          0x0000000000000000        0x0 /usr/local/xenon/usr/lib/libxenon.a(cache.o)
 .bss           0x0000000000000000        0x0 /usr/local/xenon/usr/lib/libxenon.a(cache.o)
 .text          0x0000000000000000        0x0 /usr/local/xenon/usr/lib/libxenon.a(except.o)
 .data          0x0000000000000000        0x0 /usr/local/xenon/usr/lib/libxenon.a(except.o)
 .bss           0x0000000000000000        0x0 /usr/local/xenon/usr/lib/libxenon.a(except.o)
 .text          0x0000000000000000        0x0 /usr/local/xenon/usr/lib/libxenon.a(vm.o)
 .data          0x0000000000000000        0x0 /usr/local/xenon/usr/lib/libxenon.a(vm.o)
 .bss           0x0000000000000000        0x0 /usr/local/xenon/usr/lib/libxenon.a(vm.o)
 .text          0x0000000000000000        0x0 /usr/local/xenon/usr/lib/libxenon.a(usbmain.o)
 .data          0x0000000000000000        0x0 /usr/local/xenon/usr/lib/libxenon.a(usbmain.o)
 .bss           0x0000000000000000        0x0 /usr/local/xenon/usr/lib/libxenon.a(usbmain.o)
 .text          0x0000000000000000        0x0 /usr/local/xenon/usr/lib/libxenon.a(tinyehci.o)
 .data          0x0000000000000000        0x0 /usr/local/xenon/usr/lib/libxenon.a(tinyehci.o)
 .bss           0x0000000000000000        0x0 /usr/local/xenon/usr/lib/libxenon.a(tinyehci.o)
 .text.ehci_open_device
                0x0000000000000000       0x80 /usr/local/xenon/usr/lib/libxenon.a(tinyehci.o)
 .text.ehci_close_device
                0x0000000000000000       0x18 /usr/local/xenon/usr/lib/libxenon.a(tinyehci.o)
 .text.ehci_fd_to_dev
                0x0000000000000000       0x48 /usr/local/xenon/usr/lib/libxenon.a(tinyehci.o)
 .text.ehci_get_device_list
                0x0000000000000000       0xa8 /usr/local/xenon/usr/lib/libxenon.a(tinyehci.o)
 .text.my_memcmp
                0x0000000000000000       0x44 /usr/local/xenon/usr/lib/libxenon.a(tinyehci.o)
 .text.USBStorage_GetMaxLUN
                0x0000000000000000        0x8 /usr/local/xenon/usr/lib/libxenon.a(tinyehci.o)
 .text.USBStorage_Get_Capacity
                0x0000000000000000       0x60 /usr/local/xenon/usr/lib/libxenon.a(tinyehci.o)
 .text.EHCI_Poll
                0x0000000000000000        0x8 /usr/local/xenon/usr/lib/libxenon.a(tinyehci.o)
 .text.USBStorage_Umount
                0x0000000000000000       0x98 /usr/local/xenon/usr/lib/libxenon.a(tinyehci.o)
 .text.ehci_release_ports
                0x0000000000000000       0xc8 /usr/local/xenon/usr/lib/libxenon.a(tinyehci.o)
 .text.dump_qh  0x0000000000000000       0x5c /usr/local/xenon/usr/lib/libxenon.a(tinyehci.o)
 .text.debug_qtds
                0x0000000000000000       0x54 /usr/local/xenon/usr/lib/libxenon.a(tinyehci.o)
 .text.USB_WriteBlkMsg
                0x0000000000000000        0x4 /usr/local/xenon/usr/lib/libxenon.a(tinyehci.o)
 .text.USB_WriteCtrlMsg
                0x0000000000000000        0x4 /usr/local/xenon/usr/lib/libxenon.a(tinyehci.o)
 .text.ehci_reset_device
                0x0000000000000000        0x8 /usr/local/xenon/usr/lib/libxenon.a(tinyehci.o)
 .text.USBStorage_Read_Stress
                0x0000000000000000       0xf8 /usr/local/xenon/usr/lib/libxenon.a(tinyehci.o)
 .text          0x0000000000000000        0x0 /usr/local/xenon/usr/lib/libxenon.a(xenon_uart.o)
 .data          0x0000000000000000        0x0 /usr/local/xenon/usr/lib/libxenon.a(xenon_uart.o)
 .bss           0x0000000000000000        0x0 /usr/local/xenon/usr/lib/libxenon.a(xenon_uart.o)
 .text.kbhit    0x0000000000000000       0x24 /usr/local/xenon/usr/lib/libxenon.a(xenon_uart.o)
 .text.getch    0x0000000000000000       0x3c /usr/local/xenon/usr/lib/libxenon.a(xenon_uart.o)
 .text          0x0000000000000000        0x0 /usr/local/xenon/usr/lib/libxenon.a(xenos.o)
 .data          0x0000000000000000        0x0 /usr/local/xenon/usr/lib/libxenon.a(xenos.o)
 .bss           0x0000000000000000        0x0 /usr/local/xenon/usr/lib/libxenon.a(xenos.o)
 .text          0x0000000000000000        0x0 /usr/local/xenon/usr/lib/libxenon.a(diskio.o)
 .data          0x0000000000000000        0x0 /usr/local/xenon/usr/lib/libxenon.a(diskio.o)
 .bss           0x0000000000000000        0x0 /usr/local/xenon/usr/lib/libxenon.a(diskio.o)
 .text.bdev_enum
                0x0000000000000000       0x78 /usr/local/xenon/usr/lib/libxenon.a(diskio.o)
 .text.bdev_open
                0x0000000000000000       0x80 /usr/local/xenon/usr/lib/libxenon.a(diskio.o)
 .text.unregister_bdev
                0x0000000000000000       0x38 /usr/local/xenon/usr/lib/libxenon.a(diskio.o)
 .text.register_bdev_child
                0x0000000000000000       0x8c /usr/local/xenon/usr/lib/libxenon.a(diskio.o)
 .text          0x0000000000000000        0x0 /usr/local/xenon/usr/lib/libxenon.a(fat.o)
 .data          0x0000000000000000        0x0 /usr/local/xenon/usr/lib/libxenon.a(fat.o)
 .bss           0x0000000000000000        0x0 /usr/local/xenon/usr/lib/libxenon.a(fat.o)
 .text          0x0000000000000000        0x0 /usr/local/xenon/usr/lib/libxenon.a(fat_rb.o)
 .data          0x0000000000000000        0x0 /usr/local/xenon/usr/lib/libxenon.a(fat_rb.o)
 .bss           0x0000000000000000        0x0 /usr/local/xenon/usr/lib/libxenon.a(fat_rb.o)
 .text.fat_size
                0x0000000000000000       0x4c /usr/local/xenon/usr/lib/libxenon.a(fat_rb.o)
 .text.fat_get_cluster_size
                0x0000000000000000       0x1c /usr/local/xenon/usr/lib/libxenon.a(fat_rb.o)
 .text.fat_ismounted
                0x0000000000000000       0x28 /usr/local/xenon/usr/lib/libxenon.a(fat_rb.o)
 .text.fat_lock
                0x0000000000000000       0x28 /usr/local/xenon/usr/lib/libxenon.a(fat_rb.o)
 .text.fat_unlock
                0x0000000000000000       0x28 /usr/local/xenon/usr/lib/libxenon.a(fat_rb.o)
 .text.free_direntries
                0x0000000000000000      0x1f4 /usr/local/xenon/usr/lib/libxenon.a(fat_rb.o)
 .text.fat_remove
                0x0000000000000000       0xd4 /usr/local/xenon/usr/lib/libxenon.a(fat_rb.o)
 .text.fat_rename
                0x0000000000000000      0x2e4 /usr/local/xenon/usr/lib/libxenon.a(fat_rb.o)
 .text.fat_create_dir
                0x0000000000000000      0x228 /usr/local/xenon/usr/lib/libxenon.a(fat_rb.o)
 .text          0x0000000000000000        0x0 /usr/local/xenon/usr/lib/libxenon.a(file_rb.o)
 .data          0x0000000000000000        0x0 /usr/local/xenon/usr/lib/libxenon.a(file_rb.o)
 .bss           0x0000000000000000        0x0 /usr/local/xenon/usr/lib/libxenon.a(file_rb.o)
 .text.release_files
                0x0000000000000000       0x40 /usr/local/xenon/usr/lib/libxenon.a(file_rb.o)
 .text.rb_rename
                0x0000000000000000      0x274 /usr/local/xenon/usr/lib/libxenon.a(file_rb.o)
 .text.rb_remove
                0x0000000000000000       0xc0 /usr/local/xenon/usr/lib/libxenon.a(file_rb.o)
 .text          0x0000000000000000        0x0 /usr/local/xenon/usr/lib/libxenon.a(dir_rb.o)
 .data          0x0000000000000000        0x0 /usr/local/xenon/usr/lib/libxenon.a(dir_rb.o)
 .bss           0x0000000000000000        0x0 /usr/local/xenon/usr/lib/libxenon.a(dir_rb.o)
 .text.release_dirs
                0x0000000000000000       0x40 /usr/local/xenon/usr/lib/libxenon.a(dir_rb.o)
 .text.rb_rmdir
                0x0000000000000000      0x100 /usr/local/xenon/usr/lib/libxenon.a(dir_rb.o)
 .text.rb_mkdir
                0x0000000000000000      0x184 /usr/local/xenon/usr/lib/libxenon.a(dir_rb.o)
 .text          0x0000000000000000        0x0 /usr/local/xenon/usr/lib/libxenon.a(iso9660.o)
 .data          0x0000000000000000        0x0 /usr/local/xenon/usr/lib/libxenon.a(iso9660.o)
 .bss           0x0000000000000000        0x0 /usr/local/xenon/usr/lib/libxenon.a(iso9660.o)
 .text          0x0000000000000000        0x0 /usr/local/xenon/usr/lib/libxenon.a(lib_malloc.o)
 .data          0x0000000000000000        0x0 /usr/local/xenon/usr/lib/libxenon.a(lib_malloc.o)
 .bss           0x0000000000000000        0x0 /usr/local/xenon/usr/lib/libxenon.a(lib_malloc.o)
 .text.kmeminit
                0x0000000000000000       0x38 /usr/local/xenon/usr/lib/libxenon.a(lib_malloc.o)
 .text.kmempoolbase
                0x0000000000000000        0x8 /usr/local/xenon/usr/lib/libxenon.a(lib_malloc.o)
 .text.kmempoolsize
                0x0000000000000000        0x8 /usr/local/xenon/usr/lib/libxenon.a(lib_malloc.o)
 .text.kmemstats
                0x0000000000000000       0xf8 /usr/local/xenon/usr/lib/libxenon.a(lib_malloc.o)
 .text          0x0000000000000000        0x0 /usr/local/xenon/usr/lib/libxenon.a(io.o)
 .data          0x0000000000000000        0x0 /usr/local/xenon/usr/lib/libxenon.a(io.o)
 .bss           0x0000000000000000        0x0 /usr/local/xenon/usr/lib/libxenon.a(io.o)
 .text          0x0000000000000000        0x0 /usr/local/xenon/usr/lib/libxenon.a(time.o)
 .data          0x0000000000000000        0x0 /usr/local/xenon/usr/lib/libxenon.a(time.o)
 .bss           0x0000000000000000        0x0 /usr/local/xenon/usr/lib/libxenon.a(time.o)
 .text          0x0000000000000000        0x0 /usr/local/xenon/usr/lib/libxenon.a(ohci.o)
 .data          0x0000000000000000        0x0 /usr/local/xenon/usr/lib/libxenon.a(ohci.o)
 .bss           0x0000000000000000        0x0 /usr/local/xenon/usr/lib/libxenon.a(ohci.o)
 .sbss.ohcidebug
                0x0000000000000000        0x4 /usr/local/xenon/usr/lib/libxenon.a(ohci.o)
 .text          0x0000000000000000        0x0 /usr/local/xenon/usr/lib/libxenon.a(usbd.o)
 .data          0x0000000000000000        0x0 /usr/local/xenon/usr/lib/libxenon.a(usbd.o)
 .bss           0x0000000000000000        0x0 /usr/local/xenon/usr/lib/libxenon.a(usbd.o)
 .text.usb_cancel_request
                0x0000000000000000       0x2c /usr/local/xenon/usr/lib/libxenon.a(usbd.o)
 .text.usb_destroy_pipe
                0x0000000000000000       0x78 /usr/local/xenon/usr/lib/libxenon.a(usbd.o)
 .text.usb_make_sync_request
                0x0000000000000000       0x48 /usr/local/xenon/usr/lib/libxenon.a(usbd.o)
 .text          0x0000000000000000        0x0 /usr/local/xenon/usr/lib/libxenon.a(usbdevs.o)
 .data          0x0000000000000000        0x0 /usr/local/xenon/usr/lib/libxenon.a(usbdevs.o)
 .bss           0x0000000000000000        0x0 /usr/local/xenon/usr/lib/libxenon.a(usbdevs.o)
 .text          0x0000000000000000        0x0 /usr/local/xenon/usr/lib/libxenon.a(usbhid.o)
 .data          0x0000000000000000        0x0 /usr/local/xenon/usr/lib/libxenon.a(usbhid.o)
 .bss           0x0000000000000000        0x0 /usr/local/xenon/usr/lib/libxenon.a(usbhid.o)
 .text          0x0000000000000000        0x0 /usr/local/xenon/usr/lib/libxenon.a(usbhub.o)
 .data          0x0000000000000000        0x0 /usr/local/xenon/usr/lib/libxenon.a(usbhub.o)
 .bss           0x0000000000000000        0x0 /usr/local/xenon/usr/lib/libxenon.a(usbhub.o)
 .text.usbhub_dumpbus
                0x0000000000000000       0x30 /usr/local/xenon/usr/lib/libxenon.a(usbhub.o)
 .text.usbhub_dumpbus1
                0x0000000000000000       0x9c /usr/local/xenon/usr/lib/libxenon.a(usbhub.o)
 .text          0x0000000000000000        0x0 /usr/local/xenon/usr/lib/libxenon.a(usb_os.o)
 .data          0x0000000000000000        0x0 /usr/local/xenon/usr/lib/libxenon.a(usb_os.o)
 .bss           0x0000000000000000        0x0 /usr/local/xenon/usr/lib/libxenon.a(usb_os.o)
 .text          0x0000000000000000        0x0 /usr/local/xenon/usr/lib/libxenon.a(unicode_rb.o)
 .data          0x0000000000000000        0x0 /usr/local/xenon/usr/lib/libxenon.a(unicode_rb.o)
 .bss           0x0000000000000000        0x0 /usr/local/xenon/usr/lib/libxenon.a(unicode_rb.o)
 .text.utf16LEdecode
                0x0000000000000000       0xb0 /usr/local/xenon/usr/lib/libxenon.a(unicode_rb.o)
 .text.utf16BEdecode
                0x0000000000000000       0xb0 /usr/local/xenon/usr/lib/libxenon.a(unicode_rb.o)
 .text.utf8seek
                0x0000000000000000       0x34 /usr/local/xenon/usr/lib/libxenon.a(unicode_rb.o)
 .text          0x0000000000000000        0x0 /usr/local/xenon/usr/lib/libxenon.a(xenon_gpio.o)
 .data          0x0000000000000000        0x0 /usr/local/xenon/usr/lib/libxenon.a(xenon_gpio.o)
 .bss           0x0000000000000000        0x0 /usr/local/xenon/usr/lib/libxenon.a(xenon_gpio.o)
 .text.xenon_gpio_control
                0x0000000000000000       0x9c /usr/local/xenon/usr/lib/libxenon.a(xenon_gpio.o)
 .rodata.C.0.1730
                0x0000000000000000       0x24 /usr/local/xenon/usr/lib/libxenon.a(xenon_gpio.o)
 .text          0x0000000000000000        0x0 /usr/local/xenon/usr/lib/libxenon.a(xenon_smc.o)
 .data          0x0000000000000000        0x0 /usr/local/xenon/usr/lib/libxenon.a(xenon_smc.o)
 .bss           0x0000000000000000        0x0 /usr/local/xenon/usr/lib/libxenon.a(xenon_smc.o)
 .text.xenon_smc_query_sensors
                0x0000000000000000       0x88 /usr/local/xenon/usr/lib/libxenon.a(xenon_smc.o)
 .text.xenon_smc_start_bootanim
                0x0000000000000000       0x48 /usr/local/xenon/usr/lib/libxenon.a(xenon_smc.o)
 .text.xenon_smc_power_reboot
                0x0000000000000000       0x48 /usr/local/xenon/usr/lib/libxenon.a(xenon_smc.o)
 .text.xenon_smc_power_shutdown
                0x0000000000000000       0x40 /usr/local/xenon/usr/lib/libxenon.a(xenon_smc.o)
 .text.xenon_smc_set_power_led
                0x0000000000000000       0x5c /usr/local/xenon/usr/lib/libxenon.a(xenon_smc.o)
 .text.xenon_smc_set_led
                0x0000000000000000       0x40 /usr/local/xenon/usr/lib/libxenon.a(xenon_smc.o)
 .text.xenon_smc_i2c_read
                0x0000000000000000       0xc8 /usr/local/xenon/usr/lib/libxenon.a(xenon_smc.o)
 .text          0x0000000000000000        0x0 /usr/local/xenon/usr/lib/libxenon.a(xenon_config.o)
 .data          0x0000000000000000        0x0 /usr/local/xenon/usr/lib/libxenon.a(xenon_config.o)
 .bss           0x0000000000000000        0x0 /usr/local/xenon/usr/lib/libxenon.a(xenon_config.o)
 .text.xenon_config_get_vid_delta
                0x0000000000000000       0x20 /usr/local/xenon/usr/lib/libxenon.a(xenon_config.o)
 .text.xenon_config_get_mac_addr
                0x0000000000000000       0x9c /usr/local/xenon/usr/lib/libxenon.a(xenon_config.o)
 .rodata.C.4.2940
                0x0000000000000000        0x6 /usr/local/xenon/usr/lib/libxenon.a(xenon_config.o)
 .text          0x0000000000000000        0x0 /usr/local/xenon/usr/lib/libxenon.a(disk_rb.o)
 .data          0x0000000000000000        0x0 /usr/local/xenon/usr/lib/libxenon.a(disk_rb.o)
 .bss           0x0000000000000000        0x0 /usr/local/xenon/usr/lib/libxenon.a(disk_rb.o)
 .text.disk_partinfo
                0x0000000000000000       0x14 /usr/local/xenon/usr/lib/libxenon.a(disk_rb.o)
 .text.disk_unmount
                0x0000000000000000       0xa0 /usr/local/xenon/usr/lib/libxenon.a(disk_rb.o)
 .text          0x0000000000000000        0x0 /usr/local/xenon/usr/lib/libxenon.a(lib_queue.o)
 .data          0x0000000000000000        0x0 /usr/local/xenon/usr/lib/libxenon.a(lib_queue.o)
 .bss           0x0000000000000000        0x0 /usr/local/xenon/usr/lib/libxenon.a(lib_queue.o)
 .text.q_dequeue
                0x0000000000000000       0x18 /usr/local/xenon/usr/lib/libxenon.a(lib_queue.o)
 .text.q_map    0x0000000000000000       0x8c /usr/local/xenon/usr/lib/libxenon.a(lib_queue.o)
 .text.q_count  0x0000000000000000       0x24 /usr/local/xenon/usr/lib/libxenon.a(lib_queue.o)
 .text.q_find   0x0000000000000000       0x34 /usr/local/xenon/usr/lib/libxenon.a(lib_queue.o)
 .text          0x0000000000000000        0x0 /usr/local/xenon/usr/lib/libxenon.a(usbctrl.o)
 .data          0x0000000000000000        0x0 /usr/local/xenon/usr/lib/libxenon.a(usbctrl.o)
 .bss           0x0000000000000000        0x0 /usr/local/xenon/usr/lib/libxenon.a(usbctrl.o)
 .text          0x0000000000000000        0x0 /usr/local/xenon/usr/lib/libxenon.a(usbdebug.o)
 .data          0x0000000000000000        0x0 /usr/local/xenon/usr/lib/libxenon.a(usbdebug.o)
 .bss           0x0000000000000000        0x0 /usr/local/xenon/usr/lib/libxenon.a(usbdebug.o)
 .text.usb_dbg_showdevice
                0x0000000000000000       0x78 /usr/local/xenon/usr/lib/libxenon.a(usbdebug.o)
 .text.usb_dbg_dumpcfgdescr
                0x0000000000000000       0xd4 /usr/local/xenon/usr/lib/libxenon.a(usbdebug.o)
 .text.usb_dbg_dumpdevice
                0x0000000000000000       0xd8 /usr/local/xenon/usr/lib/libxenon.a(usbdebug.o)
 .text          0x0000000000000000        0x0 /usr/local/xenon/usr/lib/libxenon.a(xenon_sfcx.o)
 .data          0x0000000000000000        0x0 /usr/local/xenon/usr/lib/libxenon.a(xenon_sfcx.o)
 .bss           0x0000000000000000        0x0 /usr/local/xenon/usr/lib/libxenon.a(xenon_sfcx.o)
 .text.sfcx_get_blocknumber
                0x0000000000000000       0x78 /usr/local/xenon/usr/lib/libxenon.a(xenon_sfcx.o)
 .text.sfcx_set_blocknumber
                0x0000000000000000       0x60 /usr/local/xenon/usr/lib/libxenon.a(xenon_sfcx.o)
 .text.sfcx_get_blockversion
                0x0000000000000000       0xbc /usr/local/xenon/usr/lib/libxenon.a(xenon_sfcx.o)
 .text.sfcx_set_blockversion
                0x0000000000000000       0x9c /usr/local/xenon/usr/lib/libxenon.a(xenon_sfcx.o)
 .text.sfcx_set_pagevalid
                0x0000000000000000       0x48 /usr/local/xenon/usr/lib/libxenon.a(xenon_sfcx.o)
 .text.sfcx_set_pageinvalid
                0x0000000000000000       0x54 /usr/local/xenon/usr/lib/libxenon.a(xenon_sfcx.o)
 .text.sfcx_is_pagevalid
                0x0000000000000000       0x54 /usr/local/xenon/usr/lib/libxenon.a(xenon_sfcx.o)
 .text.sfcx_block_to_address
                0x0000000000000000       0x10 /usr/local/xenon/usr/lib/libxenon.a(xenon_sfcx.o)
 .text.sfcx_address_to_block
                0x0000000000000000       0x10 /usr/local/xenon/usr/lib/libxenon.a(xenon_sfcx.o)
 .text.sfcx_calcecc
                0x0000000000000000       0xa4 /usr/local/xenon/usr/lib/libxenon.a(xenon_sfcx.o)
 .text.sfcx_erase_block
                0x0000000000000000       0xe8 /usr/local/xenon/usr/lib/libxenon.a(xenon_sfcx.o)
 .text.sfcx_write_page
                0x0000000000000000      0x14c /usr/local/xenon/usr/lib/libxenon.a(xenon_sfcx.o)
 .text.sfcx_write_block
                0x0000000000000000       0x94 /usr/local/xenon/usr/lib/libxenon.a(xenon_sfcx.o)
 .text.sfcx_read_block
                0x0000000000000000       0xc0 /usr/local/xenon/usr/lib/libxenon.a(xenon_sfcx.o)
 .text          0x0000000000000000        0x0 /usr/local/xenon/usr/lib/libxenon.a(input.o)
 .data          0x0000000000000000        0x0 /usr/local/xenon/usr/lib/libxenon.a(input.o)
 .bss           0x0000000000000000        0x0 /usr/local/xenon/usr/lib/libxenon.a(input.o)
 .text.get_controller_data
                0x0000000000000000       0x68 /usr/local/xenon/usr/lib/libxenon.a(input.o)
 .data          0x0000000000000000        0x0 /usr/local/xenon/xenon/lib/32/libc.a(lib_a-assert.o)
 .bss           0x0000000000000000        0x0 /usr/local/xenon/xenon/lib/32/libc.a(lib_a-assert.o)
 .data          0x0000000000000000        0x0 /usr/local/xenon/xenon/lib/32/libc.a(lib_a-atoi.o)
 .bss           0x0000000000000000        0x0 /usr/local/xenon/xenon/lib/32/libc.a(lib_a-atoi.o)
 .got2          0x0000000000000000        0x0 /usr/local/xenon/xenon/lib/32/libc.a(lib_a-atoi.o)
 .text          0x0000000000000000        0x0 /usr/local/xenon/xenon/lib/32/libc.a(lib_a-ctype_.o)
 .data          0x0000000000000000        0x0 /usr/local/xenon/xenon/lib/32/libc.a(lib_a-ctype_.o)
 .bss           0x0000000000000000        0x0 /usr/local/xenon/xenon/lib/32/libc.a(lib_a-ctype_.o)
 .got2          0x0000000000000000        0x0 /usr/local/xenon/xenon/lib/32/libc.a(lib_a-ctype_.o)
 .data          0x0000000000000000        0x0 /usr/local/xenon/xenon/lib/32/libc.a(lib_a-errno.o)
 .bss           0x0000000000000000        0x0 /usr/local/xenon/xenon/lib/32/libc.a(lib_a-errno.o)
 .data          0x0000000000000000        0x0 /usr/local/xenon/xenon/lib/32/libc.a(lib_a-exit.o)
 .bss           0x0000000000000000        0x0 /usr/local/xenon/xenon/lib/32/libc.a(lib_a-exit.o)
 .data          0x0000000000000000        0x0 /usr/local/xenon/xenon/lib/32/libc.a(lib_a-fiprintf.o)
 .bss           0x0000000000000000        0x0 /usr/local/xenon/xenon/lib/32/libc.a(lib_a-fiprintf.o)
 .data          0x0000000000000000        0x0 /usr/local/xenon/xenon/lib/32/libc.a(lib_a-fopen.o)
 .bss           0x0000000000000000        0x0 /usr/local/xenon/xenon/lib/32/libc.a(lib_a-fopen.o)
 .data          0x0000000000000000        0x0 /usr/local/xenon/xenon/lib/32/libc.a(lib_a-fprintf.o)
 .bss           0x0000000000000000        0x0 /usr/local/xenon/xenon/lib/32/libc.a(lib_a-fprintf.o)
 .data          0x0000000000000000        0x0 /usr/local/xenon/xenon/lib/32/libc.a(lib_a-fseek.o)
 .bss           0x0000000000000000        0x0 /usr/local/xenon/xenon/lib/32/libc.a(lib_a-fseek.o)
 .data          0x0000000000000000        0x0 /usr/local/xenon/xenon/lib/32/libc.a(lib_a-fstatr.o)
 .bss           0x0000000000000000        0x0 /usr/local/xenon/xenon/lib/32/libc.a(lib_a-fstatr.o)
 .text          0x0000000000000000        0x0 /usr/local/xenon/xenon/lib/32/libc.a(lib_a-impure.o)
 .data          0x0000000000000000        0x0 /usr/local/xenon/xenon/lib/32/libc.a(lib_a-impure.o)
 .bss           0x0000000000000000        0x0 /usr/local/xenon/xenon/lib/32/libc.a(lib_a-impure.o)
 .got2          0x0000000000000000        0x0 /usr/local/xenon/xenon/lib/32/libc.a(lib_a-impure.o)
 .data          0x0000000000000000        0x0 /usr/local/xenon/xenon/lib/32/libc.a(lib_a-makebuf.o)
 .bss           0x0000000000000000        0x0 /usr/local/xenon/xenon/lib/32/libc.a(lib_a-makebuf.o)
 .data          0x0000000000000000        0x0 /usr/local/xenon/xenon/lib/32/libc.a(lib_a-malloc.o)
 .bss           0x0000000000000000        0x0 /usr/local/xenon/xenon/lib/32/libc.a(lib_a-malloc.o)
 .data          0x0000000000000000        0x0 /usr/local/xenon/xenon/lib/32/libc.a(lib_a-mallocr.o)
 .data          0x0000000000000000        0x0 /usr/local/xenon/xenon/lib/32/libc.a(lib_a-memchr.o)
 .bss           0x0000000000000000        0x0 /usr/local/xenon/xenon/lib/32/libc.a(lib_a-memchr.o)
 .got2          0x0000000000000000        0x0 /usr/local/xenon/xenon/lib/32/libc.a(lib_a-memchr.o)
 .data          0x0000000000000000        0x0 /usr/local/xenon/xenon/lib/32/libc.a(lib_a-memcmp.o)
 .bss           0x0000000000000000        0x0 /usr/local/xenon/xenon/lib/32/libc.a(lib_a-memcmp.o)
 .got2          0x0000000000000000        0x0 /usr/local/xenon/xenon/lib/32/libc.a(lib_a-memcmp.o)
 .data          0x0000000000000000        0x0 /usr/local/xenon/xenon/lib/32/libc.a(lib_a-memcpy.o)
 .bss           0x0000000000000000        0x0 /usr/local/xenon/xenon/lib/32/libc.a(lib_a-memcpy.o)
 .got2          0x0000000000000000        0x0 /usr/local/xenon/xenon/lib/32/libc.a(lib_a-memcpy.o)
 .data          0x0000000000000000        0x0 /usr/local/xenon/xenon/lib/32/libc.a(lib_a-memset.o)
 .bss           0x0000000000000000        0x0 /usr/local/xenon/xenon/lib/32/libc.a(lib_a-memset.o)
 .got2          0x0000000000000000        0x0 /usr/local/xenon/xenon/lib/32/libc.a(lib_a-memset.o)
 .data          0x0000000000000000        0x0 /usr/local/xenon/xenon/lib/32/libc.a(lib_a-mlock.o)
 .bss           0x0000000000000000        0x0 /usr/local/xenon/xenon/lib/32/libc.a(lib_a-mlock.o)
 .got2          0x0000000000000000        0x0 /usr/local/xenon/xenon/lib/32/libc.a(lib_a-mlock.o)
 .data          0x0000000000000000        0x0 /usr/local/xenon/xenon/lib/32/libc.a(lib_a-openr.o)
 .bss           0x0000000000000000        0x0 /usr/local/xenon/xenon/lib/32/libc.a(lib_a-openr.o)
 .data          0x0000000000000000        0x0 /usr/local/xenon/xenon/lib/32/libc.a(lib_a-printf.o)
 .bss           0x0000000000000000        0x0 /usr/local/xenon/xenon/lib/32/libc.a(lib_a-printf.o)
 .data          0x0000000000000000        0x0 /usr/local/xenon/xenon/lib/32/libc.a(lib_a-putchar.o)
 .bss           0x0000000000000000        0x0 /usr/local/xenon/xenon/lib/32/libc.a(lib_a-putchar.o)
 .data          0x0000000000000000        0x0 /usr/local/xenon/xenon/lib/32/libc.a(lib_a-putc.o)
 .bss           0x0000000000000000        0x0 /usr/local/xenon/xenon/lib/32/libc.a(lib_a-putc.o)
 .data          0x0000000000000000        0x0 /usr/local/xenon/xenon/lib/32/libc.a(lib_a-puts.o)
 .bss           0x0000000000000000        0x0 /usr/local/xenon/xenon/lib/32/libc.a(lib_a-puts.o)
 .text          0x0000000000000000      0x294 /usr/local/xenon/xenon/lib/32/libc.a(lib_a-reent.o)
 .data          0x0000000000000000        0x0 /usr/local/xenon/xenon/lib/32/libc.a(lib_a-reent.o)
 .bss           0x0000000000000000        0x0 /usr/local/xenon/xenon/lib/32/libc.a(lib_a-reent.o)
 .got2          0x0000000000000000        0x4 /usr/local/xenon/xenon/lib/32/libc.a(lib_a-reent.o)
 .data          0x0000000000000000        0x0 /usr/local/xenon/xenon/lib/32/libc.a(lib_a-refill.o)
 .bss           0x0000000000000000        0x0 /usr/local/xenon/xenon/lib/32/libc.a(lib_a-refill.o)
 .data          0x0000000000000000        0x0 /usr/local/xenon/xenon/lib/32/libc.a(lib_a-sbrkr.o)
 .bss           0x0000000000000000        0x0 /usr/local/xenon/xenon/lib/32/libc.a(lib_a-sbrkr.o)
 .data          0x0000000000000000        0x0 /usr/local/xenon/xenon/lib/32/libc.a(lib_a-snprintf.o)
 .bss           0x0000000000000000        0x0 /usr/local/xenon/xenon/lib/32/libc.a(lib_a-snprintf.o)
 .text          0x0000000000000000      0x1a4 /usr/local/xenon/xenon/lib/32/libc.a(lib_a-sprintf.o)
 .data          0x0000000000000000        0x0 /usr/local/xenon/xenon/lib/32/libc.a(lib_a-sprintf.o)
 .bss           0x0000000000000000        0x0 /usr/local/xenon/xenon/lib/32/libc.a(lib_a-sprintf.o)
 .got2          0x0000000000000000        0x4 /usr/local/xenon/xenon/lib/32/libc.a(lib_a-sprintf.o)
 .data          0x0000000000000000        0x0 /usr/local/xenon/xenon/lib/32/libc.a(lib_a-stdio.o)
 .bss           0x0000000000000000        0x0 /usr/local/xenon/xenon/lib/32/libc.a(lib_a-stdio.o)
 .got2          0x0000000000000000        0x0 /usr/local/xenon/xenon/lib/32/libc.a(lib_a-stdio.o)
 .data          0x0000000000000000        0x0 /usr/local/xenon/xenon/lib/32/libc.a(lib_a-strcasecmp.o)
 .bss           0x0000000000000000        0x0 /usr/local/xenon/xenon/lib/32/libc.a(lib_a-strcasecmp.o)
 .data          0x0000000000000000        0x0 /usr/local/xenon/xenon/lib/32/libc.a(lib_a-strcat.o)
 .bss           0x0000000000000000        0x0 /usr/local/xenon/xenon/lib/32/libc.a(lib_a-strcat.o)
 .got2          0x0000000000000000        0x0 /usr/local/xenon/xenon/lib/32/libc.a(lib_a-strcat.o)
 .data          0x0000000000000000        0x0 /usr/local/xenon/xenon/lib/32/libc.a(lib_a-strchr.o)
 .bss           0x0000000000000000        0x0 /usr/local/xenon/xenon/lib/32/libc.a(lib_a-strchr.o)
 .got2          0x0000000000000000        0x0 /usr/local/xenon/xenon/lib/32/libc.a(lib_a-strchr.o)
 .data          0x0000000000000000        0x0 /usr/local/xenon/xenon/lib/32/libc.a(lib_a-strcmp.o)
 .bss           0x0000000000000000        0x0 /usr/local/xenon/xenon/lib/32/libc.a(lib_a-strcmp.o)
 .got2          0x0000000000000000        0x0 /usr/local/xenon/xenon/lib/32/libc.a(lib_a-strcmp.o)
 .data          0x0000000000000000        0x0 /usr/local/xenon/xenon/lib/32/libc.a(lib_a-strcpy.o)
 .bss           0x0000000000000000        0x0 /usr/local/xenon/xenon/lib/32/libc.a(lib_a-strcpy.o)
 .got2          0x0000000000000000        0x0 /usr/local/xenon/xenon/lib/32/libc.a(lib_a-strcpy.o)
 .data          0x0000000000000000        0x0 /usr/local/xenon/xenon/lib/32/libc.a(lib_a-strlcpy.o)
 .bss           0x0000000000000000        0x0 /usr/local/xenon/xenon/lib/32/libc.a(lib_a-strlcpy.o)
 .got2          0x0000000000000000        0x0 /usr/local/xenon/xenon/lib/32/libc.a(lib_a-strlcpy.o)
 .data          0x0000000000000000        0x0 /usr/local/xenon/xenon/lib/32/libc.a(lib_a-strlen.o)
 .bss           0x0000000000000000        0x0 /usr/local/xenon/xenon/lib/32/libc.a(lib_a-strlen.o)
 .got2          0x0000000000000000        0x0 /usr/local/xenon/xenon/lib/32/libc.a(lib_a-strlen.o)
 .data          0x0000000000000000        0x0 /usr/local/xenon/xenon/lib/32/libc.a(lib_a-strncasecmp.o)
 .bss           0x0000000000000000        0x0 /usr/local/xenon/xenon/lib/32/libc.a(lib_a-strncasecmp.o)
 .data          0x0000000000000000        0x0 /usr/local/xenon/xenon/lib/32/libc.a(lib_a-strncmp.o)
 .bss           0x0000000000000000        0x0 /usr/local/xenon/xenon/lib/32/libc.a(lib_a-strncmp.o)
 .got2          0x0000000000000000        0x0 /usr/local/xenon/xenon/lib/32/libc.a(lib_a-strncmp.o)
 .data          0x0000000000000000        0x0 /usr/local/xenon/xenon/lib/32/libc.a(lib_a-strncpy.o)
 .bss           0x0000000000000000        0x0 /usr/local/xenon/xenon/lib/32/libc.a(lib_a-strncpy.o)
 .got2          0x0000000000000000        0x0 /usr/local/xenon/xenon/lib/32/libc.a(lib_a-strncpy.o)
 .data          0x0000000000000000        0x0 /usr/local/xenon/xenon/lib/32/libc.a(lib_a-strrchr.o)
 .bss           0x0000000000000000        0x0 /usr/local/xenon/xenon/lib/32/libc.a(lib_a-strrchr.o)
 .got2          0x0000000000000000        0x0 /usr/local/xenon/xenon/lib/32/libc.a(lib_a-strrchr.o)
 .data          0x0000000000000000        0x0 /usr/local/xenon/xenon/lib/32/libc.a(lib_a-strtok_r.o)
 .bss           0x0000000000000000        0x0 /usr/local/xenon/xenon/lib/32/libc.a(lib_a-strtok_r.o)
 .got2          0x0000000000000000        0x0 /usr/local/xenon/xenon/lib/32/libc.a(lib_a-strtok_r.o)
 .data          0x0000000000000000        0x0 /usr/local/xenon/xenon/lib/32/libc.a(lib_a-strtol.o)
 .bss           0x0000000000000000        0x0 /usr/local/xenon/xenon/lib/32/libc.a(lib_a-strtol.o)
 .data          0x0000000000000000        0x0 /usr/local/xenon/xenon/lib/32/libc.a(lib_a-svfprintf.o)
 .bss           0x0000000000000000        0x0 /usr/local/xenon/xenon/lib/32/libc.a(lib_a-svfprintf.o)
 .data          0x0000000000000000        0x0 /usr/local/xenon/xenon/lib/32/libc.a(lib_a-vfiprintf.o)
 .bss           0x0000000000000000        0x0 /usr/local/xenon/xenon/lib/32/libc.a(lib_a-vfiprintf.o)
 .data          0x0000000000000000        0x0 /usr/local/xenon/xenon/lib/32/libc.a(lib_a-vfprintf.o)
 .bss           0x0000000000000000        0x0 /usr/local/xenon/xenon/lib/32/libc.a(lib_a-vfprintf.o)
 .data          0x0000000000000000        0x0 /usr/local/xenon/xenon/lib/32/libc.a(lib_a-wbuf.o)
 .bss           0x0000000000000000        0x0 /usr/local/xenon/xenon/lib/32/libc.a(lib_a-wbuf.o)
 .data          0x0000000000000000        0x0 /usr/local/xenon/xenon/lib/32/libc.a(lib_a-writer.o)
 .bss           0x0000000000000000        0x0 /usr/local/xenon/xenon/lib/32/libc.a(lib_a-writer.o)
 .data          0x0000000000000000        0x0 /usr/local/xenon/xenon/lib/32/libc.a(lib_a-wsetup.o)
 .bss           0x0000000000000000        0x0 /usr/local/xenon/xenon/lib/32/libc.a(lib_a-wsetup.o)
 .data          0x0000000000000000        0x0 /usr/local/xenon/xenon/lib/32/libc.a(lib_a-abort.o)
 .bss           0x0000000000000000        0x0 /usr/local/xenon/xenon/lib/32/libc.a(lib_a-abort.o)
 .got2          0x0000000000000000        0x0 /usr/local/xenon/xenon/lib/32/libc.a(lib_a-abort.o)
 .data          0x0000000000000000        0x0 /usr/local/xenon/xenon/lib/32/libc.a(lib_a-__call_atexit.o)
 .bss           0x0000000000000000        0x0 /usr/local/xenon/xenon/lib/32/libc.a(lib_a-__call_atexit.o)
 .data          0x0000000000000000        0x0 /usr/local/xenon/xenon/lib/32/libc.a(lib_a-closer.o)
 .bss           0x0000000000000000        0x0 /usr/local/xenon/xenon/lib/32/libc.a(lib_a-closer.o)
 .data          0x0000000000000000        0x0 /usr/local/xenon/xenon/lib/32/libc.a(lib_a-dtoa.o)
 .bss           0x0000000000000000        0x0 /usr/local/xenon/xenon/lib/32/libc.a(lib_a-dtoa.o)
 .data          0x0000000000000000        0x0 /usr/local/xenon/xenon/lib/32/libc.a(lib_a-fflush.o)
 .bss           0x0000000000000000        0x0 /usr/local/xenon/xenon/lib/32/libc.a(lib_a-fflush.o)
 .data          0x0000000000000000        0x0 /usr/local/xenon/xenon/lib/32/libc.a(lib_a-findfp.o)
 .bss           0x0000000000000000        0x0 /usr/local/xenon/xenon/lib/32/libc.a(lib_a-findfp.o)
 .data          0x0000000000000000        0x0 /usr/local/xenon/xenon/lib/32/libc.a(lib_a-flags.o)
 .bss           0x0000000000000000        0x0 /usr/local/xenon/xenon/lib/32/libc.a(lib_a-flags.o)
 .got2          0x0000000000000000        0x0 /usr/local/xenon/xenon/lib/32/libc.a(lib_a-flags.o)
 .data          0x0000000000000000        0x0 /usr/local/xenon/xenon/lib/32/libc.a(lib_a-freer.o)
 .bss           0x0000000000000000        0x0 /usr/local/xenon/xenon/lib/32/libc.a(lib_a-freer.o)
 .data          0x0000000000000000        0x0 /usr/local/xenon/xenon/lib/32/libc.a(lib_a-fvwrite.o)
 .bss           0x0000000000000000        0x0 /usr/local/xenon/xenon/lib/32/libc.a(lib_a-fvwrite.o)
 .got2          0x0000000000000000        0x0 /usr/local/xenon/xenon/lib/32/libc.a(lib_a-fvwrite.o)
 .data          0x0000000000000000        0x0 /usr/local/xenon/xenon/lib/32/libc.a(lib_a-fwalk.o)
 .bss           0x0000000000000000        0x0 /usr/local/xenon/xenon/lib/32/libc.a(lib_a-fwalk.o)
 .got2          0x0000000000000000        0x0 /usr/local/xenon/xenon/lib/32/libc.a(lib_a-fwalk.o)
 .data          0x0000000000000000        0x0 /usr/local/xenon/xenon/lib/32/libc.a(lib_a-isattyr.o)
 .bss           0x0000000000000000        0x0 /usr/local/xenon/xenon/lib/32/libc.a(lib_a-isattyr.o)
 .data          0x0000000000000000        0xc /usr/local/xenon/xenon/lib/32/libc.a(lib_a-locale.o)
 .bss           0x0000000000000000        0x0 /usr/local/xenon/xenon/lib/32/libc.a(lib_a-locale.o)
 .sbss          0x0000000000000000        0xc /usr/local/xenon/xenon/lib/32/libc.a(lib_a-locale.o)
 .sdata         0x0000000000000000        0x4 /usr/local/xenon/xenon/lib/32/libc.a(lib_a-locale.o)
 .data          0x0000000000000000        0x0 /usr/local/xenon/xenon/lib/32/libc.a(lib_a-lseekr.o)
 .bss           0x0000000000000000        0x0 /usr/local/xenon/xenon/lib/32/libc.a(lib_a-lseekr.o)
 .data          0x0000000000000000        0x0 /usr/local/xenon/xenon/lib/32/libc.a(lib_a-memmove.o)
 .bss           0x0000000000000000        0x0 /usr/local/xenon/xenon/lib/32/libc.a(lib_a-memmove.o)
 .got2          0x0000000000000000        0x0 /usr/local/xenon/xenon/lib/32/libc.a(lib_a-memmove.o)
 .data          0x0000000000000000        0x0 /usr/local/xenon/xenon/lib/32/libc.a(lib_a-mprec.o)
 .bss           0x0000000000000000        0x0 /usr/local/xenon/xenon/lib/32/libc.a(lib_a-mprec.o)
 .data          0x0000000000000000        0x0 /usr/local/xenon/xenon/lib/32/libc.a(lib_a-readr.o)
 .bss           0x0000000000000000        0x0 /usr/local/xenon/xenon/lib/32/libc.a(lib_a-readr.o)
 .data          0x0000000000000000        0x0 /usr/local/xenon/xenon/lib/32/libc.a(lib_a-reallocr.o)
 .bss           0x0000000000000000        0x0 /usr/local/xenon/xenon/lib/32/libc.a(lib_a-reallocr.o)
 .data          0x0000000000000000        0x0 /usr/local/xenon/xenon/lib/32/libc.a(lib_a-signal.o)
 .bss           0x0000000000000000        0x0 /usr/local/xenon/xenon/lib/32/libc.a(lib_a-signal.o)
 .data          0x0000000000000000        0x0 /usr/local/xenon/xenon/lib/32/libc.a(lib_a-signalr.o)
 .bss           0x0000000000000000        0x0 /usr/local/xenon/xenon/lib/32/libc.a(lib_a-signalr.o)
 .data          0x0000000000000000        0x0 /usr/local/xenon/xenon/lib/32/libc.a(lib_a-s_isinfd.o)
 .bss           0x0000000000000000        0x0 /usr/local/xenon/xenon/lib/32/libc.a(lib_a-s_isinfd.o)
 .got2          0x0000000000000000        0x0 /usr/local/xenon/xenon/lib/32/libc.a(lib_a-s_isinfd.o)
 .data          0x0000000000000000        0x0 /usr/local/xenon/xenon/lib/32/libc.a(lib_a-s_isnand.o)
 .bss           0x0000000000000000        0x0 /usr/local/xenon/xenon/lib/32/libc.a(lib_a-s_isnand.o)
 .got2          0x0000000000000000        0x0 /usr/local/xenon/xenon/lib/32/libc.a(lib_a-s_isnand.o)
 .data          0x0000000000000000        0x0 /usr/local/xenon/xenon/lib/32/libc.a(lib_a-callocr.o)
 .bss           0x0000000000000000        0x0 /usr/local/xenon/xenon/lib/32/libc.a(lib_a-callocr.o)
 .got2          0x0000000000000000        0x0 /usr/local/xenon/xenon/lib/32/libc.a(lib_a-callocr.o)
 .data          0x0000000000000000        0x0 /usr/local/xenon/xenon/lib/32/libc.a(lib_a-fclose.o)
 .bss           0x0000000000000000        0x0 /usr/local/xenon/xenon/lib/32/libc.a(lib_a-fclose.o)
 .text          0x0000000000000000       0x8c /usr/local/xenon/lib/gcc/xenon/4.4.0/32/crtend.o
 .data          0x0000000000000000        0x0 /usr/local/xenon/lib/gcc/xenon/4.4.0/32/crtend.o
 .bss           0x0000000000000000        0x0 /usr/local/xenon/lib/gcc/xenon/4.4.0/32/crtend.o
 .got2          0x0000000000000000        0x4 /usr/local/xenon/lib/gcc/xenon/4.4.0/32/crtend.o
 .ctors         0x0000000000000000        0x4 /usr/local/xenon/lib/gcc/xenon/4.4.0/32/crtend.o
 .dtors         0x0000000000000000        0x4 /usr/local/xenon/lib/gcc/xenon/4.4.0/32/crtend.o
 .jcr           0x0000000000000000        0x4 /usr/local/xenon/lib/gcc/xenon/4.4.0/32/crtend.o
 .init          0x0000000000000000        0x4 /usr/local/xenon/lib/gcc/xenon/4.4.0/32/crtend.o
 .text          0x0000000000000000        0x0 /usr/local/xenon/lib/gcc/xenon/4.4.0/../../../../xenon/lib/../lib/crtn.o
 .data          0x0000000000000000        0x0 /usr/local/xenon/lib/gcc/xenon/4.4.0/../../../../xenon/lib/../lib/crtn.o
 .bss           0x0000000000000000        0x0 /usr/local/xenon/lib/gcc/xenon/4.4.0/../../../../xenon/lib/../lib/crtn.o
 .init          0x0000000000000000       0x10 /usr/local/xenon/lib/gcc/xenon/4.4.0/../../../../xenon/lib/../lib/crtn.o
 .fini          0x0000000000000000       0x10 /usr/local/xenon/lib/gcc/xenon/4.4.0/../../../../xenon/lib/../lib/crtn.o

Memory Configuration

Name             Origin             Length             Attributes
*default*        0x0000000000000000 0xffffffffffffffff

Linker script and memory map

LOAD /usr/local/xenon/lib/gcc/xenon/4.4.0/../../../../xenon/lib/../lib/crt1.o
LOAD /usr/local/xenon/lib/gcc/xenon/4.4.0/../../../../xenon/lib/../lib/crti.o
LOAD /usr/local/xenon/lib/gcc/xenon/4.4.0/32/crtbegin.o
LOAD main.o
LOAD /usr/local/xenon/usr/lib/libxenon.a
LOAD /usr/local/xenon/xenon/lib/32/libm.a
LOAD /usr/local/xenon/lib/gcc/xenon/4.4.0/32/libgcc.a
LOAD /usr/local/xenon/xenon/lib/32/libc.a
LOAD /usr/local/xenon/lib/gcc/xenon/4.4.0/32/libgcc.a
LOAD /usr/local/xenon/lib/gcc/xenon/4.4.0/32/crtend.o
LOAD /usr/local/xenon/lib/gcc/xenon/4.4.0/../../../../xenon/lib/../lib/crtn.o
                0x0000000080000000                . = 0x80000000

.text           0x0000000080000000    0x20f80
 *(.except*)
 .except        0x0000000080000000     0x1dd0 /usr/local/xenon/usr/lib/libxenon.a(except.o)
                0x0000000080000000                secondary_lock
                0x0000000080000000                exc_base
                0x0000000080000004                secondary_alive
 *(.pagetable)
 .pagetable     0x0000000080001dd0       0x40 /usr/local/xenon/usr/lib/libxenon.a(vm.o)
                0x0000000080001dd0                pagetable
 *(.text*)
 .text.call_ctors
                0x0000000080001e10       0x58 /usr/local/xenon/lib/gcc/xenon/4.4.0/../../../../xenon/lib/../lib/crt1.o
                0x0000000080001e10                call_ctors
 .text.debug    0x0000000080001e68       0x50 main.o
                0x0000000080001e68                debug
 .text.mainInit
                0x0000000080001eb8       0x30 main.o
                0x0000000080001eb8                mainInit
 .text.main     0x0000000080001ee8       0x3c main.o
                0x0000000080001ee8                main
 *fill*         0x0000000080001f24       0xdc 00
 .text          0x0000000080002000      0x2f0 /usr/local/xenon/usr/lib/libxenon.a(startup_from_xell.o)
                0x0000000080002000                _start
                0x00000000800021d4                wait
                0x0000000080002248                return_to_xell
 .text.console_clrscr
                0x00000000800022f0       0x80 /usr/local/xenon/usr/lib/libxenon.a(console.o)
                0x00000000800022f0                console_clrscr
 .text.console_init
                0x0000000080002370      0x154 /usr/local/xenon/usr/lib/libxenon.a(console.o)
                0x0000000080002370                console_init
 .text.console_newline
                0x00000000800024c4      0x118 /usr/local/xenon/usr/lib/libxenon.a(console.o)
                0x00000000800024c4                console_newline
 .text.console_putch
                0x00000000800025dc      0x18c /usr/local/xenon/usr/lib/libxenon.a(console.o)
                0x00000000800025dc                console_putch
 .text.console_stdout_hook
                0x0000000080002768       0x50 /usr/local/xenon/usr/lib/libxenon.a(console.o)
 .text.vfs_console_isatty
                0x00000000800027b8        0x8 /usr/local/xenon/usr/lib/libxenon.a(newlib.o)
                0x00000000800027b8                vfs_console_isatty
 .text.sbrk     0x00000000800027c0       0x34 /usr/local/xenon/usr/lib/libxenon.a(newlib.o)
                0x00000000800027c0                sbrk
 .text.getpid   0x00000000800027f4        0x8 /usr/local/xenon/usr/lib/libxenon.a(newlib.o)
                0x00000000800027f4                getpid
 .text.kill     0x00000000800027fc        0x8 /usr/local/xenon/usr/lib/libxenon.a(newlib.o)
                0x00000000800027fc                kill
 .text._exit    0x0000000080002804       0x24 /usr/local/xenon/usr/lib/libxenon.a(newlib.o)
                0x0000000080002804                _exit
 .text.read     0x0000000080002828       0x88 /usr/local/xenon/usr/lib/libxenon.a(newlib.o)
                0x0000000080002828                read
 .text.lseek    0x00000000800028b0       0x88 /usr/local/xenon/usr/lib/libxenon.a(newlib.o)
                0x00000000800028b0                lseek
 .text.isatty   0x0000000080002938       0x7c /usr/local/xenon/usr/lib/libxenon.a(newlib.o)
                0x0000000080002938                isatty
 .text.fstat    0x00000000800029b4       0x8c /usr/local/xenon/usr/lib/libxenon.a(newlib.o)
                0x00000000800029b4                fstat
 .text.write    0x0000000080002a40       0x94 /usr/local/xenon/usr/lib/libxenon.a(newlib.o)
                0x0000000080002a40                write
 .text.close    0x0000000080002ad4       0x94 /usr/local/xenon/usr/lib/libxenon.a(newlib.o)
                0x0000000080002ad4                close
 .text.open     0x0000000080002b68      0x150 /usr/local/xenon/usr/lib/libxenon.a(newlib.o)
                0x0000000080002b68                open
 .text.mount    0x0000000080002cb8       0xdc /usr/local/xenon/usr/lib/libxenon.a(newlib.o)
                0x0000000080002cb8                mount
 .text.vfs_console_open
                0x0000000080002d94       0x54 /usr/local/xenon/usr/lib/libxenon.a(newlib.o)
                0x0000000080002d94                vfs_console_open
 .text.vfs_console_write
                0x0000000080002de8       0x7c /usr/local/xenon/usr/lib/libxenon.a(newlib.o)
                0x0000000080002de8                vfs_console_write
 .text          0x0000000080002e64       0x84 /usr/local/xenon/usr/lib/libxenon.a(atomic.o)
                0x0000000080002e64                atomic_inc
                0x0000000080002e78                atomic_dec
                0x0000000080002e8c                atomic_clearset
                0x0000000080002ea4                lock
                0x0000000080002ed8                unlock
 .text          0x0000000080002ee8       0xa8 /usr/local/xenon/usr/lib/libxenon.a(cache.o)
                0x0000000080002ee8                memdcbt
                0x0000000080002f10                memdcbst
                0x0000000080002f38                memdcbf
                0x0000000080002f60                memicbi
 .text.usb_do_poll
                0x0000000080002f90       0xb4 /usr/local/xenon/usr/lib/libxenon.a(usbmain.o)
                0x0000000080002f90                usb_do_poll
 .text.usb_init_one_ohci
                0x0000000080003044       0xe4 /usr/local/xenon/usr/lib/libxenon.a(usbmain.o)
 .text.usb_init
                0x0000000080003128       0xfc /usr/local/xenon/usr/lib/libxenon.a(usbmain.o)
                0x0000000080003128                usb_init
 .text.ehci_adquire_port
                0x0000000080003224       0x98 /usr/local/xenon/usr/lib/libxenon.a(tinyehci.o)
                0x0000000080003224                ehci_adquire_port
 .text.bswap_32
                0x00000000800032bc       0x14 /usr/local/xenon/usr/lib/libxenon.a(tinyehci.o)
 .text.USB_FreeDescriptors
                0x00000000800032d0       0xd0 /usr/local/xenon/usr/lib/libxenon.a(tinyehci.o)
                0x00000000800032d0                USB_FreeDescriptors
 .text.USBStorage_Close
                0x00000000800033a0       0x4c /usr/local/xenon/usr/lib/libxenon.a(tinyehci.o)
                0x00000000800033a0                USBStorage_Close
 .text.handshake
                0x00000000800033ec      0x1d8 /usr/local/xenon/usr/lib/libxenon.a(tinyehci.o)
 .text.ehci_reset_usb_port
                0x00000000800035c4      0x16c /usr/local/xenon/usr/lib/libxenon.a(tinyehci.o)
                0x00000000800035c4                ehci_reset_usb_port
 .text.qtd_fill
                0x0000000080003730      0x120 /usr/local/xenon/usr/lib/libxenon.a(tinyehci.o)
 .text.ehci_qtd_alloc
                0x0000000080003850       0x94 /usr/local/xenon/usr/lib/libxenon.a(tinyehci.o)
 .text.qh_urb_transaction
                0x00000000800038e4      0x230 /usr/local/xenon/usr/lib/libxenon.a(tinyehci.o)
                0x00000000800038e4                qh_urb_transaction
 .text.ehci_do_urb
                0x0000000080003b14      0x45c /usr/local/xenon/usr/lib/libxenon.a(tinyehci.o)
                0x0000000080003b14                ehci_do_urb
 .text.ehci_bulk_message
                0x0000000080003f70       0x4c /usr/local/xenon/usr/lib/libxenon.a(tinyehci.o)
                0x0000000080003f70                ehci_bulk_message
 .text.__send_cbw
                0x0000000080003fbc      0x164 /usr/local/xenon/usr/lib/libxenon.a(tinyehci.o)
 .text.ehci_control_message
                0x0000000080004120       0x98 /usr/local/xenon/usr/lib/libxenon.a(tinyehci.o)
                0x0000000080004120                ehci_control_message
 .text.USB_ClearHalt
                0x00000000800041b8       0x1c /usr/local/xenon/usr/lib/libxenon.a(tinyehci.o)
                0x00000000800041b8                USB_ClearHalt
 .text.USB_SetAlternativeInterface
                0x00000000800041d4       0x28 /usr/local/xenon/usr/lib/libxenon.a(tinyehci.o)
                0x00000000800041d4                USB_SetAlternativeInterface
 .text.USB_SetConfiguration
                0x00000000800041fc       0x1c /usr/local/xenon/usr/lib/libxenon.a(tinyehci.o)
                0x00000000800041fc                USB_SetConfiguration
 .text.USB_GetConfiguration
                0x0000000080004218       0x9c /usr/local/xenon/usr/lib/libxenon.a(tinyehci.o)
                0x0000000080004218                USB_GetConfiguration
 .text.USB_GetDescriptors
                0x00000000800042b4      0x3d8 /usr/local/xenon/usr/lib/libxenon.a(tinyehci.o)
                0x00000000800042b4                USB_GetDescriptors
 .text.ehci_init_port
                0x000000008000468c      0x200 /usr/local/xenon/usr/lib/libxenon.a(tinyehci.o)
                0x000000008000468c                ehci_init_port
 .text.ehci_reset_port
                0x000000008000488c       0x60 /usr/local/xenon/usr/lib/libxenon.a(tinyehci.o)
                0x000000008000488c                ehci_reset_port
 .text.ehci_discover
                0x00000000800048ec       0x6c /usr/local/xenon/usr/lib/libxenon.a(tinyehci.o)
                0x00000000800048ec                ehci_discover
 .text.ehci_reset_port_old
                0x0000000080004958      0x1e8 /usr/local/xenon/usr/lib/libxenon.a(tinyehci.o)
                0x0000000080004958                ehci_reset_port_old
 .text.ehci_reset_port2
                0x0000000080004b40       0x84 /usr/local/xenon/usr/lib/libxenon.a(tinyehci.o)
                0x0000000080004b40                ehci_reset_port2
 .text.ehci_mem_init
                0x0000000080004bc4      0x110 /usr/local/xenon/usr/lib/libxenon.a(tinyehci.o)
                0x0000000080004bc4                ehci_mem_init
 .text.T.185    0x0000000080004cd4      0x34c /usr/local/xenon/usr/lib/libxenon.a(tinyehci.o)
 .text.USBStorage_Inquiry
                0x0000000080005020       0xb8 /usr/local/xenon/usr/lib/libxenon.a(tinyehci.o)
                0x0000000080005020                USBStorage_Inquiry
 .text.USBStorage_ReadCapacity
                0x00000000800050d8       0xe8 /usr/local/xenon/usr/lib/libxenon.a(tinyehci.o)
                0x00000000800050d8                USBStorage_ReadCapacity
 .text.USBStorage_MountLUN
                0x00000000800051c0      0x234 /usr/local/xenon/usr/lib/libxenon.a(tinyehci.o)
                0x00000000800051c0                USBStorage_MountLUN
 .text.__usbstorage_reset
                0x00000000800053f4      0x1f0 /usr/local/xenon/usr/lib/libxenon.a(tinyehci.o)
 .text.USBStorage_Reset
                0x00000000800055e4        0x8 /usr/local/xenon/usr/lib/libxenon.a(tinyehci.o)
                0x00000000800055e4                USBStorage_Reset
 .text.USBStorage_Open
                0x00000000800055ec      0x45c /usr/local/xenon/usr/lib/libxenon.a(tinyehci.o)
                0x00000000800055ec                USBStorage_Open
 .text.USBStorage_Try_Device
                0x0000000080005a48      0x1ec /usr/local/xenon/usr/lib/libxenon.a(tinyehci.o)
                0x0000000080005a48                USBStorage_Try_Device
 .text.unplug_procedure
                0x0000000080005c34       0xf4 /usr/local/xenon/usr/lib/libxenon.a(tinyehci.o)
                0x0000000080005c34                unplug_procedure
 .text.USBStorage_Init
                0x0000000080005d28      0x1ac /usr/local/xenon/usr/lib/libxenon.a(tinyehci.o)
                0x0000000080005d28                USBStorage_Init
 .text.USBStorage_Read
                0x0000000080005ed4      0x1d8 /usr/local/xenon/usr/lib/libxenon.a(tinyehci.o)
                0x0000000080005ed4                USBStorage_Read
 .text.USBStorage_Read_Sectors
                0x00000000800060ac      0x178 /usr/local/xenon/usr/lib/libxenon.a(tinyehci.o)
                0x00000000800060ac                USBStorage_Read_Sectors
 .text.usb2mass_read
                0x0000000080006224       0x4c /usr/local/xenon/usr/lib/libxenon.a(tinyehci.o)
                0x0000000080006224                usb2mass_read
 .text.USBStorage_Write
                0x0000000080006270      0x1d8 /usr/local/xenon/usr/lib/libxenon.a(tinyehci.o)
                0x0000000080006270                USBStorage_Write
 .text.USBStorage_Write_Sectors
                0x0000000080006448      0x178 /usr/local/xenon/usr/lib/libxenon.a(tinyehci.o)
                0x0000000080006448                USBStorage_Write_Sectors
 .text.usb2mass_write
                0x00000000800065c0       0x4c /usr/local/xenon/usr/lib/libxenon.a(tinyehci.o)
                0x00000000800065c0                usb2mass_write
 .text.EHCI_do_one
                0x000000008000660c      0x16c /usr/local/xenon/usr/lib/libxenon.a(tinyehci.o)
 .text.EHCI_Init
                0x0000000080006778       0x50 /usr/local/xenon/usr/lib/libxenon.a(tinyehci.o)
                0x0000000080006778                EHCI_Init
 .text.putch    0x00000000800067c8       0x60 /usr/local/xenon/usr/lib/libxenon.a(xenon_uart.o)
                0x00000000800067c8                putch
 .text.xenos_is_overscan
                0x0000000080006828       0x50 /usr/local/xenon/usr/lib/libxenon.a(xenos.o)
                0x0000000080006828                xenos_is_overscan
 .text.xenos_read32
                0x0000000080006878       0x24 /usr/local/xenon/usr/lib/libxenon.a(xenos.o)
                0x0000000080006878                xenos_read32
 .text.xenos_write32
                0x000000008000689c       0x24 /usr/local/xenon/usr/lib/libxenon.a(xenos.o)
                0x000000008000689c                xenos_write32
 .text.xenos_set_mode_f2
                0x00000000800068c0      0x314 /usr/local/xenon/usr/lib/libxenon.a(xenos.o)
                0x00000000800068c0                xenos_set_mode_f2
 .text.xenos_set_mode_f1
                0x0000000080006bd4      0x148 /usr/local/xenon/usr/lib/libxenon.a(xenos.o)
                0x0000000080006bd4                xenos_set_mode_f1
 .text.xenos_ana_preinit
                0x0000000080006d1c       0xe0 /usr/local/xenon/usr/lib/libxenon.a(xenos.o)
                0x0000000080006d1c                xenos_ana_preinit
 .text.xenos_init_phase1
                0x0000000080006dfc      0x3c0 /usr/local/xenon/usr/lib/libxenon.a(xenos.o)
                0x0000000080006dfc                xenos_init_phase1
 .text.xenos_init_phase0
                0x00000000800071bc       0xc0 /usr/local/xenon/usr/lib/libxenon.a(xenos.o)
                0x00000000800071bc                xenos_init_phase0
 .text.xenos_ana_write
                0x000000008000727c       0x70 /usr/local/xenon/usr/lib/libxenon.a(xenos.o)
 .text.xenos_init_ana_new
                0x00000000800072ec      0x3a4 /usr/local/xenon/usr/lib/libxenon.a(xenos.o)
                0x00000000800072ec                xenos_init_ana_new
 .text.xenos_set_mode
                0x0000000080007690      0x35c /usr/local/xenon/usr/lib/libxenon.a(xenos.o)
                0x0000000080007690                xenos_set_mode
 .text.xenos_autoset_mode
                0x00000000800079ec       0xf0 /usr/local/xenon/usr/lib/libxenon.a(xenos.o)
                0x00000000800079ec                xenos_autoset_mode
 .text.xenos_init
                0x0000000080007adc       0xac /usr/local/xenon/usr/lib/libxenon.a(xenos.o)
                0x0000000080007adc                xenos_init
 .text.determine_filesystem
                0x0000000080007b88       0x80 /usr/local/xenon/usr/lib/libxenon.a(diskio.o)
                0x0000000080007b88                determine_filesystem
 .text.register_bdev
                0x0000000080007c08       0xf0 /usr/local/xenon/usr/lib/libxenon.a(diskio.o)
                0x0000000080007c08                register_bdev
 .text._fat_umount
                0x0000000080007cf8       0x28 /usr/local/xenon/usr/lib/libxenon.a(fat.o)
                0x0000000080007cf8                _fat_umount
 .text._fat_mount
                0x0000000080007d20       0x48 /usr/local/xenon/usr/lib/libxenon.a(fat.o)
                0x0000000080007d20                _fat_mount
 .text._fat_opendir
                0x0000000080007d68       0x6c /usr/local/xenon/usr/lib/libxenon.a(fat.o)
                0x0000000080007d68                _fat_opendir
 .text._fat_open
                0x0000000080007dd4       0x4c /usr/local/xenon/usr/lib/libxenon.a(fat.o)
                0x0000000080007dd4                _fat_open
 .text._fat_readdir
                0x0000000080007e20       0xa4 /usr/local/xenon/usr/lib/libxenon.a(fat.o)
                0x0000000080007e20                _fat_readdir
 .text._fat_closedir
                0x0000000080007ec4       0x3c /usr/local/xenon/usr/lib/libxenon.a(fat.o)
                0x0000000080007ec4                _fat_closedir
 .text._fat_close
                0x0000000080007f00       0x24 /usr/local/xenon/usr/lib/libxenon.a(fat.o)
                0x0000000080007f00                _fat_close
 .text._fat_fstat
                0x0000000080007f24       0x4c /usr/local/xenon/usr/lib/libxenon.a(fat.o)
                0x0000000080007f24                _fat_fstat
 .text._fat_write
                0x0000000080007f70       0x24 /usr/local/xenon/usr/lib/libxenon.a(fat.o)
                0x0000000080007f70                _fat_write
 .text._fat_read
                0x0000000080007f94       0x24 /usr/local/xenon/usr/lib/libxenon.a(fat.o)
                0x0000000080007f94                _fat_read
 .text._fat_lseek
                0x0000000080007fb8       0x24 /usr/local/xenon/usr/lib/libxenon.a(fat.o)
                0x0000000080007fb8                _fat_lseek
 .text.fat_init
                0x0000000080007fdc       0x7c /usr/local/xenon/usr/lib/libxenon.a(fat_rb.o)
                0x0000000080007fdc                fat_init
 .text.fat_time
                0x0000000080008058      0x128 /usr/local/xenon/usr/lib/libxenon.a(fat_rb.o)
 .text.fat_open
                0x0000000080008180       0x74 /usr/local/xenon/usr/lib/libxenon.a(fat_rb.o)
                0x0000000080008180                fat_open
 .text.fat_opendir
                0x00000000800081f4       0xa8 /usr/local/xenon/usr/lib/libxenon.a(fat_rb.o)
                0x00000000800081f4                fat_opendir
 .text.cluster2sec
                0x000000008000829c       0x60 /usr/local/xenon/usr/lib/libxenon.a(fat_rb.o)
 .text.update_fsinfo
                0x00000000800082fc      0x128 /usr/local/xenon/usr/lib/libxenon.a(fat_rb.o)
 .text.flush_fat_sector
                0x0000000080008424      0x108 /usr/local/xenon/usr/lib/libxenon.a(fat_rb.o)
 .text.cache_fat_sector
                0x000000008000852c      0x160 /usr/local/xenon/usr/lib/libxenon.a(fat_rb.o)
 .text.get_next_cluster
                0x000000008000868c      0x11c /usr/local/xenon/usr/lib/libxenon.a(fat_rb.o)
 .text.fat_seek
                0x00000000800087a8      0x14c /usr/local/xenon/usr/lib/libxenon.a(fat_rb.o)
                0x00000000800087a8                fat_seek
 .text.find_free_cluster
                0x00000000800088f4      0x1bc /usr/local/xenon/usr/lib/libxenon.a(fat_rb.o)
 .text.fat_recalc_free
                0x0000000080008ab0      0x174 /usr/local/xenon/usr/lib/libxenon.a(fat_rb.o)
                0x0000000080008ab0                fat_recalc_free
 .text.flush_fat
                0x0000000080008c24       0xc8 /usr/local/xenon/usr/lib/libxenon.a(fat_rb.o)
 .text.fat_unmount
                0x0000000080008cec       0xac /usr/local/xenon/usr/lib/libxenon.a(fat_rb.o)
                0x0000000080008cec                fat_unmount
 .text.update_fat_entry
                0x0000000080008d98      0x268 /usr/local/xenon/usr/lib/libxenon.a(fat_rb.o)
 .text.fat_truncate
                0x0000000080009000       0xa8 /usr/local/xenon/usr/lib/libxenon.a(fat_rb.o)
                0x0000000080009000                fat_truncate
 .text.transfer
                0x00000000800090a8      0x154 /usr/local/xenon/usr/lib/libxenon.a(fat_rb.o)
 .text.fat_readwrite
                0x00000000800091fc      0x390 /usr/local/xenon/usr/lib/libxenon.a(fat_rb.o)
                0x00000000800091fc                fat_readwrite
 .text.fat_getnext
                0x000000008000958c      0x4c4 /usr/local/xenon/usr/lib/libxenon.a(fat_rb.o)
                0x000000008000958c                fat_getnext
 .text.update_short_entry
                0x0000000080009a50      0x244 /usr/local/xenon/usr/lib/libxenon.a(fat_rb.o)
 .text.fat_closewrite
                0x0000000080009c94       0xb8 /usr/local/xenon/usr/lib/libxenon.a(fat_rb.o)
                0x0000000080009c94                fat_closewrite
 .text.fat_mount
                0x0000000080009d4c      0x4f4 /usr/local/xenon/usr/lib/libxenon.a(fat_rb.o)
                0x0000000080009d4c                fat_mount
 .text.char2dos
                0x000000008000a240       0x8c /usr/local/xenon/usr/lib/libxenon.a(fat_rb.o)
 .text.randomize_dos_name
                0x000000008000a2cc      0x178 /usr/local/xenon/usr/lib/libxenon.a(fat_rb.o)
 .text.write_long_name
                0x000000008000a444      0x564 /usr/local/xenon/usr/lib/libxenon.a(fat_rb.o)
 .text.add_dir_entry
                0x000000008000a9a8      0x530 /usr/local/xenon/usr/lib/libxenon.a(fat_rb.o)
 .text.fat_create_file
                0x000000008000aed8       0x60 /usr/local/xenon/usr/lib/libxenon.a(fat_rb.o)
                0x000000008000aed8                fat_create_file
 .text.rb_filesize
                0x000000008000af38       0x6c /usr/local/xenon/usr/lib/libxenon.a(file_rb.o)
                0x000000008000af38                rb_filesize
 .text.flush_cache
                0x000000008000afa4       0xd0 /usr/local/xenon/usr/lib/libxenon.a(file_rb.o)
 .text.rb_lseek
                0x000000008000b074      0x1c4 /usr/local/xenon/usr/lib/libxenon.a(file_rb.o)
                0x000000008000b074                rb_lseek
 .text.readwrite
                0x000000008000b238      0x440 /usr/local/xenon/usr/lib/libxenon.a(file_rb.o)
 .text.rb_read  0x000000008000b678        0x8 /usr/local/xenon/usr/lib/libxenon.a(file_rb.o)
                0x000000008000b678                rb_read
 .text.rb_write
                0x000000008000b680       0x5c /usr/local/xenon/usr/lib/libxenon.a(file_rb.o)
                0x000000008000b680                rb_write
 .text.rb_ftruncate
                0x000000008000b6dc       0xc8 /usr/local/xenon/usr/lib/libxenon.a(file_rb.o)
                0x000000008000b6dc                rb_ftruncate
 .text.open_internal
                0x000000008000b7a4      0x39c /usr/local/xenon/usr/lib/libxenon.a(file_rb.o)
 .text.rb_open  0x000000008000bb40        0x8 /usr/local/xenon/usr/lib/libxenon.a(file_rb.o)
                0x000000008000bb40                rb_open
 .text.rb_fsync
                0x000000008000bb48      0x128 /usr/local/xenon/usr/lib/libxenon.a(file_rb.o)
                0x000000008000bb48                rb_fsync
 .text.rb_close
                0x000000008000bc70       0xa0 /usr/local/xenon/usr/lib/libxenon.a(file_rb.o)
                0x000000008000bc70                rb_close
 .text.rb_closedir
                0x000000008000bd10       0x14 /usr/local/xenon/usr/lib/libxenon.a(dir_rb.o)
                0x000000008000bd10                rb_closedir
 .text.rb_readdir
                0x000000008000bd24       0xb0 /usr/local/xenon/usr/lib/libxenon.a(dir_rb.o)
                0x000000008000bd24                rb_readdir
 .text.rb_opendir
                0x000000008000bdd4      0x1e8 /usr/local/xenon/usr/lib/libxenon.a(dir_rb.o)
                0x000000008000bdd4                rb_opendir
 .text._iso9660_lseek
                0x000000008000bfbc       0xa8 /usr/local/xenon/usr/lib/libxenon.a(iso9660.o)
                0x000000008000bfbc                _iso9660_lseek
 .text._iso9660_fstat
                0x000000008000c064       0x60 /usr/local/xenon/usr/lib/libxenon.a(iso9660.o)
                0x000000008000c064                _iso9660_fstat
 .text._iso9660_close
                0x000000008000c0c4       0x24 /usr/local/xenon/usr/lib/libxenon.a(iso9660.o)
                0x000000008000c0c4                _iso9660_close
 .text._iso9660_closedir
                0x000000008000c0e8       0x28 /usr/local/xenon/usr/lib/libxenon.a(iso9660.o)
                0x000000008000c0e8                _iso9660_closedir
 .text.bclear_cache
                0x000000008000c110       0x60 /usr/local/xenon/usr/lib/libxenon.a(iso9660.o)
 .text.iso_reset
                0x000000008000c170       0x80 /usr/local/xenon/usr/lib/libxenon.a(iso9660.o)
                0x000000008000c170                iso_reset
 .text.fs_iso9660_shutdown
                0x000000008000c1f0       0xa4 /usr/local/xenon/usr/lib/libxenon.a(iso9660.o)
                0x000000008000c1f0                fs_iso9660_shutdown
 .text._iso9660_umount
                0x000000008000c294        0x4 /usr/local/xenon/usr/lib/libxenon.a(iso9660.o)
                0x000000008000c294                _iso9660_umount
 .text.fs_iso9660_init
                0x000000008000c298       0xe0 /usr/local/xenon/usr/lib/libxenon.a(iso9660.o)
                0x000000008000c298                fs_iso9660_init
 .text._iso9660_mount
                0x000000008000c378        0xc /usr/local/xenon/usr/lib/libxenon.a(iso9660.o)
                0x000000008000c378                _iso9660_mount
 .text.init_percd
                0x000000008000c384      0x264 /usr/local/xenon/usr/lib/libxenon.a(iso9660.o)
 .text.bread_cache
                0x000000008000c5e8      0x1ac /usr/local/xenon/usr/lib/libxenon.a(iso9660.o)
 .text._iso9660_read
                0x000000008000c794      0x1cc /usr/local/xenon/usr/lib/libxenon.a(iso9660.o)
                0x000000008000c794                _iso9660_read
 .text._iso9660_readdir
                0x000000008000c960      0x430 /usr/local/xenon/usr/lib/libxenon.a(iso9660.o)
                0x000000008000c960                _iso9660_readdir
 .text.find_object
                0x000000008000cd90      0x400 /usr/local/xenon/usr/lib/libxenon.a(iso9660.o)
 .text.iso_open
                0x000000008000d190      0x288 /usr/local/xenon/usr/lib/libxenon.a(iso9660.o)
 .text._iso9660_opendir
                0x000000008000d418       0x50 /usr/local/xenon/usr/lib/libxenon.a(iso9660.o)
                0x000000008000d418                _iso9660_opendir
 .text._iso9660_open
                0x000000008000d468       0x50 /usr/local/xenon/usr/lib/libxenon.a(iso9660.o)
                0x000000008000d468                _iso9660_open
 .text.kfree    0x000000008000d4b8       0xb4 /usr/local/xenon/usr/lib/libxenon.a(lib_malloc.o)
                0x000000008000d4b8                kfree
 .text.kmem_init
                0x000000008000d56c       0x8c /usr/local/xenon/usr/lib/libxenon.a(lib_malloc.o)
                0x000000008000d56c                kmem_init
 .text.lib_outofmemory
                0x000000008000d5f8       0x28 /usr/local/xenon/usr/lib/libxenon.a(lib_malloc.o)
                0x000000008000d5f8                lib_outofmemory
 .text.kmalloc  0x000000008000d620      0x14c /usr/local/xenon/usr/lib/libxenon.a(lib_malloc.o)
                0x000000008000d620                kmalloc
 .text.read32n  0x000000008000d76c        0x8 /usr/local/xenon/usr/lib/libxenon.a(io.o)
                0x000000008000d76c                read32n
 .text.write32n
                0x000000008000d774        0x8 /usr/local/xenon/usr/lib/libxenon.a(io.o)
                0x000000008000d774                write32n
 .text.write32  0x000000008000d77c        0x8 /usr/local/xenon/usr/lib/libxenon.a(io.o)
                0x000000008000d77c                write32
 .text.read32   0x000000008000d784        0x8 /usr/local/xenon/usr/lib/libxenon.a(io.o)
                0x000000008000d784                read32
 .text.udelay   0x000000008000d78c       0x4c /usr/local/xenon/usr/lib/libxenon.a(time.o)
                0x000000008000d78c                udelay
 .text.mdelay   0x000000008000d7d8       0x54 /usr/local/xenon/usr/lib/libxenon.a(time.o)
                0x000000008000d7d8                mdelay
 .text.delay    0x000000008000d82c       0x54 /usr/local/xenon/usr/lib/libxenon.a(time.o)
                0x000000008000d82c                delay
 .text._ohci_allocept
                0x000000008000d880       0x64 /usr/local/xenon/usr/lib/libxenon.a(ohci.o)
 .text._ohci_allocxfer
                0x000000008000d8e4       0x5c /usr/local/xenon/usr/lib/libxenon.a(ohci.o)
 .text.ohci_stop
                0x000000008000d940       0x14 /usr/local/xenon/usr/lib/libxenon.a(ohci.o)
 .text.ohci_delete
                0x000000008000d954        0x4 /usr/local/xenon/usr/lib/libxenon.a(ohci.o)
 .text.ohci_ept_cleartoggle
                0x000000008000d958       0x48 /usr/local/xenon/usr/lib/libxenon.a(ohci.o)
 .text.ohci_ept_setaddr
                0x000000008000d9a0       0x38 /usr/local/xenon/usr/lib/libxenon.a(ohci.o)
 .text.ohci_ept_setmps
                0x000000008000d9d8       0x44 /usr/local/xenon/usr/lib/libxenon.a(ohci.o)
 .text._ohci_queueept
                0x000000008000da1c       0x5c /usr/local/xenon/usr/lib/libxenon.a(ohci.o)
 .text.ohci_ept_create
                0x000000008000da78      0x190 /usr/local/xenon/usr/lib/libxenon.a(ohci.o)
 .text.ohci_ept_delete
                0x000000008000dc08      0x20c /usr/local/xenon/usr/lib/libxenon.a(ohci.o)
 .text.ohci_start
                0x000000008000de14      0x1d4 /usr/local/xenon/usr/lib/libxenon.a(ohci.o)
 .text.ohci_roothub_strdscr
                0x000000008000dfe8       0x7c /usr/local/xenon/usr/lib/libxenon.a(ohci.o)
 .text.ohci_xfer
                0x000000008000e064      0x86c /usr/local/xenon/usr/lib/libxenon.a(ohci.o)
 .text.ohci_intr
                0x000000008000e8d0      0x274 /usr/local/xenon/usr/lib/libxenon.a(ohci.o)
 .text._ohci_dma_alloc
                0x000000008000eb44       0x60 /usr/local/xenon/usr/lib/libxenon.a(ohci.o)
 .text.ohci_create
                0x000000008000eba4      0x2e0 /usr/local/xenon/usr/lib/libxenon.a(ohci.o)
 .text.usb_poll
                0x000000008000ee84       0x2c /usr/local/xenon/usr/lib/libxenon.a(usbd.o)
                0x000000008000ee84                usb_poll
 .text.usb_queue_request
                0x000000008000eeb0       0x54 /usr/local/xenon/usr/lib/libxenon.a(usbd.o)
                0x000000008000eeb0                usb_queue_request
 .text.usb_wait_request
                0x000000008000ef04       0x48 /usr/local/xenon/usr/lib/libxenon.a(usbd.o)
                0x000000008000ef04                usb_wait_request
 .text.usb_sync_request
                0x000000008000ef4c       0x30 /usr/local/xenon/usr/lib/libxenon.a(usbd.o)
                0x000000008000ef4c                usb_sync_request
 .text.usb_new_address
                0x000000008000ef7c       0x30 /usr/local/xenon/usr/lib/libxenon.a(usbd.o)
                0x000000008000ef7c                usb_new_address
 .text.usb_set_ep0mps
                0x000000008000efac       0x74 /usr/local/xenon/usr/lib/libxenon.a(usbd.o)
                0x000000008000efac                usb_set_ep0mps
 .text.usb_complete_request
                0x000000008000f020       0x3c /usr/local/xenon/usr/lib/libxenon.a(usbd.o)
                0x000000008000f020                usb_complete_request
 .text.usb_find_cfg_descr
                0x000000008000f05c       0x54 /usr/local/xenon/usr/lib/libxenon.a(usbd.o)
                0x000000008000f05c                usb_find_cfg_descr
 .text.usb_create_pipe
                0x000000008000f0b0      0x110 /usr/local/xenon/usr/lib/libxenon.a(usbd.o)
                0x000000008000f0b0                usb_create_pipe
 .text.usb_open_pipe
                0x000000008000f1c0       0x8c /usr/local/xenon/usr/lib/libxenon.a(usbd.o)
                0x000000008000f1c0                usb_open_pipe
 .text.usb_free_request
                0x000000008000f24c       0x48 /usr/local/xenon/usr/lib/libxenon.a(usbd.o)
                0x000000008000f24c                usb_free_request
 .text.usb_destroy_all_pipes
                0x000000008000f294       0xa0 /usr/local/xenon/usr/lib/libxenon.a(usbd.o)
                0x000000008000f294                usb_destroy_all_pipes
 .text.usb_destroy_device
                0x000000008000f334       0x54 /usr/local/xenon/usr/lib/libxenon.a(usbd.o)
                0x000000008000f334                usb_destroy_device
 .text.usb_make_request
                0x000000008000f388       0xbc /usr/local/xenon/usr/lib/libxenon.a(usbd.o)
                0x000000008000f388                usb_make_request
 .text.usb_clear_stall
                0x000000008000f444      0x124 /usr/local/xenon/usr/lib/libxenon.a(usbd.o)
                0x000000008000f444                usb_clear_stall
 .text.usb_std_request
                0x000000008000f568      0x2c0 /usr/local/xenon/usr/lib/libxenon.a(usbd.o)
                0x000000008000f568                usb_std_request
 .text.usb_get_device_status
                0x000000008000f828       0x1c /usr/local/xenon/usr/lib/libxenon.a(usbd.o)
                0x000000008000f828                usb_get_device_status
 .text.usb_get_string
                0x000000008000f844      0x12c /usr/local/xenon/usr/lib/libxenon.a(usbd.o)
                0x000000008000f844                usb_get_string
 .text.usb_get_descriptor
                0x000000008000f970       0x20 /usr/local/xenon/usr/lib/libxenon.a(usbd.o)
                0x000000008000f970                usb_get_descriptor
 .text.usb_get_config_descriptor
                0x000000008000f990       0xbc /usr/local/xenon/usr/lib/libxenon.a(usbd.o)
                0x000000008000f990                usb_get_config_descriptor
 .text.usb_get_device_descriptor
                0x000000008000fa4c       0xc4 /usr/local/xenon/usr/lib/libxenon.a(usbd.o)
                0x000000008000fa4c                usb_get_device_descriptor
 .text.usb_simple_request
                0x000000008000fb10       0x18 /usr/local/xenon/usr/lib/libxenon.a(usbd.o)
                0x000000008000fb10                usb_simple_request
 .text.usb_set_address
                0x000000008000fb28       0xc4 /usr/local/xenon/usr/lib/libxenon.a(usbd.o)
                0x000000008000fb28                usb_set_address
 .text.usb_set_configuration
                0x000000008000fbec       0x14 /usr/local/xenon/usr/lib/libxenon.a(usbd.o)
                0x000000008000fbec                usb_set_configuration
 .text.usb_create_device
                0x000000008000fc00       0x90 /usr/local/xenon/usr/lib/libxenon.a(usbd.o)
                0x000000008000fc00                usb_create_device
 .text.usb_initroot
                0x000000008000fc90      0x18c /usr/local/xenon/usr/lib/libxenon.a(usbd.o)
                0x000000008000fc90                usb_initroot
 .text.usb_delay_ms
                0x000000008000fe1c       0x28 /usr/local/xenon/usr/lib/libxenon.a(usbd.o)
                0x000000008000fe1c                usb_delay_ms
 .text.usb_daemon
                0x000000008000fe44       0x38 /usr/local/xenon/usr/lib/libxenon.a(usbd.o)
                0x000000008000fe44                usb_daemon
 .text.usb_find_driver
                0x000000008000fe7c      0x124 /usr/local/xenon/usr/lib/libxenon.a(usbdevs.o)
                0x000000008000fe7c                usb_find_driver
 .text.usbhid_detach
                0x000000008000ffa0        0x8 /usr/local/xenon/usr/lib/libxenon.a(usbhid.o)
 .text.usbhid_kbd_scan1
                0x000000008000ffa8       0x9c /usr/local/xenon/usr/lib/libxenon.a(usbhid.o)
 .text.usbhid_attach
                0x0000000080010044      0x190 /usr/local/xenon/usr/lib/libxenon.a(usbhid.o)
 .text.usbhid_ireq_callback
                0x00000000800101d4      0x18c /usr/local/xenon/usr/lib/libxenon.a(usbhid.o)
 .text.usbhub_map_tree1
                0x0000000080010360       0xa4 /usr/local/xenon/usr/lib/libxenon.a(usbhub.o)
 .text.usbhub_map_tree
                0x0000000080010404       0x14 /usr/local/xenon/usr/lib/libxenon.a(usbhub.o)
                0x0000000080010404                usbhub_map_tree
 .text.usbhub_map_from_device
                0x0000000080010418       0x10 /usr/local/xenon/usr/lib/libxenon.a(usbhub.o)
                0x0000000080010418                usbhub_map_from_device
 .text.usbhub_markdetached1
                0x0000000080010428       0x18 /usr/local/xenon/usr/lib/libxenon.a(usbhub.o)
 .text.usb_scan
                0x0000000080010440       0x10 /usr/local/xenon/usr/lib/libxenon.a(usbhub.o)
                0x0000000080010440                usb_scan
 .text.usbhub_detach
                0x0000000080010450      0x188 /usr/local/xenon/usr/lib/libxenon.a(usbhub.o)
 .text.usbhub_get_port_status
                0x00000000800105d8       0x38 /usr/local/xenon/usr/lib/libxenon.a(usbhub.o)
 .text.usbhub_scan1
                0x0000000080010610      0x60c /usr/local/xenon/usr/lib/libxenon.a(usbhub.o)
 .text.usbhub_ireq_callback
                0x0000000080010c1c       0x90 /usr/local/xenon/usr/lib/libxenon.a(usbhub.o)
 .text.usbhub_attach
                0x0000000080010cac      0x1d4 /usr/local/xenon/usr/lib/libxenon.a(usbhub.o)
 .text.ehci_virt_to_dma
                0x0000000080010e80        0x8 /usr/local/xenon/usr/lib/libxenon.a(usb_os.o)
                0x0000000080010e80                ehci_virt_to_dma
 .text.USB_Free
                0x0000000080010e88       0x20 /usr/local/xenon/usr/lib/libxenon.a(usb_os.o)
                0x0000000080010e88                USB_Free
 .text.USB_Alloc
                0x0000000080010ea8       0x20 /usr/local/xenon/usr/lib/libxenon.a(usb_os.o)
                0x0000000080010ea8                USB_Alloc
 .text.ehci_msleep
                0x0000000080010ec8       0x20 /usr/local/xenon/usr/lib/libxenon.a(usb_os.o)
                0x0000000080010ec8                ehci_msleep
 .text.ehci_usleep
                0x0000000080010ee8       0x20 /usr/local/xenon/usr/lib/libxenon.a(usb_os.o)
                0x0000000080010ee8                ehci_usleep
 .text.ehci_dma_unmap_bidir
                0x0000000080010f08       0x24 /usr/local/xenon/usr/lib/libxenon.a(usb_os.o)
                0x0000000080010f08                ehci_dma_unmap_bidir
 .text.ehci_dma_unmap_from
                0x0000000080010f2c       0x24 /usr/local/xenon/usr/lib/libxenon.a(usb_os.o)
                0x0000000080010f2c                ehci_dma_unmap_from
 .text.ehci_dma_unmap_to
                0x0000000080010f50       0x24 /usr/local/xenon/usr/lib/libxenon.a(usb_os.o)
                0x0000000080010f50                ehci_dma_unmap_to
 .text.ehci_dma_map_bidir
                0x0000000080010f74       0x30 /usr/local/xenon/usr/lib/libxenon.a(usb_os.o)
                0x0000000080010f74                ehci_dma_map_bidir
 .text.ehci_dma_map_from
                0x0000000080010fa4       0x30 /usr/local/xenon/usr/lib/libxenon.a(usb_os.o)
                0x0000000080010fa4                ehci_dma_map_from
 .text.ehci_dma_map_to
                0x0000000080010fd4       0x30 /usr/local/xenon/usr/lib/libxenon.a(usb_os.o)
                0x0000000080010fd4                ehci_dma_map_to
 .text.ehci_maligned
                0x0000000080011004       0xa4 /usr/local/xenon/usr/lib/libxenon.a(usb_os.o)
                0x0000000080011004                ehci_maligned
 .text.utf8encode
                0x00000000800110a8       0x84 /usr/local/xenon/usr/lib/libxenon.a(unicode_rb.o)
                0x00000000800110a8                utf8encode
 .text.utf8length
                0x000000008001112c       0x34 /usr/local/xenon/usr/lib/libxenon.a(unicode_rb.o)
                0x000000008001112c                utf8length
 .text.utf8decode
                0x0000000080011160       0xd4 /usr/local/xenon/usr/lib/libxenon.a(unicode_rb.o)
                0x0000000080011160                utf8decode
 .text.xenon_gpio_set
                0x0000000080011234       0x5c /usr/local/xenon/usr/lib/libxenon.a(xenon_gpio.o)
                0x0000000080011234                xenon_gpio_set
 .text.xenon_gpio_set_oe
                0x0000000080011290       0x5c /usr/local/xenon/usr/lib/libxenon.a(xenon_gpio.o)
                0x0000000080011290                xenon_gpio_set_oe
 .text.xenon_smc_handle_bulk
                0x00000000800112ec       0x98 /usr/local/xenon/usr/lib/libxenon.a(xenon_smc.o)
                0x00000000800112ec                xenon_smc_handle_bulk
 .text.xenon_smc_receive_message
                0x0000000080011384       0x90 /usr/local/xenon/usr/lib/libxenon.a(xenon_smc.o)
                0x0000000080011384                xenon_smc_receive_message
 .text.xenon_smc_receive_response
                0x0000000080011414       0x50 /usr/local/xenon/usr/lib/libxenon.a(xenon_smc.o)
                0x0000000080011414                xenon_smc_receive_response
 .text.xenon_smc_send_message
                0x0000000080011464       0xa0 /usr/local/xenon/usr/lib/libxenon.a(xenon_smc.o)
                0x0000000080011464                xenon_smc_send_message
 .text.xenon_smc_read_avpack
                0x0000000080011504       0x54 /usr/local/xenon/usr/lib/libxenon.a(xenon_smc.o)
                0x0000000080011504                xenon_smc_read_avpack
 .text.xenon_smc_i2c_write
                0x0000000080011558       0xac /usr/local/xenon/usr/lib/libxenon.a(xenon_smc.o)
                0x0000000080011558                xenon_smc_i2c_write
 .text.xenon_smc_ana_read
                0x0000000080011604       0xdc /usr/local/xenon/usr/lib/libxenon.a(xenon_smc.o)
                0x0000000080011604                xenon_smc_ana_read
 .text.xenon_smc_ana_write
                0x00000000800116e0       0xb0 /usr/local/xenon/usr/lib/libxenon.a(xenon_smc.o)
                0x00000000800116e0                xenon_smc_ana_write
 .text.xenon_config_get_avregion
                0x0000000080011790       0xac /usr/local/xenon/usr/lib/libxenon.a(xenon_config.o)
                0x0000000080011790                xenon_config_get_avregion
 .text.xenon_config_init
                0x000000008001183c       0xb0 /usr/local/xenon/usr/lib/libxenon.a(xenon_config.o)
                0x000000008001183c                xenon_config_init
 .text.storage_write_sectors
                0x00000000800118ec       0x78 /usr/local/xenon/usr/lib/libxenon.a(disk_rb.o)
                0x00000000800118ec                storage_write_sectors
 .text.storage_read_sectors
                0x0000000080011964      0x1b0 /usr/local/xenon/usr/lib/libxenon.a(disk_rb.o)
                0x0000000080011964                storage_read_sectors
 .text.disk_init
                0x0000000080011b14      0x154 /usr/local/xenon/usr/lib/libxenon.a(disk_rb.o)
                0x0000000080011b14                disk_init
 .text.disk_mount
                0x0000000080011c68      0x140 /usr/local/xenon/usr/lib/libxenon.a(disk_rb.o)
                0x0000000080011c68                disk_mount
 .text.q_enqueue
                0x0000000080011da8       0x18 /usr/local/xenon/usr/lib/libxenon.a(lib_queue.o)
                0x0000000080011da8                q_enqueue
 .text.q_deqnext
                0x0000000080011dc0       0x30 /usr/local/xenon/usr/lib/libxenon.a(lib_queue.o)
                0x0000000080011dc0                q_deqnext
 .text.usbctrl_detach
                0x0000000080011df0       0x5c /usr/local/xenon/usr/lib/libxenon.a(usbctrl.o)
 .text.usbctrl_attach
                0x0000000080011e4c      0x1cc /usr/local/xenon/usr/lib/libxenon.a(usbctrl.o)
 .text.usbctrl_ireq_callback
                0x0000000080012018      0x190 /usr/local/xenon/usr/lib/libxenon.a(usbctrl.o)
 .text.getstringmaybe
                0x00000000800121a8       0x88 /usr/local/xenon/usr/lib/libxenon.a(usbdebug.o)
 .text.usb_dbg_dumpdescriptors
                0x0000000080012230      0x708 /usr/local/xenon/usr/lib/libxenon.a(usbdebug.o)
                0x0000000080012230                usb_dbg_dumpdescriptors
 .text.usb_dbg_dumpportstatus
                0x0000000080012938      0x284 /usr/local/xenon/usr/lib/libxenon.a(usbdebug.o)
                0x0000000080012938                usb_dbg_dumpportstatus
 .text.sfcx_readreg
                0x0000000080012bbc       0x14 /usr/local/xenon/usr/lib/libxenon.a(xenon_sfcx.o)
                0x0000000080012bbc                sfcx_readreg
 .text.sfcx_writereg
                0x0000000080012bd0       0x14 /usr/local/xenon/usr/lib/libxenon.a(xenon_sfcx.o)
                0x0000000080012bd0                sfcx_writereg
 .text.sfcx_init
                0x0000000080012be4      0x280 /usr/local/xenon/usr/lib/libxenon.a(xenon_sfcx.o)
                0x0000000080012be4                sfcx_init
 .text.sfcx_read_page
                0x0000000080012e64      0x170 /usr/local/xenon/usr/lib/libxenon.a(xenon_sfcx.o)
                0x0000000080012e64                sfcx_read_page
 .text.set_controller_data
                0x0000000080012fd4       0x5c /usr/local/xenon/usr/lib/libxenon.a(input.o)
                0x0000000080012fd4                set_controller_data
 .text          0x0000000080013030       0x88 /usr/local/xenon/xenon/lib/32/libc.a(lib_a-assert.o)
                0x0000000080013034                __assert_func
                0x00000000800130a0                __assert
 .text          0x00000000800130b8       0x50 /usr/local/xenon/xenon/lib/32/libc.a(lib_a-atoi.o)
                0x00000000800130b8                _atoi_r
                0x00000000800130e0                atoi
 .text          0x0000000080013108       0x40 /usr/local/xenon/xenon/lib/32/libc.a(lib_a-errno.o)
                0x000000008001310c                __errno
 .text          0x0000000080013148       0x58 /usr/local/xenon/xenon/lib/32/libc.a(lib_a-exit.o)
                0x000000008001314c                exit
 .text          0x00000000800131a0      0x12c /usr/local/xenon/xenon/lib/32/libc.a(lib_a-fiprintf.o)
                0x00000000800131a4                fiprintf
                0x0000000080013250                _fiprintf_r
 *fill*         0x00000000800132cc        0x4 00
 .text          0x00000000800132d0      0x16c /usr/local/xenon/xenon/lib/32/libc.a(lib_a-fopen.o)
                0x00000000800132d4                _fopen_r
                0x00000000800133f4                fopen
 *fill*         0x000000008001343c        0x4 00
 .text          0x0000000080013440      0x12c /usr/local/xenon/xenon/lib/32/libc.a(lib_a-fprintf.o)
                0x0000000080013444                fprintf
                0x00000000800134f0                _fprintf_r
 *fill*         0x000000008001356c        0x4 00
 .text          0x0000000080013570      0x644 /usr/local/xenon/xenon/lib/32/libc.a(lib_a-fseek.o)
                0x0000000080013574                _fseek_r
                0x0000000080013b64                fseek
 *fill*         0x0000000080013bb4        0x4 00
 .text          0x0000000080013bb8       0x9c /usr/local/xenon/xenon/lib/32/libc.a(lib_a-fstatr.o)
                0x0000000080013bbc                _fstat_r
 *fill*         0x0000000080013c54        0x4 00
 .text          0x0000000080013c58      0x22c /usr/local/xenon/xenon/lib/32/libc.a(lib_a-makebuf.o)
                0x0000000080013c5c                __smakebuf_r
 *fill*         0x0000000080013e84        0x4 00
 .text          0x0000000080013e88       0x90 /usr/local/xenon/xenon/lib/32/libc.a(lib_a-malloc.o)
                0x0000000080013e8c                free
                0x0000000080013ed4                malloc
 .text          0x0000000080013f18      0x880 /usr/local/xenon/xenon/lib/32/libc.a(lib_a-mallocr.o)
                0x0000000080013f1c                _malloc_r
 .text          0x0000000080014798      0x128 /usr/local/xenon/xenon/lib/32/libc.a(lib_a-memchr.o)
                0x0000000080014798                memchr
 .text          0x00000000800148c0       0xd8 /usr/local/xenon/xenon/lib/32/libc.a(lib_a-memcmp.o)
                0x00000000800148c0                memcmp
 .text          0x0000000080014998      0x12c /usr/local/xenon/xenon/lib/32/libc.a(lib_a-memcpy.o)
                0x0000000080014998                memcpy
 *fill*         0x0000000080014ac4        0x4 00
 .text          0x0000000080014ac8      0x138 /usr/local/xenon/xenon/lib/32/libc.a(lib_a-memset.o)
                0x0000000080014ac8                memset
 .text          0x0000000080014c00        0xc /usr/local/xenon/xenon/lib/32/libc.a(lib_a-mlock.o)
                0x0000000080014c00                __malloc_lock
                0x0000000080014c08                __malloc_unlock
 *fill*         0x0000000080014c0c        0x4 00
 .text          0x0000000080014c10       0xa4 /usr/local/xenon/xenon/lib/32/libc.a(lib_a-openr.o)
                0x0000000080014c14                _open_r
 *fill*         0x0000000080014cb4        0x4 00
 .text          0x0000000080014cb8      0x140 /usr/local/xenon/xenon/lib/32/libc.a(lib_a-printf.o)
                0x0000000080014cbc                printf
                0x0000000080014d70                _printf_r
 .text          0x0000000080014df8       0x74 /usr/local/xenon/xenon/lib/32/libc.a(lib_a-putchar.o)
                0x0000000080014dfc                putchar
                0x0000000080014e48                _putchar_r
 *fill*         0x0000000080014e6c        0x4 00
 .text          0x0000000080014e70      0x208 /usr/local/xenon/xenon/lib/32/libc.a(lib_a-putc.o)
                0x0000000080014e74                putc
                0x0000000080014f98                _putc_r
 .text          0x0000000080015078      0x130 /usr/local/xenon/xenon/lib/32/libc.a(lib_a-puts.o)
                0x000000008001507c                _puts_r
                0x0000000080015164                puts
 .text          0x00000000800151a8      0x2ac /usr/local/xenon/xenon/lib/32/libc.a(lib_a-refill.o)
                0x00000000800151ac                __srefill_r
 *fill*         0x0000000080015454        0x4 00
 .text          0x0000000080015458       0x94 /usr/local/xenon/xenon/lib/32/libc.a(lib_a-sbrkr.o)
                0x000000008001545c                _sbrk_r
 *fill*         0x00000000800154ec        0x4 00
 .text          0x00000000800154f0      0x250 /usr/local/xenon/xenon/lib/32/libc.a(lib_a-snprintf.o)
                0x00000000800154f4                snprintf
                0x0000000080015628                _snprintf_r
 .text          0x0000000080015740      0x1a8 /usr/local/xenon/xenon/lib/32/libc.a(lib_a-stdio.o)
                0x0000000080015740                __sclose
                0x0000000080015768                __sseek
                0x00000000800157d8                __swrite
                0x0000000080015880                __sread
 .text          0x00000000800158e8      0x108 /usr/local/xenon/xenon/lib/32/libc.a(lib_a-strcasecmp.o)
                0x00000000800158ec                strcasecmp
 .text          0x00000000800159f0       0x8c /usr/local/xenon/xenon/lib/32/libc.a(lib_a-strcat.o)
                0x00000000800159f0                strcat
 *fill*         0x0000000080015a7c        0x4 00
 .text          0x0000000080015a80      0x1e4 /usr/local/xenon/xenon/lib/32/libc.a(lib_a-strchr.o)
                0x0000000080015a80                strchr
 *fill*         0x0000000080015c64        0x4 00
 .text          0x0000000080015c68       0xe8 /usr/local/xenon/xenon/lib/32/libc.a(lib_a-strcmp.o)
                0x0000000080015c68                strcmp
 .text          0x0000000080015d50       0x90 /usr/local/xenon/xenon/lib/32/libc.a(lib_a-strcpy.o)
                0x0000000080015d50                strcpy
 .text          0x0000000080015de0       0x88 /usr/local/xenon/xenon/lib/32/libc.a(lib_a-strlcpy.o)
                0x0000000080015de0                strlcpy
 .text          0x0000000080015e68       0xb4 /usr/local/xenon/xenon/lib/32/libc.a(lib_a-strlen.o)
                0x0000000080015e68                strlen
 *fill*         0x0000000080015f1c        0x4 00
 .text          0x0000000080015f20       0xe8 /usr/local/xenon/xenon/lib/32/libc.a(lib_a-strncasecmp.o)
                0x0000000080015f24                strncasecmp
 .text          0x0000000080016008      0x180 /usr/local/xenon/xenon/lib/32/libc.a(lib_a-strncmp.o)
                0x0000000080016008                strncmp
 .text          0x0000000080016188      0x108 /usr/local/xenon/xenon/lib/32/libc.a(lib_a-strncpy.o)
                0x0000000080016188                strncpy
 .text          0x0000000080016290       0x98 /usr/local/xenon/xenon/lib/32/libc.a(lib_a-strrchr.o)
                0x0000000080016290                strrchr
 .text          0x0000000080016328      0x12c /usr/local/xenon/xenon/lib/32/libc.a(lib_a-strtok_r.o)
                0x0000000080016328                __strtok_r
                0x0000000080016430                strtok_r
 *fill*         0x0000000080016454        0x4 00
 .text          0x0000000080016458      0x2a4 /usr/local/xenon/xenon/lib/32/libc.a(lib_a-strtol.o)
                0x000000008001645c                _strtol_r
                0x00000000800166ac                strtol
 *fill*         0x00000000800166fc        0x4 00
 .text          0x0000000080016700     0x2144 /usr/local/xenon/xenon/lib/32/libc.a(lib_a-svfprintf.o)
                0x00000000800169ec                _svfprintf_r
 *fill*         0x0000000080018844        0x4 00
 .text          0x0000000080018848     0x1224 /usr/local/xenon/xenon/lib/32/libc.a(lib_a-vfiprintf.o)
                0x00000000800188b4                _vfiprintf_r
                0x0000000080019a1c                vfiprintf
 *fill*         0x0000000080019a6c        0x4 00
 .text          0x0000000080019a70     0x1ffc /usr/local/xenon/xenon/lib/32/libc.a(lib_a-vfprintf.o)
                0x0000000080019adc                _vfprintf_r
                0x000000008001ba1c                vfprintf
 *fill*         0x000000008001ba6c        0x4 00
 .text          0x000000008001ba70      0x1e4 /usr/local/xenon/xenon/lib/32/libc.a(lib_a-wbuf.o)
                0x000000008001ba70                __swbuf_r
                0x000000008001bc0c                __swbuf
 *fill*         0x000000008001bc54        0x4 00
 .text          0x000000008001bc58       0x9c /usr/local/xenon/xenon/lib/32/libc.a(lib_a-writer.o)
                0x000000008001bc5c                _write_r
 *fill*         0x000000008001bcf4        0x4 00
 .text          0x000000008001bcf8      0x1a8 /usr/local/xenon/xenon/lib/32/libc.a(lib_a-wsetup.o)
                0x000000008001bcfc                __swsetup_r
 .text          0x000000008001bea0       0x1c /usr/local/xenon/xenon/lib/32/libc.a(lib_a-abort.o)
                0x000000008001bea0                abort
 *fill*         0x000000008001bebc        0x4 00
 .text          0x000000008001bec0      0x1f4 /usr/local/xenon/xenon/lib/32/libc.a(lib_a-__call_atexit.o)
                0x000000008001bec4                __call_exitprocs
 *fill*         0x000000008001c0b4        0x4 00
 .text          0x000000008001c0b8       0x94 /usr/local/xenon/xenon/lib/32/libc.a(lib_a-closer.o)
                0x000000008001c0bc                _close_r
 *fill*         0x000000008001c14c        0x4 00
 .text          0x000000008001c150     0x144c /usr/local/xenon/xenon/lib/32/libc.a(lib_a-dtoa.o)
                0x000000008001c38c                _dtoa_r
 *fill*         0x000000008001d59c        0x4 00
 .text          0x000000008001d5a0      0x2ec /usr/local/xenon/xenon/lib/32/libc.a(lib_a-fflush.o)
                0x000000008001d5a0                _fflush_r
                0x000000008001d81c                fflush
 *fill*         0x000000008001d88c        0x4 00
 .text          0x000000008001d890      0x49c /usr/local/xenon/xenon/lib/32/libc.a(lib_a-findfp.o)
                0x000000008001d890                __sfp_lock_acquire
                0x000000008001d898                __sfp_lock_release
                0x000000008001d8a0                __sinit_lock_acquire
                0x000000008001d8a8                __sinit_lock_release
                0x000000008001d8c4                __fp_unlock_all
                0x000000008001d914                __fp_lock_all
                0x000000008001d964                _cleanup_r
                0x000000008001d9a4                _cleanup
                0x000000008001da8c                __sinit
                0x000000008001db40                __sfmoreglue
                0x000000008001dbc4                __sfp
 *fill*         0x000000008001dd2c        0x4 00
 .text          0x000000008001dd30       0xa0 /usr/local/xenon/xenon/lib/32/libc.a(lib_a-flags.o)
                0x000000008001dd30                __sflags
 .text          0x000000008001ddd0      0x428 /usr/local/xenon/xenon/lib/32/libc.a(lib_a-freer.o)
                0x000000008001ddd4                _malloc_trim_r
                0x000000008001df34                _free_r
 .text          0x000000008001e1f8      0x58c /usr/local/xenon/xenon/lib/32/libc.a(lib_a-fvwrite.o)
                0x000000008001e1f8                __sfvwrite_r
 *fill*         0x000000008001e784        0x4 00
 .text          0x000000008001e788      0x18c /usr/local/xenon/xenon/lib/32/libc.a(lib_a-fwalk.o)
                0x000000008001e788                _fwalk_reent
                0x000000008001e858                _fwalk
 *fill*         0x000000008001e914        0x4 00
 .text          0x000000008001e918       0x94 /usr/local/xenon/xenon/lib/32/libc.a(lib_a-isattyr.o)
                0x000000008001e91c                _isatty_r
 *fill*         0x000000008001e9ac        0x4 00
 .text          0x000000008001e9b0      0x1ec /usr/local/xenon/xenon/lib/32/libc.a(lib_a-locale.o)
                0x000000008001e9b4                __locale_charset
                0x000000008001e9f4                _localeconv_r
                0x000000008001ea34                localeconv
                0x000000008001ea7c                _setlocale_r
                0x000000008001eb54                setlocale
 *fill*         0x000000008001eb9c        0x4 00
 .text          0x000000008001eba0       0x9c /usr/local/xenon/xenon/lib/32/libc.a(lib_a-lseekr.o)
                0x000000008001eba4                _lseek_r
 *fill*         0x000000008001ec3c        0x4 00
 .text          0x000000008001ec40      0x16c /usr/local/xenon/xenon/lib/32/libc.a(lib_a-memmove.o)
                0x000000008001ec40                memmove
 *fill*         0x000000008001edac        0x4 00
 .text          0x000000008001edb0     0x1334 /usr/local/xenon/xenon/lib/32/libc.a(lib_a-mprec.o)
                0x000000008001edb0                _Bfree
                0x000000008001edd8                __hi0bits
                0x000000008001ee50                __lo0bits
                0x000000008001ef40                __mcmp
                0x000000008001efd0                __ulp
                0x000000008001f080                __b2d
                0x000000008001f210                __ratio
                0x000000008001f2fc                _mprec_log10
                0x000000008001f378                __copybits
                0x000000008001f408                __any_on
                0x000000008001f4b0                _Balloc
                0x000000008001f570                __d2b
                0x000000008001f720                __mdiff
                0x000000008001f8f8                __lshift
                0x000000008001fa88                __multiply
                0x000000008001fce0                __i2b
                0x000000008001fd20                __multadd
                0x000000008001fe4c                __pow5mult
                0x000000008001ffb0                __s2b
 *fill*         0x00000000800200e4        0x4 00
 .text          0x00000000800200e8       0x9c /usr/local/xenon/xenon/lib/32/libc.a(lib_a-readr.o)
                0x00000000800200ec                _read_r
 *fill*         0x0000000080020184        0x4 00
 .text          0x0000000080020188      0x650 /usr/local/xenon/xenon/lib/32/libc.a(lib_a-reallocr.o)
                0x000000008002018c                _realloc_r
 .text          0x00000000800207d8      0x3dc /usr/local/xenon/xenon/lib/32/libc.a(lib_a-signal.o)
                0x00000000800207d8                _raise_r
                0x00000000800208c4                raise
                0x0000000080020908                _init_signal_r
                0x000000008002098c                _init_signal
                0x00000000800209d0                __sigtramp_r
                0x0000000080020a94                __sigtramp
                0x0000000080020ad8                _signal_r
                0x0000000080020b6c                signal
 *fill*         0x0000000080020bb4        0x4 00
 .text          0x0000000080020bb8       0xbc /usr/local/xenon/xenon/lib/32/libc.a(lib_a-signalr.o)
                0x0000000080020bb8                _getpid_r
                0x0000000080020bdc                _kill_r
 *fill*         0x0000000080020c74        0x4 00
 .text          0x0000000080020c78       0x44 /usr/local/xenon/xenon/lib/32/libc.a(lib_a-s_isinfd.o)
                0x0000000080020c78                __isinfd
 *fill*         0x0000000080020cbc        0x4 00
 .text          0x0000000080020cc0       0x38 /usr/local/xenon/xenon/lib/32/libc.a(lib_a-s_isnand.o)
                0x0000000080020cc0                __isnand
 .text          0x0000000080020cf8       0xd0 /usr/local/xenon/xenon/lib/32/libc.a(lib_a-callocr.o)
                0x0000000080020cf8                _calloc_r
 .text          0x0000000080020dc8      0x1b8 /usr/local/xenon/xenon/lib/32/libc.a(lib_a-fclose.o)
                0x0000000080020dc8                _fclose_r
                0x0000000080020f3c                fclose
 *(.init*)

.glink          0x0000000080020f80        0x0
 .glink         0x0000000000000000        0x0 /usr/local/xenon/lib/gcc/xenon/4.4.0/../../../../xenon/lib/../lib/crt1.o

.elfldr         0x0000000080020f80        0x0
                0x0000000080020f80                elfldr_start = .
 *(.elfldr)
                0x0000000080020f80                elfldr_end = .

.data           0x0000000080020f80     0x5754
 *(.data*)
 .data.console_color
                0x0000000080020f80        0x8 /usr/local/xenon/usr/lib/libxenon.a(console.o)
 .data.mounts   0x0000000080020f88      0x480 /usr/local/xenon/usr/lib/libxenon.a(newlib.o)
 .data.vfs_console_ops
                0x0000000080021408       0x18 /usr/local/xenon/usr/lib/libxenon.a(newlib.o)
                0x0000000080021408                vfs_console_ops
 .data.vfs_console_mount_ops
                0x0000000080021420       0x10 /usr/local/xenon/usr/lib/libxenon.a(newlib.o)
                0x0000000080021420                vfs_console_mount_ops
 .data.fd_array
                0x0000000080021430      0xc00 /usr/local/xenon/usr/lib/libxenon.a(newlib.o)
 .data.first_access
                0x0000000080022030        0x4 /usr/local/xenon/usr/lib/libxenon.a(tinyehci.o)
 .data.__lun    0x0000000080022034        0x1 /usr/local/xenon/usr/lib/libxenon.a(tinyehci.o)
 *fill*         0x0000000080022035        0x3 00
 .data.ana_1280x1024
                0x0000000080022038      0x400 /usr/local/xenon/usr/lib/libxenon.a(xenos.o)
                0x0000000080022038                ana_1280x1024
 .data.ana_640x480p
                0x0000000080022438      0x400 /usr/local/xenon/usr/lib/libxenon.a(xenos.o)
                0x0000000080022438                ana_640x480p
 .data.ana_1360x768
                0x0000000080022838      0x400 /usr/local/xenon/usr/lib/libxenon.a(xenos.o)
                0x0000000080022838                ana_1360x768
 .data.ana_1280x720
                0x0000000080022c38      0x400 /usr/local/xenon/usr/lib/libxenon.a(xenos.o)
                0x0000000080022c38                ana_1280x720
 .data.ana_ntsc_480i
                0x0000000080023038      0x400 /usr/local/xenon/usr/lib/libxenon.a(xenos.o)
                0x0000000080023038                ana_ntsc_480i
 .data.ana_1024x768
                0x0000000080023438      0x400 /usr/local/xenon/usr/lib/libxenon.a(xenos.o)
                0x0000000080023438                ana_1024x768
 .data.ana_pal  0x0000000080023838      0x400 /usr/local/xenon/usr/lib/libxenon.a(xenos.o)
                0x0000000080023838                ana_pal
 .data.ana_yuv_720p
                0x0000000080023c38      0x400 /usr/local/xenon/usr/lib/libxenon.a(xenos.o)
                0x0000000080023c38                ana_yuv_720p
 .data.ana_yuv_480p
                0x0000000080024038      0x400 /usr/local/xenon/usr/lib/libxenon.a(xenos.o)
                0x0000000080024038                ana_yuv_480p
 .data.ana_hdmi_720p
                0x0000000080024438      0x400 /usr/local/xenon/usr/lib/libxenon.a(xenos.o)
                0x0000000080024438                ana_hdmi_720p
 .data.xenos_modes
                0x0000000080024838      0x2d8 /usr/local/xenon/usr/lib/libxenon.a(xenos.o)
                0x0000000080024838                xenos_modes
 .data.ana_640_480_composite
                0x0000000080024b10      0x400 /usr/local/xenon/usr/lib/libxenon.a(xenos.o)
                0x0000000080024b10                ana_640_480_composite
 .data.ana_1440x900
                0x0000000080024f10      0x400 /usr/local/xenon/usr/lib/libxenon.a(xenos.o)
                0x0000000080024f10                ana_1440x900
 .data.ana_1280x768
                0x0000000080025310      0x400 /usr/local/xenon/usr/lib/libxenon.a(xenos.o)
                0x0000000080025310                ana_1280x768
 .data.vfs_fat_mount_ops
                0x0000000080025710       0x10 /usr/local/xenon/usr/lib/libxenon.a(fat.o)
                0x0000000080025710                vfs_fat_mount_ops
 .data.vfs_fat_file_ops
                0x0000000080025720       0x18 /usr/local/xenon/usr/lib/libxenon.a(fat.o)
                0x0000000080025720                vfs_fat_file_ops
 .data.vfs_iso9660_mount_ops
                0x0000000080025738       0x10 /usr/local/xenon/usr/lib/libxenon.a(iso9660.o)
                0x0000000080025738                vfs_iso9660_mount_ops
 .data.vfs_iso9660_file_ops
                0x0000000080025748       0x18 /usr/local/xenon/usr/lib/libxenon.a(iso9660.o)
                0x0000000080025748                vfs_iso9660_file_ops
 .data.ohci_driver
                0x0000000080025760       0x2c /usr/local/xenon/usr/lib/libxenon.a(ohci.o)
                0x0000000080025760                ohci_driver
 .data.usb_drivers
                0x000000008002578c       0x60 /usr/local/xenon/usr/lib/libxenon.a(usbdevs.o)
                0x000000008002578c                usb_drivers
 .data.usbhid_driver
                0x00000000800257ec        0xc /usr/local/xenon/usr/lib/libxenon.a(usbhid.o)
                0x00000000800257ec                usbhid_driver
 .data.usbhid_scantable
                0x00000000800257f8      0x650 /usr/local/xenon/usr/lib/libxenon.a(usbhid.o)
 .data.usbhub_driver
                0x0000000080025e48        0xc /usr/local/xenon/usr/lib/libxenon.a(usbhub.o)
                0x0000000080025e48                usbhub_driver
 .data.usbroothub_driver
                0x0000000080025e54        0xc /usr/local/xenon/usr/lib/libxenon.a(usbhub.o)
                0x0000000080025e54                usbroothub_driver
 .data.usbctrl_driver
                0x0000000080025e60        0xc /usr/local/xenon/usr/lib/libxenon.a(usbctrl.o)
                0x0000000080025e60                usbctrl_driver
 *fill*         0x0000000080025e6c        0x4 00
 .data.rel.local
                0x0000000080025e70      0x428 /usr/local/xenon/xenon/lib/32/libc.a(lib_a-impure.o)
 .data.rel      0x0000000080026298      0x408 /usr/local/xenon/xenon/lib/32/libc.a(lib_a-mallocr.o)
                0x0000000080026298                __malloc_av_
 .data.rel.ro.local
                0x00000000800266a0       0x34 /usr/local/xenon/xenon/lib/32/libc.a(lib_a-locale.o)

.got2           0x00000000800266d4      0x204
 .got2          0x00000000800266d4       0x10 /usr/local/xenon/xenon/lib/32/libc.a(lib_a-assert.o)
 .got2          0x00000000800266e4        0x4 /usr/local/xenon/xenon/lib/32/libc.a(lib_a-errno.o)
 .got2          0x00000000800266e8        0x4 /usr/local/xenon/xenon/lib/32/libc.a(lib_a-exit.o)
 .got2          0x00000000800266ec        0x4 /usr/local/xenon/xenon/lib/32/libc.a(lib_a-fiprintf.o)
 .got2          0x00000000800266f0       0x14 /usr/local/xenon/xenon/lib/32/libc.a(lib_a-fopen.o)
 .got2          0x0000000080026704        0x4 /usr/local/xenon/xenon/lib/32/libc.a(lib_a-fprintf.o)
 .got2          0x0000000080026708        0x8 /usr/local/xenon/xenon/lib/32/libc.a(lib_a-fseek.o)
 .got2          0x0000000080026710        0x4 /usr/local/xenon/xenon/lib/32/libc.a(lib_a-fstatr.o)
 .got2          0x0000000080026714        0x8 /usr/local/xenon/xenon/lib/32/libc.a(lib_a-makebuf.o)
 .got2          0x000000008002671c        0x4 /usr/local/xenon/xenon/lib/32/libc.a(lib_a-malloc.o)
 .got2          0x0000000080026720       0x1c /usr/local/xenon/xenon/lib/32/libc.a(lib_a-mallocr.o)
 .got2          0x000000008002673c        0x4 /usr/local/xenon/xenon/lib/32/libc.a(lib_a-openr.o)
 .got2          0x0000000080026740        0x4 /usr/local/xenon/xenon/lib/32/libc.a(lib_a-printf.o)
 .got2          0x0000000080026744        0x4 /usr/local/xenon/xenon/lib/32/libc.a(lib_a-putchar.o)
 .got2          0x0000000080026748        0x4 /usr/local/xenon/xenon/lib/32/libc.a(lib_a-putc.o)
 .got2          0x000000008002674c        0x8 /usr/local/xenon/xenon/lib/32/libc.a(lib_a-puts.o)
 .got2          0x0000000080026754        0x8 /usr/local/xenon/xenon/lib/32/libc.a(lib_a-refill.o)
 .got2          0x000000008002675c        0x4 /usr/local/xenon/xenon/lib/32/libc.a(lib_a-sbrkr.o)
 .got2          0x0000000080026760        0x4 /usr/local/xenon/xenon/lib/32/libc.a(lib_a-snprintf.o)
 .got2          0x0000000080026764        0x4 /usr/local/xenon/xenon/lib/32/libc.a(lib_a-strcasecmp.o)
 .got2          0x0000000080026768        0x4 /usr/local/xenon/xenon/lib/32/libc.a(lib_a-strncasecmp.o)
 .got2          0x000000008002676c        0x8 /usr/local/xenon/xenon/lib/32/libc.a(lib_a-strtol.o)
 .got2          0x0000000080026774       0x30 /usr/local/xenon/xenon/lib/32/libc.a(lib_a-svfprintf.o)
 .got2          0x00000000800267a4       0x1c /usr/local/xenon/xenon/lib/32/libc.a(lib_a-vfiprintf.o)
 .got2          0x00000000800267c0       0x34 /usr/local/xenon/xenon/lib/32/libc.a(lib_a-vfprintf.o)
 .got2          0x00000000800267f4        0x4 /usr/local/xenon/xenon/lib/32/libc.a(lib_a-wbuf.o)
 .got2          0x00000000800267f8        0x4 /usr/local/xenon/xenon/lib/32/libc.a(lib_a-writer.o)
 .got2          0x00000000800267fc        0x4 /usr/local/xenon/xenon/lib/32/libc.a(lib_a-wsetup.o)
 .got2          0x0000000080026800        0x4 /usr/local/xenon/xenon/lib/32/libc.a(lib_a-__call_atexit.o)
 .got2          0x0000000080026804        0x4 /usr/local/xenon/xenon/lib/32/libc.a(lib_a-closer.o)
 .got2          0x0000000080026808       0x48 /usr/local/xenon/xenon/lib/32/libc.a(lib_a-dtoa.o)
 .got2          0x0000000080026850        0xc /usr/local/xenon/xenon/lib/32/libc.a(lib_a-fflush.o)
 .got2          0x000000008002685c       0x28 /usr/local/xenon/xenon/lib/32/libc.a(lib_a-findfp.o)
 .got2          0x0000000080026884       0x18 /usr/local/xenon/xenon/lib/32/libc.a(lib_a-freer.o)
 .got2          0x000000008002689c        0x4 /usr/local/xenon/xenon/lib/32/libc.a(lib_a-isattyr.o)
 .got2          0x00000000800268a0       0x10 /usr/local/xenon/xenon/lib/32/libc.a(lib_a-locale.o)
 .got2          0x00000000800268b0        0x4 /usr/local/xenon/xenon/lib/32/libc.a(lib_a-lseekr.o)
 .got2          0x00000000800268b4       0x10 /usr/local/xenon/xenon/lib/32/libc.a(lib_a-mprec.o)
 .got2          0x00000000800268c4        0x4 /usr/local/xenon/xenon/lib/32/libc.a(lib_a-readr.o)
 .got2          0x00000000800268c8        0x4 /usr/local/xenon/xenon/lib/32/libc.a(lib_a-reallocr.o)
 .got2          0x00000000800268cc        0x4 /usr/local/xenon/xenon/lib/32/libc.a(lib_a-signal.o)
 .got2          0x00000000800268d0        0x4 /usr/local/xenon/xenon/lib/32/libc.a(lib_a-signalr.o)
 .got2          0x00000000800268d4        0x4 /usr/local/xenon/xenon/lib/32/libc.a(lib_a-fclose.o)

.sdata          0x00000000800268d8       0x34
 *(.sdata*)
 .sdata.usb_timeout
                0x00000000800268d8        0x4 /usr/local/xenon/usr/lib/libxenon.a(tinyehci.o)
                0x00000000800268d8                usb_timeout
 .sdata.usb2mass_ops
                0x00000000800268dc        0x8 /usr/local/xenon/usr/lib/libxenon.a(tinyehci.o)
                0x00000000800268dc                usb2mass_ops
 .sdata.vfs_fat_dir_ops
                0x00000000800268e4        0x8 /usr/local/xenon/usr/lib/libxenon.a(fat.o)
                0x00000000800268e4                vfs_fat_dir_ops
 .sdata.vfs_iso9660_dir_ops
                0x00000000800268ec        0x8 /usr/local/xenon/usr/lib/libxenon.a(iso9660.o)
                0x00000000800268ec                vfs_iso9660_dir_ops
 .sdata         0x00000000800268f4        0x8 /usr/local/xenon/xenon/lib/32/libc.a(lib_a-ctype_.o)
                0x00000000800268f4                __ctype_ptr
                0x00000000800268f8                __ctype_ptr__
 .sdata         0x00000000800268fc        0x8 /usr/local/xenon/xenon/lib/32/libc.a(lib_a-impure.o)
                0x00000000800268fc                _impure_ptr
                0x0000000080026900                _global_impure_ptr
 .sdata         0x0000000080026904        0x8 /usr/local/xenon/xenon/lib/32/libc.a(lib_a-mallocr.o)
                0x0000000080026904                __malloc_trim_threshold
                0x0000000080026908                __malloc_sbrk_base

.rodata         0x0000000080026910     0x3620
 *(.rodata*)
 .rodata.str1.8
                0x0000000080026910       0x78 main.o
                                         0x75 (size before relaxing)
 .rodata.str1.1
                0x0000000080026988       0x33 /usr/local/xenon/usr/lib/libxenon.a(console.o)
 *fill*         0x00000000800269bb        0x5 00
 .rodata.fontdata_8x16
                0x00000000800269c0     0x1000 /usr/local/xenon/usr/lib/libxenon.a(console.o)
                0x00000000800269c0                fontdata_8x16
 .rodata.str1.1
                0x00000000800279c0       0x1d /usr/local/xenon/usr/lib/libxenon.a(newlib.o)
 .rodata.str1.1
                0x00000000800279dd       0xcf /usr/local/xenon/usr/lib/libxenon.a(usbmain.o)
 .rodata.str1.1
                0x0000000080027aac        0x4 /usr/local/xenon/usr/lib/libxenon.a(tinyehci.o)
 .rodata.C.12.3395
                0x0000000080027ab0       0x40 /usr/local/xenon/usr/lib/libxenon.a(xenos.o)
 .rodata.CSWTCH.31
                0x0000000080027af0       0x10 /usr/local/xenon/usr/lib/libxenon.a(xenos.o)
 .rodata.C.9.3386
                0x0000000080027b00       0x44 /usr/local/xenon/usr/lib/libxenon.a(xenos.o)
 .rodata.C.13.3414
                0x0000000080027b44       0x5c /usr/local/xenon/usr/lib/libxenon.a(xenos.o)
 .rodata.str1.1
                0x0000000080027ba0      0x1e0 /usr/local/xenon/usr/lib/libxenon.a(xenos.o)
 .rodata.__FUNCTION__.3425
                0x0000000080027d80       0x12 /usr/local/xenon/usr/lib/libxenon.a(xenos.o)
 *fill*         0x0000000080027d92        0x6 00
 .rodata.__FUNCTION__.3630
                0x0000000080027d98       0x12 /usr/local/xenon/usr/lib/libxenon.a(xenos.o)
 *fill*         0x0000000080027daa        0x2 00
 .rodata.C.6.3366
                0x0000000080027dac       0x1c /usr/local/xenon/usr/lib/libxenon.a(xenos.o)
 .rodata.C.10.3387
                0x0000000080027dc8       0x44 /usr/local/xenon/usr/lib/libxenon.a(xenos.o)
 .rodata.str1.1
                0x0000000080027e0c       0x78 /usr/local/xenon/usr/lib/libxenon.a(diskio.o)
                                         0x79 (size before relaxing)
 *fill*         0x0000000080027e84        0x4 00
 .rodata.FATLONG_NAME_SIZE
                0x0000000080027e88        0x3 /usr/local/xenon/usr/lib/libxenon.a(fat_rb.o)
 *fill*         0x0000000080027e8b        0x5 00
 .rodata.invalid_chars.4668
                0x0000000080027e90       0x11 /usr/local/xenon/usr/lib/libxenon.a(fat_rb.o)
 *fill*         0x0000000080027ea1        0x7 00
 .rodata.daysinmonth.4276
                0x0000000080027ea8        0xc /usr/local/xenon/usr/lib/libxenon.a(fat_rb.o)
 .rodata.str1.1
                0x0000000080027eb4      0x63d /usr/local/xenon/usr/lib/libxenon.a(fat_rb.o)
                                        0x642 (size before relaxing)
 *fill*         0x00000000800284f1        0x7 00
 .rodata.invalid_chars.4533
                0x00000000800284f8        0xa /usr/local/xenon/usr/lib/libxenon.a(fat_rb.o)
 *fill*         0x0000000080028502        0x6 00
 .rodata.FATLONG_NAME_POS
                0x0000000080028508        0x3 /usr/local/xenon/usr/lib/libxenon.a(fat_rb.o)
 .rodata.str1.1
                0x000000008002850b      0x1a4 /usr/local/xenon/usr/lib/libxenon.a(file_rb.o)
 .rodata.str1.1
                0x00000000800286af      0x112 /usr/local/xenon/usr/lib/libxenon.a(dir_rb.o)
                                        0x141 (size before relaxing)
 .rodata.str1.1
                0x00000000800287c1       0xba /usr/local/xenon/usr/lib/libxenon.a(iso9660.o)
 .rodata.str1.1
                0x000000008002887b       0x4b /usr/local/xenon/usr/lib/libxenon.a(lib_malloc.o)
 *fill*         0x00000000800288c6        0x2 00
 .rodata.ohci_xfer
                0x00000000800288c8       0x50 /usr/local/xenon/usr/lib/libxenon.a(ohci.o)
 .rodata.ohci_root_ifdsc
                0x0000000080028918        0x9 /usr/local/xenon/usr/lib/libxenon.a(ohci.o)
 *fill*         0x0000000080028921        0x3 00
 .rodata.ohci_revbits
                0x0000000080028924       0x80 /usr/local/xenon/usr/lib/libxenon.a(ohci.o)
 .rodata.ohci_root_cfgdsc
                0x00000000800289a4        0x9 /usr/local/xenon/usr/lib/libxenon.a(ohci.o)
 .rodata.str1.1
                0x00000000800289ad       0x11 /usr/local/xenon/usr/lib/libxenon.a(ohci.o)
 .rodata.ohci_root_devdsc
                0x00000000800289be       0x12 /usr/local/xenon/usr/lib/libxenon.a(ohci.o)
 .rodata.ohci_root_hubdsc
                0x00000000800289d0       0x47 /usr/local/xenon/usr/lib/libxenon.a(ohci.o)
 .rodata.ohci_root_epdsc
                0x0000000080028a17        0x7 /usr/local/xenon/usr/lib/libxenon.a(ohci.o)
 .rodata.str1.1
                0x0000000080028a1e      0x100 /usr/local/xenon/usr/lib/libxenon.a(usbd.o)
 .rodata.str1.1
                0x0000000080028b1e       0x47 /usr/local/xenon/usr/lib/libxenon.a(usbdevs.o)
 .rodata.str1.1
                0x0000000080028b65       0x4a /usr/local/xenon/usr/lib/libxenon.a(usbhid.o)
 *fill*         0x0000000080028baf        0x1 00
 .rodata.usbhid_devtypes
                0x0000000080028bb0        0xc /usr/local/xenon/usr/lib/libxenon.a(usbhid.o)
 .rodata.str1.1
                0x0000000080028bbc      0x241 /usr/local/xenon/usr/lib/libxenon.a(usbhub.o)
                                        0x24a (size before relaxing)
 *fill*         0x0000000080028dfd        0x3 00
 .rodata.utf8comp
                0x0000000080028e00        0x6 /usr/local/xenon/usr/lib/libxenon.a(unicode_rb.o)
 .rodata.str1.1
                0x0000000080028e06      0x10b /usr/local/xenon/usr/lib/libxenon.a(xenon_smc.o)
 .rodata.str1.1
                0x0000000080028f11       0x40 /usr/local/xenon/usr/lib/libxenon.a(xenon_config.o)
 .rodata.str1.1
                0x0000000080028f51       0x75 /usr/local/xenon/usr/lib/libxenon.a(disk_rb.o)
 *fill*         0x0000000080028fc6        0x2 00
 .rodata.fat_partition_types
                0x0000000080028fc8        0xa /usr/local/xenon/usr/lib/libxenon.a(disk_rb.o)
 .rodata.str1.1
                0x0000000080028fd2       0x73 /usr/local/xenon/usr/lib/libxenon.a(usbctrl.o)
 .rodata.str1.1
                0x0000000080029045      0x61a /usr/local/xenon/usr/lib/libxenon.a(usbdebug.o)
                                        0x672 (size before relaxing)
 *fill*         0x000000008002965f        0x1 00
 .rodata.eptattribs.3323
                0x0000000080029660       0x10 /usr/local/xenon/usr/lib/libxenon.a(usbdebug.o)
 .rodata.str1.1
                0x0000000080029670      0x11d /usr/local/xenon/usr/lib/libxenon.a(xenon_sfcx.o)
 *fill*         0x000000008002978d        0x3 00
 .rodata.str1.4
                0x0000000080029790       0x3f /usr/local/xenon/xenon/lib/32/libc.a(lib_a-assert.o)
                                         0x43 (size before relaxing)
 *fill*         0x00000000800297cf        0x1 00
 .rodata        0x00000000800297d0      0x101 /usr/local/xenon/xenon/lib/32/libc.a(lib_a-ctype_.o)
                0x00000000800297d0                _ctype_
 *fill*         0x00000000800298d1        0x3 00
 .rodata.str1.4
                0x00000000800298d4        0x2 /usr/local/xenon/xenon/lib/32/libc.a(lib_a-impure.o)
 *fill*         0x00000000800298d6        0x2 00
 .rodata.str1.4
                0x00000000800298d8        0x2 /usr/local/xenon/xenon/lib/32/libc.a(lib_a-puts.o)
 *fill*         0x00000000800298da        0x2 00
 .rodata        0x00000000800298dc      0x184 /usr/local/xenon/xenon/lib/32/libc.a(lib_a-svfprintf.o)
 .rodata.cst4   0x0000000080029a60        0x4 /usr/local/xenon/xenon/lib/32/libc.a(lib_a-svfprintf.o)
 .rodata.str1.4
                0x0000000080029a64       0x42 /usr/local/xenon/xenon/lib/32/libc.a(lib_a-svfprintf.o)
 *fill*         0x0000000080029aa6        0x2 00
 .rodata        0x0000000080029aa8      0x184 /usr/local/xenon/xenon/lib/32/libc.a(lib_a-vfiprintf.o)
 .rodata.str1.4
                0x0000000000000000       0x2f /usr/local/xenon/xenon/lib/32/libc.a(lib_a-vfiprintf.o)
 .rodata        0x0000000080029c2c      0x184 /usr/local/xenon/xenon/lib/32/libc.a(lib_a-vfprintf.o)
 .rodata.cst4   0x0000000000000000        0x4 /usr/local/xenon/xenon/lib/32/libc.a(lib_a-vfprintf.o)
 .rodata.str1.4
                0x0000000000000000       0x42 /usr/local/xenon/xenon/lib/32/libc.a(lib_a-vfprintf.o)
 .rodata.cst4   0x0000000080029db0       0x20 /usr/local/xenon/xenon/lib/32/libc.a(lib_a-dtoa.o)
                                         0x24 (size before relaxing)
 .rodata.cst8   0x0000000080029dd0       0x18 /usr/local/xenon/xenon/lib/32/libc.a(lib_a-dtoa.o)
 .rodata.str1.4
                0x0000000080029de8       0x10 /usr/local/xenon/xenon/lib/32/libc.a(lib_a-dtoa.o)
                                         0x12 (size before relaxing)
 .rodata.str1.4
                0x0000000080029df8       0x10 /usr/local/xenon/xenon/lib/32/libc.a(lib_a-locale.o)
                                         0x17 (size before relaxing)
 .rodata        0x0000000080029e08      0x128 /usr/local/xenon/xenon/lib/32/libc.a(lib_a-mprec.o)
                0x0000000080029e18                __mprec_tens
                0x0000000080029ee0                __mprec_bigtens
                0x0000000080029f08                __mprec_tinytens
 .rodata.cst4   0x0000000000000000        0x8 /usr/local/xenon/xenon/lib/32/libc.a(lib_a-mprec.o)

.ctors          0x0000000080029f30        0x0
                0x0000000080029f30                __CTOR_LIST__ = .
 *(.ctors)
                0x0000000080029f30                __CTOR_END__ = .

.dtors          0x0000000080029f30        0x0
                0x0000000080029f30                __DTOR_LIST__ = .
 *(.dtors)
                0x0000000080029f30                __DTOR_END__ = .

.eh_frame_hdr   0x0000000080029f30      0xcdc
 *(.eh_frame_hdr)
 .eh_frame_hdr  0x0000000080029f30      0xcdc /usr/local/xenon/lib/gcc/xenon/4.4.0/../../../../xenon/lib/../lib/crt1.o

.eh_frame       0x000000008002ac0c     0x34a8
 *(.eh_frame)
 .eh_frame      0x000000008002ac0c       0x38 /usr/local/xenon/lib/gcc/xenon/4.4.0/../../../../xenon/lib/../lib/crt1.o
 .eh_frame      0x000000008002ac44        0x0 /usr/local/xenon/lib/gcc/xenon/4.4.0/32/crtbegin.o
 .eh_frame      0x000000008002ac44       0x4c main.o
                                         0x60 (size before relaxing)
 .eh_frame      0x000000008002ac90       0xa8 /usr/local/xenon/usr/lib/libxenon.a(console.o)
                                         0xf8 (size before relaxing)
 .eh_frame      0x000000008002ad38      0x198 /usr/local/xenon/usr/lib/libxenon.a(newlib.o)
                                        0x250 (size before relaxing)
 .eh_frame      0x000000008002aed0       0x5c /usr/local/xenon/usr/lib/libxenon.a(usbmain.o)
                                         0x70 (size before relaxing)
 .eh_frame      0x000000008002af2c      0x670 /usr/local/xenon/usr/lib/libxenon.a(tinyehci.o)
                                        0x808 (size before relaxing)
 .eh_frame      0x000000008002b59c       0x20 /usr/local/xenon/usr/lib/libxenon.a(xenon_uart.o)
                                         0x5c (size before relaxing)
 .eh_frame      0x000000008002b5bc      0x1a0 /usr/local/xenon/usr/lib/libxenon.a(xenos.o)
                                        0x1b4 (size before relaxing)
 .eh_frame      0x000000008002b75c       0x40 /usr/local/xenon/usr/lib/libxenon.a(diskio.o)
                                         0xd0 (size before relaxing)
 .eh_frame      0x000000008002b79c      0x12c /usr/local/xenon/usr/lib/libxenon.a(fat.o)
                                        0x140 (size before relaxing)
 .eh_frame      0x000000008002b8c8      0x430 /usr/local/xenon/usr/lib/libxenon.a(fat_rb.o)
                                        0x560 (size before relaxing)
 .eh_frame      0x000000008002bcf8      0x160 /usr/local/xenon/usr/lib/libxenon.a(file_rb.o)
                                        0x1d4 (size before relaxing)
 .eh_frame      0x000000008002be58       0x64 /usr/local/xenon/usr/lib/libxenon.a(dir_rb.o)
                                         0xd4 (size before relaxing)
 .eh_frame      0x000000008002bebc      0x234 /usr/local/xenon/usr/lib/libxenon.a(iso9660.o)
                                        0x248 (size before relaxing)
 .eh_frame      0x000000008002c0f0       0x5c /usr/local/xenon/usr/lib/libxenon.a(lib_malloc.o)
                                         0xc0 (size before relaxing)
 .eh_frame      0x000000008002c14c       0x50 /usr/local/xenon/usr/lib/libxenon.a(io.o)
                                         0x64 (size before relaxing)
 .eh_frame      0x000000008002c19c       0x3c /usr/local/xenon/usr/lib/libxenon.a(time.o)
                                         0x50 (size before relaxing)
 .eh_frame      0x000000008002c1d8      0x1d4 /usr/local/xenon/usr/lib/libxenon.a(ohci.o)
                                        0x1e8 (size before relaxing)
 .eh_frame      0x000000008002c3ac      0x358 /usr/local/xenon/usr/lib/libxenon.a(usbd.o)
                                        0x3bc (size before relaxing)
 .eh_frame      0x000000008002c704       0x24 /usr/local/xenon/usr/lib/libxenon.a(usbdevs.o)
                                         0x38 (size before relaxing)
 .eh_frame      0x000000008002c728       0x7c /usr/local/xenon/usr/lib/libxenon.a(usbhid.o)
                                         0x90 (size before relaxing)
 .eh_frame      0x000000008002c7a4      0x144 /usr/local/xenon/usr/lib/libxenon.a(usbhub.o)
                                        0x190 (size before relaxing)
 .eh_frame      0x000000008002c8e8      0x12c /usr/local/xenon/usr/lib/libxenon.a(usb_os.o)
                                        0x140 (size before relaxing)
 .eh_frame      0x000000008002ca14       0x3c /usr/local/xenon/usr/lib/libxenon.a(unicode_rb.o)
                                         0xac (size before relaxing)
 .eh_frame      0x000000008002ca50       0x48 /usr/local/xenon/usr/lib/libxenon.a(xenon_gpio.o)
                                         0x7c (size before relaxing)
 .eh_frame      0x000000008002ca98       0xf0 /usr/local/xenon/usr/lib/libxenon.a(xenon_smc.o)
                                        0x1bc (size before relaxing)
 .eh_frame      0x000000008002cb88       0x34 /usr/local/xenon/usr/lib/libxenon.a(xenon_config.o)
                                         0x70 (size before relaxing)
 .eh_frame      0x000000008002cbbc       0xa0 /usr/local/xenon/usr/lib/libxenon.a(disk_rb.o)
                                         0xf4 (size before relaxing)
 .eh_frame      0x000000008002cc5c       0x28 /usr/local/xenon/usr/lib/libxenon.a(lib_queue.o)
                                         0xa0 (size before relaxing)
 .eh_frame      0x000000008002cc84       0x60 /usr/local/xenon/usr/lib/libxenon.a(usbctrl.o)
                                         0x74 (size before relaxing)
 .eh_frame      0x000000008002cce4       0x94 /usr/local/xenon/usr/lib/libxenon.a(usbdebug.o)
                                        0x104 (size before relaxing)
 .eh_frame      0x000000008002cd78       0x70 /usr/local/xenon/usr/lib/libxenon.a(xenon_sfcx.o)
                                        0x1e8 (size before relaxing)
 .eh_frame      0x000000008002cde8       0x20 /usr/local/xenon/usr/lib/libxenon.a(input.o)
                                         0x50 (size before relaxing)
 .eh_frame      0x000000008002ce08       0x38 /usr/local/xenon/xenon/lib/32/libc.a(lib_a-assert.o)
                                         0x4c (size before relaxing)
 .eh_frame      0x000000008002ce40       0x30 /usr/local/xenon/xenon/lib/32/libc.a(lib_a-atoi.o)
                                         0x44 (size before relaxing)
 .eh_frame      0x000000008002ce70       0x20 /usr/local/xenon/xenon/lib/32/libc.a(lib_a-errno.o)
                                         0x34 (size before relaxing)
 .eh_frame      0x000000008002ce90       0x24 /usr/local/xenon/xenon/lib/32/libc.a(lib_a-exit.o)
                                         0x38 (size before relaxing)
 .eh_frame      0x000000008002ceb4       0x38 /usr/local/xenon/xenon/lib/32/libc.a(lib_a-fiprintf.o)
                                         0x4c (size before relaxing)
 .eh_frame      0x000000008002ceec       0x48 /usr/local/xenon/xenon/lib/32/libc.a(lib_a-fopen.o)
                                         0x5c (size before relaxing)
 .eh_frame      0x000000008002cf34       0x38 /usr/local/xenon/xenon/lib/32/libc.a(lib_a-fprintf.o)
                                         0x4c (size before relaxing)
 .eh_frame      0x000000008002cf6c       0x54 /usr/local/xenon/xenon/lib/32/libc.a(lib_a-fseek.o)
                                         0x68 (size before relaxing)
 .eh_frame      0x000000008002cfc0       0x24 /usr/local/xenon/xenon/lib/32/libc.a(lib_a-fstatr.o)
                                         0x38 (size before relaxing)
 .eh_frame      0x000000008002cfe4       0x28 /usr/local/xenon/xenon/lib/32/libc.a(lib_a-makebuf.o)
                                         0x3c (size before relaxing)
 .eh_frame      0x000000008002d00c       0x40 /usr/local/xenon/xenon/lib/32/libc.a(lib_a-malloc.o)
                                         0x54 (size before relaxing)
 .eh_frame      0x000000008002d04c       0x34 /usr/local/xenon/xenon/lib/32/libc.a(lib_a-mallocr.o)
                                         0x48 (size before relaxing)
 .eh_frame      0x000000008002d080       0x1c /usr/local/xenon/xenon/lib/32/libc.a(lib_a-memchr.o)
                                         0x30 (size before relaxing)
 .eh_frame      0x000000008002d09c       0x1c /usr/local/xenon/xenon/lib/32/libc.a(lib_a-memcmp.o)
                                         0x30 (size before relaxing)
 .eh_frame      0x000000008002d0b8       0x1c /usr/local/xenon/xenon/lib/32/libc.a(lib_a-memcpy.o)
                                         0x30 (size before relaxing)
 .eh_frame      0x000000008002d0d4       0x1c /usr/local/xenon/xenon/lib/32/libc.a(lib_a-memset.o)
                                         0x30 (size before relaxing)
 .eh_frame      0x000000008002d0f0       0x28 /usr/local/xenon/xenon/lib/32/libc.a(lib_a-mlock.o)
                                         0x3c (size before relaxing)
 .eh_frame      0x000000008002d118       0x24 /usr/local/xenon/xenon/lib/32/libc.a(lib_a-openr.o)
                                         0x38 (size before relaxing)
 .eh_frame      0x000000008002d13c       0x38 /usr/local/xenon/xenon/lib/32/libc.a(lib_a-printf.o)
                                         0x4c (size before relaxing)
 .eh_frame      0x000000008002d174       0x38 /usr/local/xenon/xenon/lib/32/libc.a(lib_a-putchar.o)
                                         0x4c (size before relaxing)
 .eh_frame      0x000000008002d1ac       0x48 /usr/local/xenon/xenon/lib/32/libc.a(lib_a-putc.o)
                                         0x5c (size before relaxing)
 .eh_frame      0x000000008002d1f4       0x44 /usr/local/xenon/xenon/lib/32/libc.a(lib_a-puts.o)
                                         0x58 (size before relaxing)
 .eh_frame      0x000000008002d238        0x0 /usr/local/xenon/xenon/lib/32/libc.a(lib_a-reent.o)
                                         0x84 (size before relaxing)
 .eh_frame      0x000000008002d238       0x3c /usr/local/xenon/xenon/lib/32/libc.a(lib_a-refill.o)
                                         0x50 (size before relaxing)
 .eh_frame      0x000000008002d274       0x24 /usr/local/xenon/xenon/lib/32/libc.a(lib_a-sbrkr.o)
                                         0x38 (size before relaxing)
 .eh_frame      0x000000008002d298       0x50 /usr/local/xenon/xenon/lib/32/libc.a(lib_a-snprintf.o)
                                         0x64 (size before relaxing)
 .eh_frame      0x000000008002d2e8        0x0 /usr/local/xenon/xenon/lib/32/libc.a(lib_a-sprintf.o)
                                         0x54 (size before relaxing)
 .eh_frame      0x000000008002d2e8       0x74 /usr/local/xenon/xenon/lib/32/libc.a(lib_a-stdio.o)
                                         0x88 (size before relaxing)
 .eh_frame      0x000000008002d35c       0x1c /usr/local/xenon/xenon/lib/32/libc.a(lib_a-strcasecmp.o)
                                         0x30 (size before relaxing)
 .eh_frame      0x000000008002d378       0x20 /usr/local/xenon/xenon/lib/32/libc.a(lib_a-strcat.o)
                                         0x34 (size before relaxing)
 .eh_frame      0x000000008002d398       0x1c /usr/local/xenon/xenon/lib/32/libc.a(lib_a-strchr.o)
                                         0x30 (size before relaxing)
 .eh_frame      0x000000008002d3b4       0x1c /usr/local/xenon/xenon/lib/32/libc.a(lib_a-strcmp.o)
                                         0x30 (size before relaxing)
 .eh_frame      0x000000008002d3d0       0x1c /usr/local/xenon/xenon/lib/32/libc.a(lib_a-strcpy.o)
                                         0x30 (size before relaxing)
 .eh_frame      0x000000008002d3ec       0x1c /usr/local/xenon/xenon/lib/32/libc.a(lib_a-strlcpy.o)
                                         0x30 (size before relaxing)
 .eh_frame      0x000000008002d408       0x1c /usr/local/xenon/xenon/lib/32/libc.a(lib_a-strlen.o)
                                         0x30 (size before relaxing)
 .eh_frame      0x000000008002d424       0x28 /usr/local/xenon/xenon/lib/32/libc.a(lib_a-strncasecmp.o)
                                         0x3c (size before relaxing)
 .eh_frame      0x000000008002d44c       0x1c /usr/local/xenon/xenon/lib/32/libc.a(lib_a-strncmp.o)
                                         0x30 (size before relaxing)
 .eh_frame      0x000000008002d468       0x1c /usr/local/xenon/xenon/lib/32/libc.a(lib_a-strncpy.o)
                                         0x30 (size before relaxing)
 .eh_frame      0x000000008002d484       0x20 /usr/local/xenon/xenon/lib/32/libc.a(lib_a-strrchr.o)
                                         0x34 (size before relaxing)
 .eh_frame      0x000000008002d4a4       0x34 /usr/local/xenon/xenon/lib/32/libc.a(lib_a-strtok_r.o)
                                         0x48 (size before relaxing)
 .eh_frame      0x000000008002d4d8       0x50 /usr/local/xenon/xenon/lib/32/libc.a(lib_a-strtol.o)
                                         0x64 (size before relaxing)
 .eh_frame      0x000000008002d528       0x84 /usr/local/xenon/xenon/lib/32/libc.a(lib_a-svfprintf.o)
                                         0x98 (size before relaxing)
 .eh_frame      0x000000008002d5ac       0x88 /usr/local/xenon/xenon/lib/32/libc.a(lib_a-vfiprintf.o)
                                         0x9c (size before relaxing)
 .eh_frame      0x000000008002d634       0x8c /usr/local/xenon/xenon/lib/32/libc.a(lib_a-vfprintf.o)
                                         0xa0 (size before relaxing)
 .eh_frame      0x000000008002d6c0       0x48 /usr/local/xenon/xenon/lib/32/libc.a(lib_a-wbuf.o)
                                         0x5c (size before relaxing)
 .eh_frame      0x000000008002d708       0x24 /usr/local/xenon/xenon/lib/32/libc.a(lib_a-writer.o)
                                         0x38 (size before relaxing)
 .eh_frame      0x000000008002d72c       0x24 /usr/local/xenon/xenon/lib/32/libc.a(lib_a-wsetup.o)
                                         0x38 (size before relaxing)
 .eh_frame      0x000000008002d750       0x18 /usr/local/xenon/xenon/lib/32/libc.a(lib_a-abort.o)
                                         0x2c (size before relaxing)
 .eh_frame      0x000000008002d768       0x40 /usr/local/xenon/xenon/lib/32/libc.a(lib_a-__call_atexit.o)
                                         0x54 (size before relaxing)
 .eh_frame      0x000000008002d7a8       0x24 /usr/local/xenon/xenon/lib/32/libc.a(lib_a-closer.o)
                                         0x38 (size before relaxing)
 .eh_frame      0x000000008002d7cc       0x80 /usr/local/xenon/xenon/lib/32/libc.a(lib_a-dtoa.o)
                                         0x94 (size before relaxing)
 .eh_frame      0x000000008002d84c       0x48 /usr/local/xenon/xenon/lib/32/libc.a(lib_a-fflush.o)
                                         0x5c (size before relaxing)
 .eh_frame      0x000000008002d894      0x190 /usr/local/xenon/xenon/lib/32/libc.a(lib_a-findfp.o)
                                        0x1a4 (size before relaxing)
 .eh_frame      0x000000008002da24       0x14 /usr/local/xenon/xenon/lib/32/libc.a(lib_a-flags.o)
                                         0x28 (size before relaxing)
 .eh_frame      0x000000008002da38       0x4c /usr/local/xenon/xenon/lib/32/libc.a(lib_a-freer.o)
                                         0x60 (size before relaxing)
 .eh_frame      0x000000008002da84       0x34 /usr/local/xenon/xenon/lib/32/libc.a(lib_a-fvwrite.o)
                                         0x48 (size before relaxing)
 .eh_frame      0x000000008002dab8       0x54 /usr/local/xenon/xenon/lib/32/libc.a(lib_a-fwalk.o)
                                         0x68 (size before relaxing)
 .eh_frame      0x000000008002db0c       0x24 /usr/local/xenon/xenon/lib/32/libc.a(lib_a-isattyr.o)
                                         0x38 (size before relaxing)
 .eh_frame      0x000000008002db30       0xa8 /usr/local/xenon/xenon/lib/32/libc.a(lib_a-locale.o)
                                         0xbc (size before relaxing)
 .eh_frame      0x000000008002dbd8       0x24 /usr/local/xenon/xenon/lib/32/libc.a(lib_a-lseekr.o)
                                         0x38 (size before relaxing)
 .eh_frame      0x000000008002dbfc       0x1c /usr/local/xenon/xenon/lib/32/libc.a(lib_a-memmove.o)
                                         0x30 (size before relaxing)
 .eh_frame      0x000000008002dc18      0x270 /usr/local/xenon/xenon/lib/32/libc.a(lib_a-mprec.o)
                                        0x284 (size before relaxing)
 .eh_frame      0x000000008002de88       0x24 /usr/local/xenon/xenon/lib/32/libc.a(lib_a-readr.o)
                                         0x38 (size before relaxing)
 .eh_frame      0x000000008002deac       0x38 /usr/local/xenon/xenon/lib/32/libc.a(lib_a-reallocr.o)
                                         0x4c (size before relaxing)
 .eh_frame      0x000000008002dee4      0x104 /usr/local/xenon/xenon/lib/32/libc.a(lib_a-signal.o)
                                        0x118 (size before relaxing)
 .eh_frame      0x000000008002dfe8       0x3c /usr/local/xenon/xenon/lib/32/libc.a(lib_a-signalr.o)
                                         0x50 (size before relaxing)
 .eh_frame      0x000000008002e024       0x14 /usr/local/xenon/xenon/lib/32/libc.a(lib_a-s_isinfd.o)
                                         0x28 (size before relaxing)
 .eh_frame      0x000000008002e038       0x14 /usr/local/xenon/xenon/lib/32/libc.a(lib_a-s_isnand.o)
                                         0x28 (size before relaxing)
 .eh_frame      0x000000008002e04c       0x1c /usr/local/xenon/xenon/lib/32/libc.a(lib_a-callocr.o)
                                         0x30 (size before relaxing)
 .eh_frame      0x000000008002e068       0x48 /usr/local/xenon/xenon/lib/32/libc.a(lib_a-fclose.o)
                                         0x5c (size before relaxing)
 .eh_frame      0x000000008002e0b0        0x4 /usr/local/xenon/lib/gcc/xenon/4.4.0/32/crtend.o

.rela.dyn       0x000000008002e0b4        0x0
 .rela.iplt     0x0000000000000000        0x0 /usr/local/xenon/lib/gcc/xenon/4.4.0/../../../../xenon/lib/../lib/crt1.o
 .rela.text.call_ctors
                0x0000000000000000        0x0 /usr/local/xenon/lib/gcc/xenon/4.4.0/../../../../xenon/lib/../lib/crt1.o
 .rela.got2     0x0000000000000000        0x0 /usr/local/xenon/lib/gcc/xenon/4.4.0/../../../../xenon/lib/../lib/crt1.o
 .rela.text     0x0000000000000000        0x0 /usr/local/xenon/lib/gcc/xenon/4.4.0/../../../../xenon/lib/../lib/crt1.o
 .rela.text.console_close
                0x0000000000000000        0x0 /usr/local/xenon/lib/gcc/xenon/4.4.0/../../../../xenon/lib/../lib/crt1.o
 .rela.text.console_init
                0x0000000000000000        0x0 /usr/local/xenon/lib/gcc/xenon/4.4.0/../../../../xenon/lib/../lib/crt1.o
 .rela.text.sbrk
                0x0000000000000000        0x0 /usr/local/xenon/lib/gcc/xenon/4.4.0/../../../../xenon/lib/../lib/crt1.o
 .rela.text.usb_do_poll
                0x0000000000000000        0x0 /usr/local/xenon/lib/gcc/xenon/4.4.0/../../../../xenon/lib/../lib/crt1.o
 .rela.text.usb_init_one_ohci
                0x0000000000000000        0x0 /usr/local/xenon/lib/gcc/xenon/4.4.0/../../../../xenon/lib/../lib/crt1.o
 .rela.text.USBStorage_Init
                0x0000000000000000        0x0 /usr/local/xenon/lib/gcc/xenon/4.4.0/../../../../xenon/lib/../lib/crt1.o
 .rela.text.EHCI_do_one
                0x0000000000000000        0x0 /usr/local/xenon/lib/gcc/xenon/4.4.0/../../../../xenon/lib/../lib/crt1.o
 .rela.text.bdev_enum
                0x0000000000000000        0x0 /usr/local/xenon/lib/gcc/xenon/4.4.0/../../../../xenon/lib/../lib/crt1.o
 .rela.text.bdev_open
                0x0000000000000000        0x0 /usr/local/xenon/lib/gcc/xenon/4.4.0/../../../../xenon/lib/../lib/crt1.o
 .rela.text.determine_filesystem
                0x0000000000000000        0x0 /usr/local/xenon/lib/gcc/xenon/4.4.0/../../../../xenon/lib/../lib/crt1.o
 .rela.text.register_bdev
                0x0000000000000000        0x0 /usr/local/xenon/lib/gcc/xenon/4.4.0/../../../../xenon/lib/../lib/crt1.o
 .rela.text.fat_init
                0x0000000000000000        0x0 /usr/local/xenon/lib/gcc/xenon/4.4.0/../../../../xenon/lib/../lib/crt1.o
 .rela.text.fat_lock
                0x0000000000000000        0x0 /usr/local/xenon/lib/gcc/xenon/4.4.0/../../../../xenon/lib/../lib/crt1.o
 .rela.text.fat_unlock
                0x0000000000000000        0x0 /usr/local/xenon/lib/gcc/xenon/4.4.0/../../../../xenon/lib/../lib/crt1.o
 .rela.text.cache_fat_sector
                0x0000000000000000        0x0 /usr/local/xenon/lib/gcc/xenon/4.4.0/../../../../xenon/lib/../lib/crt1.o
 .rela.text.flush_fat
                0x0000000000000000        0x0 /usr/local/xenon/lib/gcc/xenon/4.4.0/../../../../xenon/lib/../lib/crt1.o
 .rela.text.fat_unmount
                0x0000000000000000        0x0 /usr/local/xenon/lib/gcc/xenon/4.4.0/../../../../xenon/lib/../lib/crt1.o
 .rela.text.fat_getnext
                0x0000000000000000        0x0 /usr/local/xenon/lib/gcc/xenon/4.4.0/../../../../xenon/lib/../lib/crt1.o
 .rela.text.char2dos
                0x0000000000000000        0x0 /usr/local/xenon/lib/gcc/xenon/4.4.0/../../../../xenon/lib/../lib/crt1.o
 .rela.text._iso9660_readdir
                0x0000000000000000        0x0 /usr/local/xenon/lib/gcc/xenon/4.4.0/../../../../xenon/lib/../lib/crt1.o
 .rela.text.find_object
                0x0000000000000000        0x0 /usr/local/xenon/lib/gcc/xenon/4.4.0/../../../../xenon/lib/../lib/crt1.o
 .rela.text.kmem_init
                0x0000000000000000        0x0 /usr/local/xenon/lib/gcc/xenon/4.4.0/../../../../xenon/lib/../lib/crt1.o
 .rela.text._ohci_dma_alloc
                0x0000000000000000        0x0 /usr/local/xenon/lib/gcc/xenon/4.4.0/../../../../xenon/lib/../lib/crt1.o
 .rela.text.ohci_create
                0x0000000000000000        0x0 /usr/local/xenon/lib/gcc/xenon/4.4.0/../../../../xenon/lib/../lib/crt1.o
 .rela.text.usb_create_pipe
                0x0000000000000000        0x0 /usr/local/xenon/lib/gcc/xenon/4.4.0/../../../../xenon/lib/../lib/crt1.o
 .rela.text.usb_free_request
                0x0000000000000000        0x0 /usr/local/xenon/lib/gcc/xenon/4.4.0/../../../../xenon/lib/../lib/crt1.o
 .rela.text.usb_destroy_all_pipes
                0x0000000000000000        0x0 /usr/local/xenon/lib/gcc/xenon/4.4.0/../../../../xenon/lib/../lib/crt1.o
 .rela.text.usb_destroy_device
                0x0000000000000000        0x0 /usr/local/xenon/lib/gcc/xenon/4.4.0/../../../../xenon/lib/../lib/crt1.o
 .rela.text.usb_destroy_pipe
                0x0000000000000000        0x0 /usr/local/xenon/lib/gcc/xenon/4.4.0/../../../../xenon/lib/../lib/crt1.o
 .rela.text.usb_make_request
                0x0000000000000000        0x0 /usr/local/xenon/lib/gcc/xenon/4.4.0/../../../../xenon/lib/../lib/crt1.o
 .rela.text.usb_clear_stall
                0x0000000000000000        0x0 /usr/local/xenon/lib/gcc/xenon/4.4.0/../../../../xenon/lib/../lib/crt1.o
 .rela.text.usb_std_request
                0x0000000000000000        0x0 /usr/local/xenon/lib/gcc/xenon/4.4.0/../../../../xenon/lib/../lib/crt1.o
 .rela.text.usb_get_string
                0x0000000000000000        0x0 /usr/local/xenon/lib/gcc/xenon/4.4.0/../../../../xenon/lib/../lib/crt1.o
 .rela.text.usb_get_config_descriptor
                0x0000000000000000        0x0 /usr/local/xenon/lib/gcc/xenon/4.4.0/../../../../xenon/lib/../lib/crt1.o
 .rela.text.usb_get_device_descriptor
                0x0000000000000000        0x0 /usr/local/xenon/lib/gcc/xenon/4.4.0/../../../../xenon/lib/../lib/crt1.o
 .rela.text.usb_create_device
                0x0000000000000000        0x0 /usr/local/xenon/lib/gcc/xenon/4.4.0/../../../../xenon/lib/../lib/crt1.o
 .rela.text.usb_initroot
                0x0000000000000000        0x0 /usr/local/xenon/lib/gcc/xenon/4.4.0/../../../../xenon/lib/../lib/crt1.o
 .rela.data.usb_drivers
                0x0000000000000000        0x0 /usr/local/xenon/lib/gcc/xenon/4.4.0/../../../../xenon/lib/../lib/crt1.o
 .rela.text.usbhid_attach
                0x0000000000000000        0x0 /usr/local/xenon/lib/gcc/xenon/4.4.0/../../../../xenon/lib/../lib/crt1.o
 .rela.text.usbhub_detach
                0x0000000000000000        0x0 /usr/local/xenon/lib/gcc/xenon/4.4.0/../../../../xenon/lib/../lib/crt1.o
 .rela.text.usbhub_scan1
                0x0000000000000000        0x0 /usr/local/xenon/lib/gcc/xenon/4.4.0/../../../../xenon/lib/../lib/crt1.o
 .rela.text.usbhub_attach
                0x0000000000000000        0x0 /usr/local/xenon/lib/gcc/xenon/4.4.0/../../../../xenon/lib/../lib/crt1.o
 .rela.text.xenon_config_init
                0x0000000000000000        0x0 /usr/local/xenon/lib/gcc/xenon/4.4.0/../../../../xenon/lib/../lib/crt1.o
 .rela.text.storage_write_sectors
                0x0000000000000000        0x0 /usr/local/xenon/lib/gcc/xenon/4.4.0/../../../../xenon/lib/../lib/crt1.o
 .rela.text.storage_read_sectors
                0x0000000000000000        0x0 /usr/local/xenon/lib/gcc/xenon/4.4.0/../../../../xenon/lib/../lib/crt1.o
 .rela.text.usbctrl_attach
                0x0000000000000000        0x0 /usr/local/xenon/lib/gcc/xenon/4.4.0/../../../../xenon/lib/../lib/crt1.o

.gcc_except_table
 *(.gcc_except_table .gcc_except_table.*)
                0x000000008002e0b4                bss_start = .

.bss            0x000000008002e0c0   0x251e3c
 *(.bss*)
 .bss.console_size
                0x000000008002e0c0        0x4 /usr/local/xenon/usr/lib/libxenon.a(console.o)
 .bss.offset_x  0x000000008002e0c4        0x4 /usr/local/xenon/usr/lib/libxenon.a(console.o)
 .bss.console_width
                0x000000008002e0c8        0x4 /usr/local/xenon/usr/lib/libxenon.a(console.o)
 .bss.offset_y  0x000000008002e0cc        0x4 /usr/local/xenon/usr/lib/libxenon.a(console.o)
 .bss.console_fb
                0x000000008002e0d0        0x4 /usr/local/xenon/usr/lib/libxenon.a(console.o)
 .bss.console_height
                0x000000008002e0d4        0x4 /usr/local/xenon/usr/lib/libxenon.a(console.o)
 .bss.max_x     0x000000008002e0d8        0x4 /usr/local/xenon/usr/lib/libxenon.a(console.o)
 .bss.max_y     0x000000008002e0dc        0x4 /usr/local/xenon/usr/lib/libxenon.a(console.o)
 .bss.cursor_x  0x000000008002e0e0        0x4 /usr/local/xenon/usr/lib/libxenon.a(console.o)
 .bss.cursor_y  0x000000008002e0e4        0x4 /usr/local/xenon/usr/lib/libxenon.a(console.o)
 .bss.initdone.3674
                0x000000008002e0e8        0x4 /usr/local/xenon/usr/lib/libxenon.a(usbmain.o)
 .bss.in_poll.3640
                0x000000008002e0ec        0x4 /usr/local/xenon/usr/lib/libxenon.a(usbmain.o)
 .bss.__bdev    0x000000008002e0f0        0x4 /usr/local/xenon/usr/lib/libxenon.a(tinyehci.o)
 .bss.ums_init_done
                0x000000008002e0f4        0x4 /usr/local/xenon/usr/lib/libxenon.a(tinyehci.o)
 .bss.__mounted
                0x000000008002e0f8        0x1 /usr/local/xenon/usr/lib/libxenon.a(tinyehci.o)
 *fill*         0x000000008002e0f9        0x3 00
 .bss.__ehci    0x000000008002e0fc        0x4 /usr/local/xenon/usr/lib/libxenon.a(tinyehci.o)
 .bss.udd.5093  0x000000008002e100       0x16 /usr/local/xenon/usr/lib/libxenon.a(tinyehci.o)
 .bss._old_udd  0x000000008002e116       0x16 /usr/local/xenon/usr/lib/libxenon.a(tinyehci.o)
 .bss.__vid     0x000000008002e12c        0x2 /usr/local/xenon/usr/lib/libxenon.a(tinyehci.o)
 *fill*         0x000000008002e12e        0x2 00
 .bss.__usbfd   0x000000008002e130       0xa4 /usr/local/xenon/usr/lib/libxenon.a(tinyehci.o)
 .bss.__pid     0x000000008002e1d4        0x2 /usr/local/xenon/usr/lib/libxenon.a(tinyehci.o)
 *fill*         0x000000008002e1d6        0x2 00
 .bss.xenos_current_mode
                0x000000008002e1d8        0x4 /usr/local/xenon/usr/lib/libxenon.a(xenos.o)
 .bss.fat_cache_sectors
                0x000000008002e1dc     0x4000 /usr/local/xenon/usr/lib/libxenon.a(fat_rb.o)
 .bss.fat_bpbs  0x00000000800321dc      0x640 /usr/local/xenon/usr/lib/libxenon.a(fat_rb.o)
 .bss.initialized
                0x000000008003281c        0x1 /usr/local/xenon/usr/lib/libxenon.a(fat_rb.o)
 *fill*         0x000000008003281d        0x3 00
 .bss.fat_cache
                0x0000000080032820      0x180 /usr/local/xenon/usr/lib/libxenon.a(fat_rb.o)
 .bss.openfiles
                0x00000000800329a0     0x8f00 /usr/local/xenon/usr/lib/libxenon.a(file_rb.o)
 .bss.opendirs  0x000000008003b8a0     0x2ae0 /usr/local/xenon/usr/lib/libxenon.a(dir_rb.o)
 .bss.fh_mutex  0x000000008003e380        0x4 /usr/local/xenon/usr/lib/libxenon.a(iso9660.o)
 .bss.joliet    0x000000008003e384        0x4 /usr/local/xenon/usr/lib/libxenon.a(iso9660.o)
 .bss.icache    0x000000008003e388       0x40 /usr/local/xenon/usr/lib/libxenon.a(iso9660.o)
 .bss.percd_done
                0x000000008003e3c8        0x4 /usr/local/xenon/usr/lib/libxenon.a(iso9660.o)
 .bss.dcache    0x000000008003e3cc       0x40 /usr/local/xenon/usr/lib/libxenon.a(iso9660.o)
 .bss.iso9660_dev
                0x000000008003e40c        0x4 /usr/local/xenon/usr/lib/libxenon.a(iso9660.o)
 .bss.root_size
                0x000000008003e410        0x4 /usr/local/xenon/usr/lib/libxenon.a(iso9660.o)
 .bss.root_dirent
                0x000000008003e414       0x22 /usr/local/xenon/usr/lib/libxenon.a(iso9660.o)
 *fill*         0x000000008003e436        0x2 00
 .bss.cache_mutex
                0x000000008003e438        0x4 /usr/local/xenon/usr/lib/libxenon.a(iso9660.o)
 .bss.fh        0x000000008003e43c      0x940 /usr/local/xenon/usr/lib/libxenon.a(iso9660.o)
 .bss.root_extent
                0x000000008003ed7c        0x4 /usr/local/xenon/usr/lib/libxenon.a(iso9660.o)
 .bss.kmem_init_done
                0x000000008003ed80        0x4 /usr/local/xenon/usr/lib/libxenon.a(lib_malloc.o)
 *fill*         0x000000008003ed84        0x4 00
 .bss.heap      0x000000008003ed88   0x100000 /usr/local/xenon/usr/lib/libxenon.a(lib_malloc.o)
 .bss.aligned_mem
                0x000000008013ed88        0x4 /usr/local/xenon/usr/lib/libxenon.a(usb_os.o)
 .bss.aligned_base
                0x000000008013ed8c        0x4 /usr/local/xenon/usr/lib/libxenon.a(usb_os.o)
 *fill*         0x000000008013ed90       0x10 00
 .bss.heapspace
                0x000000008013eda0    0x40000 /usr/local/xenon/usr/lib/libxenon.a(usb_os.o)
 .bss.sfcx_page
                0x000000008017eda0      0x210 /usr/local/xenon/usr/lib/libxenon.a(xenon_config.o)
 .bss.secured_settings
                0x000000008017efb0      0x208 /usr/local/xenon/usr/lib/libxenon.a(xenon_config.o)
                0x000000008017efb0                secured_settings
 .bss.xenon_config_initialized
                0x000000008017f1b8        0x4 /usr/local/xenon/usr/lib/libxenon.a(xenon_config.o)
 .bss.part      0x000000008017f1bc      0x300 /usr/local/xenon/usr/lib/libxenon.a(disk_rb.o)
 *fill*         0x000000008017f4bc        0x4 00
 .bss.block_cache_lba
                0x000000008017f4c0       0x80 /usr/local/xenon/usr/lib/libxenon.a(disk_rb.o)
 .bss.block_cache
                0x000000008017f540   0x100000 /usr/local/xenon/usr/lib/libxenon.a(disk_rb.o)
 .bss.vol_drive
                0x000000008027f540       0x40 /usr/local/xenon/usr/lib/libxenon.a(disk_rb.o)
 .bss.controller_mask
                0x000000008027f580        0x4 /usr/local/xenon/usr/lib/libxenon.a(usbctrl.o)
 *fill*         0x000000008027f584        0x4 00
 .bss.buf.3306  0x000000008027f588      0x100 /usr/local/xenon/usr/lib/libxenon.a(usbdebug.o)
 .bss.sfc       0x000000008027f688       0x44 /usr/local/xenon/usr/lib/libxenon.a(xenon_sfcx.o)
                0x000000008027f688                sfc
 .bss.valid     0x000000008027f6cc       0x10 /usr/local/xenon/usr/lib/libxenon.a(input.o)
 .bss.ctrl      0x000000008027f6dc      0x120 /usr/local/xenon/usr/lib/libxenon.a(input.o)
 .bss           0x000000008027f7fc       0x28 /usr/local/xenon/xenon/lib/32/libc.a(lib_a-mallocr.o)
                0x000000008027f7fc                __malloc_current_mallinfo
 COMMON         0x000000008027f824       0x10 /usr/local/xenon/usr/lib/libxenon.a(usbmain.o)
                0x000000008027f824                usb_buses
 COMMON         0x000000008027f834      0x338 /usr/local/xenon/usr/lib/libxenon.a(tinyehci.o)
                0x000000008027f834                ehci_hcds
 *fill*         0x000000008027fb6c        0x4 00
 COMMON         0x000000008027fb70      0x380 /usr/local/xenon/usr/lib/libxenon.a(diskio.o)
                0x000000008027fb70                devices
 COMMON         0x000000008027fef0        0xc /usr/local/xenon/usr/lib/libxenon.a(lib_malloc.o)
                0x000000008027fef0                kmempool

.iplt           0x000000008027ff00        0x0 load address 0x000000008027fefc
 .iplt          0x0000000000000000        0x0 /usr/local/xenon/lib/gcc/xenon/4.4.0/../../../../xenon/lib/../lib/crt1.o

.sbss           0x000000008027fefc       0x38
 *(.sbss*)
 .sbss          0x0000000000000000        0x0 /usr/local/xenon/lib/gcc/xenon/4.4.0/../../../../xenon/lib/../lib/crt1.o
 .sbss.stdout_hook
                0x000000008027fefc        0x4 /usr/local/xenon/usr/lib/libxenon.a(newlib.o)
                0x000000008027fefc                stdout_hook
 .sbss          0x000000008027ff00        0x4 /usr/local/xenon/usr/lib/libxenon.a(newlib.o)
                0x000000008027ff00                heap_ptr
 .sbss.usb_initialized
                0x000000008027ff04        0x4 /usr/local/xenon/usr/lib/libxenon.a(usbmain.o)
                0x000000008027ff04                usb_initialized
 .sbss.usb_buscnt
                0x000000008027ff08        0x4 /usr/local/xenon/usr/lib/libxenon.a(usbmain.o)
                0x000000008027ff08                usb_buscnt
 .sbss.try_status
                0x000000008027ff0c        0x4 /usr/local/xenon/usr/lib/libxenon.a(tinyehci.o)
                0x000000008027ff0c                try_status
 .sbss.unplug_device
                0x000000008027ff10        0x4 /usr/local/xenon/usr/lib/libxenon.a(tinyehci.o)
                0x000000008027ff10                unplug_device
 .sbss.handshake_mode
                0x000000008027ff14        0x4 /usr/local/xenon/usr/lib/libxenon.a(tinyehci.o)
                0x000000008027ff14                handshake_mode
 .sbss.xenos_id
                0x000000008027ff18        0x4 /usr/local/xenon/usr/lib/libxenon.a(xenos.o)
                0x000000008027ff18                xenos_id
 .sbss          0x000000008027ff1c        0x4 /usr/local/xenon/usr/lib/libxenon.a(fat_rb.o)
                0x000000008027ff1c                cache_mutex
 .sbss.usb_noisy
                0x000000008027ff20        0x4 /usr/local/xenon/usr/lib/libxenon.a(usbd.o)
                0x000000008027ff20                usb_noisy
 .sbss          0x000000008027ff24        0xc /usr/local/xenon/xenon/lib/32/libc.a(lib_a-mallocr.o)
                0x000000008027ff24                __malloc_top_pad
                0x000000008027ff28                __malloc_max_sbrked_mem
                0x000000008027ff2c                __malloc_max_total_mem
 .sbss          0x000000008027ff30        0x4 /usr/local/xenon/xenon/lib/32/libc.a(lib_a-reent.o)
                0x000000008027ff30                errno
                0x000000008027ff34                bss_end = .
                0x000000008027ff34                heap_begin = .
                0x0000000090000000                . = 0x90000000
                0x0000000090000000                __libc_stack_end = .
                0x0000000090000000                heap_end = .
                0x00000000a0000000                . = 0xa0000000
OUTPUT(/home/tiffany/Xbox-360-Homebrew/DebugLogging/xenon.elf elf32-powerpc)

.debug_abbrev   0x0000000000000000     0xa70c
 .debug_abbrev  0x0000000000000000       0x7d /usr/local/xenon/lib/gcc/xenon/4.4.0/../../../../xenon/lib/../lib/crt1.o
 .debug_abbrev  0x000000000000007d      0x19d main.o
 .debug_abbrev  0x000000000000021a      0x1ee /usr/local/xenon/usr/lib/libxenon.a(console.o)
 .debug_abbrev  0x0000000000000408      0x2ca /usr/local/xenon/usr/lib/libxenon.a(newlib.o)
 .debug_abbrev  0x00000000000006d2       0x63 /usr/local/xenon/usr/lib/libxenon.a(vm.o)
 .debug_abbrev  0x0000000000000735      0x1c3 /usr/local/xenon/usr/lib/libxenon.a(usbmain.o)
 .debug_abbrev  0x00000000000008f8      0x4d6 /usr/local/xenon/usr/lib/libxenon.a(tinyehci.o)
 .debug_abbrev  0x0000000000000dce       0xc8 /usr/local/xenon/usr/lib/libxenon.a(xenon_uart.o)
 .debug_abbrev  0x0000000000000e96      0x205 /usr/local/xenon/usr/lib/libxenon.a(xenos.o)
 .debug_abbrev  0x000000000000109b      0x1af /usr/local/xenon/usr/lib/libxenon.a(diskio.o)
 .debug_abbrev  0x000000000000124a      0x181 /usr/local/xenon/usr/lib/libxenon.a(fat.o)
 .debug_abbrev  0x00000000000013cb      0x36f /usr/local/xenon/usr/lib/libxenon.a(fat_rb.o)
 .debug_abbrev  0x000000000000173a      0x20d /usr/local/xenon/usr/lib/libxenon.a(file_rb.o)
 .debug_abbrev  0x0000000000001947      0x1d0 /usr/local/xenon/usr/lib/libxenon.a(dir_rb.o)
 .debug_abbrev  0x0000000000001b17      0x430 /usr/local/xenon/usr/lib/libxenon.a(iso9660.o)
 .debug_abbrev  0x0000000000001f47      0x26c /usr/local/xenon/usr/lib/libxenon.a(lib_malloc.o)
 .debug_abbrev  0x00000000000021b3       0xad /usr/local/xenon/usr/lib/libxenon.a(io.o)
 .debug_abbrev  0x0000000000002260      0x11d /usr/local/xenon/usr/lib/libxenon.a(time.o)
 .debug_abbrev  0x000000000000237d      0x357 /usr/local/xenon/usr/lib/libxenon.a(ohci.o)
 .debug_abbrev  0x00000000000026d4      0x2ea /usr/local/xenon/usr/lib/libxenon.a(usbd.o)
 .debug_abbrev  0x00000000000029be      0x146 /usr/local/xenon/usr/lib/libxenon.a(usbdevs.o)
 .debug_abbrev  0x0000000000002b04      0x20a /usr/local/xenon/usr/lib/libxenon.a(usbhid.o)
 .debug_abbrev  0x0000000000002d0e      0x308 /usr/local/xenon/usr/lib/libxenon.a(usbhub.o)
 .debug_abbrev  0x0000000000003016       0xf6 /usr/local/xenon/usr/lib/libxenon.a(usb_os.o)
 .debug_abbrev  0x000000000000310c      0x101 /usr/local/xenon/usr/lib/libxenon.a(unicode_rb.o)
 .debug_abbrev  0x000000000000320d       0xa5 /usr/local/xenon/usr/lib/libxenon.a(xenon_gpio.o)
 .debug_abbrev  0x00000000000032b2      0x10c /usr/local/xenon/usr/lib/libxenon.a(xenon_smc.o)
 .debug_abbrev  0x00000000000033be      0x173 /usr/local/xenon/usr/lib/libxenon.a(xenon_config.o)
 .debug_abbrev  0x0000000000003531      0x19e /usr/local/xenon/usr/lib/libxenon.a(disk_rb.o)
 .debug_abbrev  0x00000000000036cf      0x13b /usr/local/xenon/usr/lib/libxenon.a(lib_queue.o)
 .debug_abbrev  0x000000000000380a      0x218 /usr/local/xenon/usr/lib/libxenon.a(usbctrl.o)
 .debug_abbrev  0x0000000000003a22      0x1f2 /usr/local/xenon/usr/lib/libxenon.a(usbdebug.o)
 .debug_abbrev  0x0000000000003c14      0x1f7 /usr/local/xenon/usr/lib/libxenon.a(xenon_sfcx.o)
 .debug_abbrev  0x0000000000003e0b       0xf2 /usr/local/xenon/usr/lib/libxenon.a(input.o)
 .debug_abbrev  0x0000000000003efd      0x177 /usr/local/xenon/xenon/lib/32/libc.a(lib_a-assert.o)
 .debug_abbrev  0x0000000000004074      0x17f /usr/local/xenon/xenon/lib/32/libc.a(lib_a-atoi.o)
 .debug_abbrev  0x00000000000041f3       0x5b /usr/local/xenon/xenon/lib/32/libc.a(lib_a-ctype_.o)
 .debug_abbrev  0x000000000000424e      0x168 /usr/local/xenon/xenon/lib/32/libc.a(lib_a-errno.o)
 .debug_abbrev  0x00000000000043b6      0x177 /usr/local/xenon/xenon/lib/32/libc.a(lib_a-exit.o)
 .debug_abbrev  0x000000000000452d      0x1b3 /usr/local/xenon/xenon/lib/32/libc.a(lib_a-fiprintf.o)
 .debug_abbrev  0x00000000000046e0      0x1bf /usr/local/xenon/xenon/lib/32/libc.a(lib_a-fopen.o)
 .debug_abbrev  0x000000000000489f      0x1b3 /usr/local/xenon/xenon/lib/32/libc.a(lib_a-fprintf.o)
 .debug_abbrev  0x0000000000004a52      0x20d /usr/local/xenon/xenon/lib/32/libc.a(lib_a-fseek.o)
 .debug_abbrev  0x0000000000004c5f      0x197 /usr/local/xenon/xenon/lib/32/libc.a(lib_a-fstatr.o)
 .debug_abbrev  0x0000000000004df6      0x160 /usr/local/xenon/xenon/lib/32/libc.a(lib_a-impure.o)
 .debug_abbrev  0x0000000000004f56      0x193 /usr/local/xenon/xenon/lib/32/libc.a(lib_a-makebuf.o)
 .debug_abbrev  0x00000000000050e9      0x190 /usr/local/xenon/xenon/lib/32/libc.a(lib_a-malloc.o)
 .debug_abbrev  0x0000000000005279      0x221 /usr/local/xenon/xenon/lib/32/libc.a(lib_a-mallocr.o)
 .debug_abbrev  0x000000000000549a       0xdc /usr/local/xenon/xenon/lib/32/libc.a(lib_a-memchr.o)
 .debug_abbrev  0x0000000000005576       0xa3 /usr/local/xenon/xenon/lib/32/libc.a(lib_a-memcmp.o)
 .debug_abbrev  0x0000000000005619       0xb1 /usr/local/xenon/xenon/lib/32/libc.a(lib_a-memcpy.o)
 .debug_abbrev  0x00000000000056ca       0xa3 /usr/local/xenon/xenon/lib/32/libc.a(lib_a-memset.o)
 .debug_abbrev  0x000000000000576d      0x173 /usr/local/xenon/xenon/lib/32/libc.a(lib_a-mlock.o)
 .debug_abbrev  0x00000000000058e0      0x197 /usr/local/xenon/xenon/lib/32/libc.a(lib_a-openr.o)
 .debug_abbrev  0x0000000000005a77      0x1c2 /usr/local/xenon/xenon/lib/32/libc.a(lib_a-printf.o)
 .debug_abbrev  0x0000000000005c39      0x192 /usr/local/xenon/xenon/lib/32/libc.a(lib_a-putchar.o)
 .debug_abbrev  0x0000000000005dcb      0x1a1 /usr/local/xenon/xenon/lib/32/libc.a(lib_a-putc.o)
 .debug_abbrev  0x0000000000005f6c      0x1b5 /usr/local/xenon/xenon/lib/32/libc.a(lib_a-puts.o)
 .debug_abbrev  0x0000000000006121      0x1fa /usr/local/xenon/xenon/lib/32/libc.a(lib_a-reent.o)
 .debug_abbrev  0x000000000000631b      0x190 /usr/local/xenon/xenon/lib/32/libc.a(lib_a-refill.o)
 .debug_abbrev  0x00000000000064ab      0x197 /usr/local/xenon/xenon/lib/32/libc.a(lib_a-sbrkr.o)
 .debug_abbrev  0x0000000000006642      0x1ab /usr/local/xenon/xenon/lib/32/libc.a(lib_a-snprintf.o)
 .debug_abbrev  0x00000000000067ed      0x1b3 /usr/local/xenon/xenon/lib/32/libc.a(lib_a-sprintf.o)
 .debug_abbrev  0x00000000000069a0      0x1aa /usr/local/xenon/xenon/lib/32/libc.a(lib_a-stdio.o)
 .debug_abbrev  0x0000000000006b4a       0xb7 /usr/local/xenon/xenon/lib/32/libc.a(lib_a-strcasecmp.o)
 .debug_abbrev  0x0000000000006c01       0x90 /usr/local/xenon/xenon/lib/32/libc.a(lib_a-strcat.o)
 .debug_abbrev  0x0000000000006c91       0xa5 /usr/local/xenon/xenon/lib/32/libc.a(lib_a-strchr.o)
 .debug_abbrev  0x0000000000006d36       0x89 /usr/local/xenon/xenon/lib/32/libc.a(lib_a-strcmp.o)
 .debug_abbrev  0x0000000000006dbf       0x89 /usr/local/xenon/xenon/lib/32/libc.a(lib_a-strcpy.o)
 .debug_abbrev  0x0000000000006e48       0x94 /usr/local/xenon/xenon/lib/32/libc.a(lib_a-strlcpy.o)
 .debug_abbrev  0x0000000000006edc       0x94 /usr/local/xenon/xenon/lib/32/libc.a(lib_a-strlen.o)
 .debug_abbrev  0x0000000000006f70       0xc8 /usr/local/xenon/xenon/lib/32/libc.a(lib_a-strncasecmp.o)
 .debug_abbrev  0x0000000000007038       0x96 /usr/local/xenon/xenon/lib/32/libc.a(lib_a-strncmp.o)
 .debug_abbrev  0x00000000000070ce       0xa5 /usr/local/xenon/xenon/lib/32/libc.a(lib_a-strncpy.o)
 .debug_abbrev  0x0000000000007173       0x78 /usr/local/xenon/xenon/lib/32/libc.a(lib_a-strrchr.o)
 .debug_abbrev  0x00000000000071eb       0xc9 /usr/local/xenon/xenon/lib/32/libc.a(lib_a-strtok_r.o)
 .debug_abbrev  0x00000000000072b4      0x1d5 /usr/local/xenon/xenon/lib/32/libc.a(lib_a-strtol.o)
 .debug_abbrev  0x0000000000007489      0x30d /usr/local/xenon/xenon/lib/32/libc.a(lib_a-svfprintf.o)
 .debug_abbrev  0x0000000000007796      0x2a3 /usr/local/xenon/xenon/lib/32/libc.a(lib_a-vfiprintf.o)
 .debug_abbrev  0x0000000000007a39      0x313 /usr/local/xenon/xenon/lib/32/libc.a(lib_a-vfprintf.o)
 .debug_abbrev  0x0000000000007d4c      0x1a1 /usr/local/xenon/xenon/lib/32/libc.a(lib_a-wbuf.o)
 .debug_abbrev  0x0000000000007eed      0x18d /usr/local/xenon/xenon/lib/32/libc.a(lib_a-writer.o)
 .debug_abbrev  0x000000000000807a      0x179 /usr/local/xenon/xenon/lib/32/libc.a(lib_a-wsetup.o)
 .debug_abbrev  0x00000000000081f3       0x48 /usr/local/xenon/xenon/lib/32/libc.a(lib_a-abort.o)
 .debug_abbrev  0x000000000000823b      0x1d0 /usr/local/xenon/xenon/lib/32/libc.a(lib_a-__call_atexit.o)
 .debug_abbrev  0x000000000000840b      0x188 /usr/local/xenon/xenon/lib/32/libc.a(lib_a-closer.o)
 .debug_abbrev  0x0000000000008593      0x23b /usr/local/xenon/xenon/lib/32/libc.a(lib_a-dtoa.o)
 .debug_abbrev  0x00000000000087ce      0x1c4 /usr/local/xenon/xenon/lib/32/libc.a(lib_a-fflush.o)
 .debug_abbrev  0x0000000000008992      0x244 /usr/local/xenon/xenon/lib/32/libc.a(lib_a-findfp.o)
 .debug_abbrev  0x0000000000008bd6      0x186 /usr/local/xenon/xenon/lib/32/libc.a(lib_a-flags.o)
 .debug_abbrev  0x0000000000008d5c      0x1e2 /usr/local/xenon/xenon/lib/32/libc.a(lib_a-freer.o)
 .debug_abbrev  0x0000000000008f3e      0x1ac /usr/local/xenon/xenon/lib/32/libc.a(lib_a-fvwrite.o)
 .debug_abbrev  0x00000000000090ea      0x1ee /usr/local/xenon/xenon/lib/32/libc.a(lib_a-fwalk.o)
 .debug_abbrev  0x00000000000092d8      0x188 /usr/local/xenon/xenon/lib/32/libc.a(lib_a-isattyr.o)
 .debug_abbrev  0x0000000000009460      0x1ee /usr/local/xenon/xenon/lib/32/libc.a(lib_a-locale.o)
 .debug_abbrev  0x000000000000964e      0x197 /usr/local/xenon/xenon/lib/32/libc.a(lib_a-lseekr.o)
 .debug_abbrev  0x00000000000097e5       0xb1 /usr/local/xenon/xenon/lib/32/libc.a(lib_a-memmove.o)
 .debug_abbrev  0x0000000000009896      0x2ad /usr/local/xenon/xenon/lib/32/libc.a(lib_a-mprec.o)
 .debug_abbrev  0x0000000000009b43      0x188 /usr/local/xenon/xenon/lib/32/libc.a(lib_a-readr.o)
 .debug_abbrev  0x0000000000009ccb      0x1d5 /usr/local/xenon/xenon/lib/32/libc.a(lib_a-reallocr.o)
 .debug_abbrev  0x0000000000009ea0      0x1bb /usr/local/xenon/xenon/lib/32/libc.a(lib_a-signal.o)
 .debug_abbrev  0x000000000000a05b      0x195 /usr/local/xenon/xenon/lib/32/libc.a(lib_a-signalr.o)
 .debug_abbrev  0x000000000000a1f0       0xdd /usr/local/xenon/xenon/lib/32/libc.a(lib_a-s_isinfd.o)
 .debug_abbrev  0x000000000000a2cd       0xce /usr/local/xenon/xenon/lib/32/libc.a(lib_a-s_isnand.o)
 .debug_abbrev  0x000000000000a39b      0x1c1 /usr/local/xenon/xenon/lib/32/libc.a(lib_a-callocr.o)
 .debug_abbrev  0x000000000000a55c      0x1b0 /usr/local/xenon/xenon/lib/32/libc.a(lib_a-fclose.o)

.debug_info     0x0000000000000000    0x3a61c
 .debug_info    0x0000000000000000       0x94 /usr/local/xenon/lib/gcc/xenon/4.4.0/../../../../xenon/lib/../lib/crt1.o
 .debug_info    0x0000000000000094      0x9a1 main.o
 .debug_info    0x0000000000000a35      0x512 /usr/local/xenon/usr/lib/libxenon.a(console.o)
 .debug_info    0x0000000000000f47      0xe96 /usr/local/xenon/usr/lib/libxenon.a(newlib.o)
 .debug_info    0x0000000000001ddd       0x9c /usr/local/xenon/usr/lib/libxenon.a(vm.o)
 .debug_info    0x0000000000001e79      0x8b3 /usr/local/xenon/usr/lib/libxenon.a(usbmain.o)
 .debug_info    0x000000000000272c     0x32fb /usr/local/xenon/usr/lib/libxenon.a(tinyehci.o)
 .debug_info    0x0000000000005a27      0x118 /usr/local/xenon/usr/lib/libxenon.a(xenon_uart.o)
 .debug_info    0x0000000000005b3f      0x70e /usr/local/xenon/usr/lib/libxenon.a(xenos.o)
 .debug_info    0x000000000000624d      0x8ff /usr/local/xenon/usr/lib/libxenon.a(diskio.o)
 .debug_info    0x0000000000006b4c      0xc83 /usr/local/xenon/usr/lib/libxenon.a(fat.o)
 .debug_info    0x00000000000077cf     0x1eb5 /usr/local/xenon/usr/lib/libxenon.a(fat_rb.o)
 .debug_info    0x0000000000009684      0x9d5 /usr/local/xenon/usr/lib/libxenon.a(file_rb.o)
 .debug_info    0x000000000000a059      0x650 /usr/local/xenon/usr/lib/libxenon.a(dir_rb.o)
 .debug_info    0x000000000000a6a9     0x191e /usr/local/xenon/usr/lib/libxenon.a(iso9660.o)
 .debug_info    0x000000000000bfc7      0x4f4 /usr/local/xenon/usr/lib/libxenon.a(lib_malloc.o)
 .debug_info    0x000000000000c4bb      0x131 /usr/local/xenon/usr/lib/libxenon.a(io.o)
 .debug_info    0x000000000000c5ec      0x2cd /usr/local/xenon/usr/lib/libxenon.a(time.o)
 .debug_info    0x000000000000c8b9     0x2225 /usr/local/xenon/usr/lib/libxenon.a(ohci.o)
 .debug_info    0x000000000000eade     0x160b /usr/local/xenon/usr/lib/libxenon.a(usbd.o)
 .debug_info    0x00000000000100e9      0x91a /usr/local/xenon/usr/lib/libxenon.a(usbdevs.o)
 .debug_info    0x0000000000010a03      0xd1b /usr/local/xenon/usr/lib/libxenon.a(usbhid.o)
 .debug_info    0x000000000001171e     0x12b9 /usr/local/xenon/usr/lib/libxenon.a(usbhub.o)
 .debug_info    0x00000000000129d7      0x386 /usr/local/xenon/usr/lib/libxenon.a(usb_os.o)
 .debug_info    0x0000000000012d5d      0x290 /usr/local/xenon/usr/lib/libxenon.a(unicode_rb.o)
 .debug_info    0x0000000000012fed      0x15b /usr/local/xenon/usr/lib/libxenon.a(xenon_gpio.o)
 .debug_info    0x0000000000013148      0x45d /usr/local/xenon/usr/lib/libxenon.a(xenon_smc.o)
 .debug_info    0x00000000000135a5      0x4ee /usr/local/xenon/usr/lib/libxenon.a(xenon_config.o)
 .debug_info    0x0000000000013a93      0x4c5 /usr/local/xenon/usr/lib/libxenon.a(disk_rb.o)
 .debug_info    0x0000000000013f58      0x26c /usr/local/xenon/usr/lib/libxenon.a(lib_queue.o)
 .debug_info    0x00000000000141c4      0xcbc /usr/local/xenon/usr/lib/libxenon.a(usbctrl.o)
 .debug_info    0x0000000000014e80      0xcac /usr/local/xenon/usr/lib/libxenon.a(usbdebug.o)
 .debug_info    0x0000000000015b2c      0x672 /usr/local/xenon/usr/lib/libxenon.a(xenon_sfcx.o)
 .debug_info    0x000000000001619e      0x23c /usr/local/xenon/usr/lib/libxenon.a(input.o)
 .debug_info    0x00000000000163da      0x9d7 /usr/local/xenon/xenon/lib/32/libc.a(lib_a-assert.o)
 .debug_info    0x0000000000016db1      0x98d /usr/local/xenon/xenon/lib/32/libc.a(lib_a-atoi.o)
 .debug_info    0x000000000001773e       0x87 /usr/local/xenon/xenon/lib/32/libc.a(lib_a-ctype_.o)
 .debug_info    0x00000000000177c5      0x959 /usr/local/xenon/xenon/lib/32/libc.a(lib_a-errno.o)
 .debug_info    0x000000000001811e      0x968 /usr/local/xenon/xenon/lib/32/libc.a(lib_a-exit.o)
 .debug_info    0x0000000000018a86      0xa7e /usr/local/xenon/xenon/lib/32/libc.a(lib_a-fiprintf.o)
 .debug_info    0x0000000000019504      0xa0c /usr/local/xenon/xenon/lib/32/libc.a(lib_a-fopen.o)
 .debug_info    0x0000000000019f10      0xa7e /usr/local/xenon/xenon/lib/32/libc.a(lib_a-fprintf.o)
 .debug_info    0x000000000001a98e      0xbff /usr/local/xenon/xenon/lib/32/libc.a(lib_a-fseek.o)
 .debug_info    0x000000000001b58d      0xb27 /usr/local/xenon/xenon/lib/32/libc.a(lib_a-fstatr.o)
 .debug_info    0x000000000001c0b4      0x968 /usr/local/xenon/xenon/lib/32/libc.a(lib_a-impure.o)
 .debug_info    0x000000000001ca1c      0xb47 /usr/local/xenon/xenon/lib/32/libc.a(lib_a-makebuf.o)
 .debug_info    0x000000000001d563      0x99b /usr/local/xenon/xenon/lib/32/libc.a(lib_a-malloc.o)
 .debug_info    0x000000000001defe      0xcfd /usr/local/xenon/xenon/lib/32/libc.a(lib_a-mallocr.o)
 .debug_info    0x000000000001ebfb      0x123 /usr/local/xenon/xenon/lib/32/libc.a(lib_a-memchr.o)
 .debug_info    0x000000000001ed1e      0x10b /usr/local/xenon/xenon/lib/32/libc.a(lib_a-memcmp.o)
 .debug_info    0x000000000001ee29      0x140 /usr/local/xenon/xenon/lib/32/libc.a(lib_a-memcpy.o)
 .debug_info    0x000000000001ef69      0x115 /usr/local/xenon/xenon/lib/32/libc.a(lib_a-memset.o)
 .debug_info    0x000000000001f07e      0x980 /usr/local/xenon/xenon/lib/32/libc.a(lib_a-mlock.o)
 .debug_info    0x000000000001f9fe      0x9a2 /usr/local/xenon/xenon/lib/32/libc.a(lib_a-openr.o)
 .debug_info    0x00000000000203a0      0xa60 /usr/local/xenon/xenon/lib/32/libc.a(lib_a-printf.o)
 .debug_info    0x0000000000020e00      0x9a0 /usr/local/xenon/xenon/lib/32/libc.a(lib_a-putchar.o)
 .debug_info    0x00000000000217a0      0x9eb /usr/local/xenon/xenon/lib/32/libc.a(lib_a-putc.o)
 .debug_info    0x000000000002218b      0xa51 /usr/local/xenon/xenon/lib/32/libc.a(lib_a-puts.o)
 .debug_info    0x0000000000022bdc      0xa4c /usr/local/xenon/xenon/lib/32/libc.a(lib_a-reent.o)
 .debug_info    0x0000000000023628      0x9b6 /usr/local/xenon/xenon/lib/32/libc.a(lib_a-refill.o)
 .debug_info    0x0000000000023fde      0x98f /usr/local/xenon/xenon/lib/32/libc.a(lib_a-sbrkr.o)
 .debug_info    0x000000000002496d      0xad5 /usr/local/xenon/xenon/lib/32/libc.a(lib_a-snprintf.o)
 .debug_info    0x0000000000025442      0xa9f /usr/local/xenon/xenon/lib/32/libc.a(lib_a-sprintf.o)
 .debug_info    0x0000000000025ee1      0xad9 /usr/local/xenon/xenon/lib/32/libc.a(lib_a-stdio.o)
 .debug_info    0x00000000000269ba      0x132 /usr/local/xenon/xenon/lib/32/libc.a(lib_a-strcasecmp.o)
 .debug_info    0x0000000000026aec       0xe9 /usr/local/xenon/xenon/lib/32/libc.a(lib_a-strcat.o)
 .debug_info    0x0000000000026bd5      0x110 /usr/local/xenon/xenon/lib/32/libc.a(lib_a-strchr.o)
 .debug_info    0x0000000000026ce5       0xdb /usr/local/xenon/xenon/lib/32/libc.a(lib_a-strcmp.o)
 .debug_info    0x0000000000026dc0      0x108 /usr/local/xenon/xenon/lib/32/libc.a(lib_a-strcpy.o)
 .debug_info    0x0000000000026ec8       0xfe /usr/local/xenon/xenon/lib/32/libc.a(lib_a-strlcpy.o)
 .debug_info    0x0000000000026fc6       0xd7 /usr/local/xenon/xenon/lib/32/libc.a(lib_a-strlen.o)
 .debug_info    0x000000000002709d      0x146 /usr/local/xenon/xenon/lib/32/libc.a(lib_a-strncasecmp.o)
 .debug_info    0x00000000000271e3       0xf3 /usr/local/xenon/xenon/lib/32/libc.a(lib_a-strncmp.o)
 .debug_info    0x00000000000272d6      0x128 /usr/local/xenon/xenon/lib/32/libc.a(lib_a-strncpy.o)
 .debug_info    0x00000000000273fe       0xca /usr/local/xenon/xenon/lib/32/libc.a(lib_a-strrchr.o)
 .debug_info    0x00000000000274c8      0x164 /usr/local/xenon/xenon/lib/32/libc.a(lib_a-strtok_r.o)
 .debug_info    0x000000000002762c      0xa4d /usr/local/xenon/xenon/lib/32/libc.a(lib_a-strtol.o)
 .debug_info    0x0000000000028079     0x107e /usr/local/xenon/xenon/lib/32/libc.a(lib_a-svfprintf.o)
 .debug_info    0x00000000000290f7      0xe55 /usr/local/xenon/xenon/lib/32/libc.a(lib_a-vfiprintf.o)
 .debug_info    0x0000000000029f4c     0x113d /usr/local/xenon/xenon/lib/32/libc.a(lib_a-vfprintf.o)
 .debug_info    0x000000000002b089      0x9da /usr/local/xenon/xenon/lib/32/libc.a(lib_a-wbuf.o)
 .debug_info    0x000000000002ba63      0x9be /usr/local/xenon/xenon/lib/32/libc.a(lib_a-writer.o)
 .debug_info    0x000000000002c421      0x986 /usr/local/xenon/xenon/lib/32/libc.a(lib_a-wsetup.o)
 .debug_info    0x000000000002cda7       0x8b /usr/local/xenon/xenon/lib/32/libc.a(lib_a-abort.o)
 .debug_info    0x000000000002ce32      0x9e8 /usr/local/xenon/xenon/lib/32/libc.a(lib_a-__call_atexit.o)
 .debug_info    0x000000000002d81a      0x983 /usr/local/xenon/xenon/lib/32/libc.a(lib_a-closer.o)
 .debug_info    0x000000000002e19d      0xd9e /usr/local/xenon/xenon/lib/32/libc.a(lib_a-dtoa.o)
 .debug_info    0x000000000002ef3b      0xa22 /usr/local/xenon/xenon/lib/32/libc.a(lib_a-fflush.o)
 .debug_info    0x000000000002f95d      0xbb0 /usr/local/xenon/xenon/lib/32/libc.a(lib_a-findfp.o)
 .debug_info    0x000000000003050d      0x9a0 /usr/local/xenon/xenon/lib/32/libc.a(lib_a-flags.o)
 .debug_info    0x0000000000030ead      0xbf2 /usr/local/xenon/xenon/lib/32/libc.a(lib_a-freer.o)
 .debug_info    0x0000000000031a9f      0xaad /usr/local/xenon/xenon/lib/32/libc.a(lib_a-fvwrite.o)
 .debug_info    0x000000000003254c      0xb1e /usr/local/xenon/xenon/lib/32/libc.a(lib_a-fwalk.o)
 .debug_info    0x000000000003306a      0x983 /usr/local/xenon/xenon/lib/32/libc.a(lib_a-isattyr.o)
 .debug_info    0x00000000000339ed      0xbcb /usr/local/xenon/xenon/lib/32/libc.a(lib_a-locale.o)
 .debug_info    0x00000000000345b8      0x9ac /usr/local/xenon/xenon/lib/32/libc.a(lib_a-lseekr.o)
 .debug_info    0x0000000000034f64      0x140 /usr/local/xenon/xenon/lib/32/libc.a(lib_a-memmove.o)
 .debug_info    0x00000000000350a4     0x145d /usr/local/xenon/xenon/lib/32/libc.a(lib_a-mprec.o)
 .debug_info    0x0000000000036501      0x9b7 /usr/local/xenon/xenon/lib/32/libc.a(lib_a-readr.o)
 .debug_info    0x0000000000036eb8      0xbde /usr/local/xenon/xenon/lib/32/libc.a(lib_a-reallocr.o)
 .debug_info    0x0000000000037a96      0xb1a /usr/local/xenon/xenon/lib/32/libc.a(lib_a-signal.o)
 .debug_info    0x00000000000385b0      0x9cb /usr/local/xenon/xenon/lib/32/libc.a(lib_a-signalr.o)
 .debug_info    0x0000000000038f7b      0x14f /usr/local/xenon/xenon/lib/32/libc.a(lib_a-s_isinfd.o)
 .debug_info    0x00000000000390ca      0x14e /usr/local/xenon/xenon/lib/32/libc.a(lib_a-s_isnand.o)
 .debug_info    0x0000000000039218      0xa44 /usr/local/xenon/xenon/lib/32/libc.a(lib_a-callocr.o)
 .debug_info    0x0000000000039c5c      0x9c0 /usr/local/xenon/xenon/lib/32/libc.a(lib_a-fclose.o)

.debug_line     0x0000000000000000     0xd97f
 .debug_line    0x0000000000000000       0x56 /usr/local/xenon/lib/gcc/xenon/4.4.0/../../../../xenon/lib/../lib/crt1.o
 .debug_line    0x0000000000000056      0x193 main.o
 .debug_line    0x00000000000001e9      0x1f9 /usr/local/xenon/usr/lib/libxenon.a(console.o)
 .debug_line    0x00000000000003e2      0x383 /usr/local/xenon/usr/lib/libxenon.a(newlib.o)
 .debug_line    0x0000000000000765       0x82 /usr/local/xenon/usr/lib/libxenon.a(vm.o)
 .debug_line    0x00000000000007e7      0x15f /usr/local/xenon/usr/lib/libxenon.a(usbmain.o)
 .debug_line    0x0000000000000946      0xe48 /usr/local/xenon/usr/lib/libxenon.a(tinyehci.o)
 .debug_line    0x000000000000178e       0xcf /usr/local/xenon/usr/lib/libxenon.a(xenon_uart.o)
 .debug_line    0x000000000000185d      0x310 /usr/local/xenon/usr/lib/libxenon.a(xenos.o)
 .debug_line    0x0000000000001b6d      0x1ec /usr/local/xenon/usr/lib/libxenon.a(diskio.o)
 .debug_line    0x0000000000001d59      0x22a /usr/local/xenon/usr/lib/libxenon.a(fat.o)
 .debug_line    0x0000000000001f83      0xb49 /usr/local/xenon/usr/lib/libxenon.a(fat_rb.o)
 .debug_line    0x0000000000002acc      0x3fa /usr/local/xenon/usr/lib/libxenon.a(file_rb.o)
 .debug_line    0x0000000000002ec6      0x16f /usr/local/xenon/usr/lib/libxenon.a(dir_rb.o)
 .debug_line    0x0000000000003035      0x657 /usr/local/xenon/usr/lib/libxenon.a(iso9660.o)
 .debug_line    0x000000000000368c      0x1d1 /usr/local/xenon/usr/lib/libxenon.a(lib_malloc.o)
 .debug_line    0x000000000000385d       0xc1 /usr/local/xenon/usr/lib/libxenon.a(io.o)
 .debug_line    0x000000000000391e      0x13d /usr/local/xenon/usr/lib/libxenon.a(time.o)
 .debug_line    0x0000000000003a5b      0x86b /usr/local/xenon/usr/lib/libxenon.a(ohci.o)
 .debug_line    0x00000000000042c6      0x514 /usr/local/xenon/usr/lib/libxenon.a(usbd.o)
 .debug_line    0x00000000000047da      0x101 /usr/local/xenon/usr/lib/libxenon.a(usbdevs.o)
 .debug_line    0x00000000000048db      0x1ae /usr/local/xenon/usr/lib/libxenon.a(usbhid.o)
 .debug_line    0x0000000000004a89      0x378 /usr/local/xenon/usr/lib/libxenon.a(usbhub.o)
 .debug_line    0x0000000000004e01      0x19e /usr/local/xenon/usr/lib/libxenon.a(usb_os.o)
 .debug_line    0x0000000000004f9f      0x10b /usr/local/xenon/usr/lib/libxenon.a(unicode_rb.o)
 .debug_line    0x00000000000050aa       0xdb /usr/local/xenon/usr/lib/libxenon.a(xenon_gpio.o)
 .debug_line    0x0000000000005185      0x27c /usr/local/xenon/usr/lib/libxenon.a(xenon_smc.o)
 .debug_line    0x0000000000005401      0x13b /usr/local/xenon/usr/lib/libxenon.a(xenon_config.o)
 .debug_line    0x000000000000553c      0x150 /usr/local/xenon/usr/lib/libxenon.a(disk_rb.o)
 .debug_line    0x000000000000568c       0xd9 /usr/local/xenon/usr/lib/libxenon.a(lib_queue.o)
 .debug_line    0x0000000000005765      0x1d1 /usr/local/xenon/usr/lib/libxenon.a(usbctrl.o)
 .debug_line    0x0000000000005936      0x28b /usr/local/xenon/usr/lib/libxenon.a(usbdebug.o)
 .debug_line    0x0000000000005bc1      0x2c1 /usr/local/xenon/usr/lib/libxenon.a(xenon_sfcx.o)
 .debug_line    0x0000000000005e82       0x75 /usr/local/xenon/usr/lib/libxenon.a(input.o)
 .debug_line    0x0000000000005ef7      0x17b /usr/local/xenon/xenon/lib/32/libc.a(lib_a-assert.o)
 .debug_line    0x0000000000006072      0x17d /usr/local/xenon/xenon/lib/32/libc.a(lib_a-atoi.o)
 .debug_line    0x00000000000061ef       0xb3 /usr/local/xenon/xenon/lib/32/libc.a(lib_a-ctype_.o)
 .debug_line    0x00000000000062a2      0x120 /usr/local/xenon/xenon/lib/32/libc.a(lib_a-errno.o)
 .debug_line    0x00000000000063c2      0x174 /usr/local/xenon/xenon/lib/32/libc.a(lib_a-exit.o)
 .debug_line    0x0000000000006536      0x19a /usr/local/xenon/xenon/lib/32/libc.a(lib_a-fiprintf.o)
 .debug_line    0x00000000000066d0      0x197 /usr/local/xenon/xenon/lib/32/libc.a(lib_a-fopen.o)
 .debug_line    0x0000000000006867      0x199 /usr/local/xenon/xenon/lib/32/libc.a(lib_a-fprintf.o)
 .debug_line    0x0000000000006a00      0x29c /usr/local/xenon/xenon/lib/32/libc.a(lib_a-fseek.o)
 .debug_line    0x0000000000006c9c      0x18b /usr/local/xenon/xenon/lib/32/libc.a(lib_a-fstatr.o)
 .debug_line    0x0000000000006e27      0x106 /usr/local/xenon/xenon/lib/32/libc.a(lib_a-impure.o)
 .debug_line    0x0000000000006f2d      0x1ef /usr/local/xenon/xenon/lib/32/libc.a(lib_a-makebuf.o)
 .debug_line    0x000000000000711c      0x177 /usr/local/xenon/xenon/lib/32/libc.a(lib_a-malloc.o)
 .debug_line    0x0000000000007293      0x2a0 /usr/local/xenon/xenon/lib/32/libc.a(lib_a-mallocr.o)
 .debug_line    0x0000000000007533      0x133 /usr/local/xenon/xenon/lib/32/libc.a(lib_a-memchr.o)
 .debug_line    0x0000000000007666      0x131 /usr/local/xenon/xenon/lib/32/libc.a(lib_a-memcmp.o)
 .debug_line    0x0000000000007797      0x161 /usr/local/xenon/xenon/lib/32/libc.a(lib_a-memcpy.o)
 .debug_line    0x00000000000078f8      0x153 /usr/local/xenon/xenon/lib/32/libc.a(lib_a-memset.o)
 .debug_line    0x0000000000007a4b      0x118 /usr/local/xenon/xenon/lib/32/libc.a(lib_a-mlock.o)
 .debug_line    0x0000000000007b63      0x177 /usr/local/xenon/xenon/lib/32/libc.a(lib_a-openr.o)
 .debug_line    0x0000000000007cda      0x1a3 /usr/local/xenon/xenon/lib/32/libc.a(lib_a-printf.o)
 .debug_line    0x0000000000007e7d      0x176 /usr/local/xenon/xenon/lib/32/libc.a(lib_a-putchar.o)
 .debug_line    0x0000000000007ff3      0x192 /usr/local/xenon/xenon/lib/32/libc.a(lib_a-putc.o)
 .debug_line    0x0000000000008185      0x198 /usr/local/xenon/xenon/lib/32/libc.a(lib_a-puts.o)
 .debug_line    0x000000000000831d      0x155 /usr/local/xenon/xenon/lib/32/libc.a(lib_a-reent.o)
 .debug_line    0x0000000000008472      0x1c8 /usr/local/xenon/xenon/lib/32/libc.a(lib_a-refill.o)
 .debug_line    0x000000000000863a      0x175 /usr/local/xenon/xenon/lib/32/libc.a(lib_a-sbrkr.o)
 .debug_line    0x00000000000087af      0x1dd /usr/local/xenon/xenon/lib/32/libc.a(lib_a-snprintf.o)
 .debug_line    0x000000000000898c      0x1c6 /usr/local/xenon/xenon/lib/32/libc.a(lib_a-sprintf.o)
 .debug_line    0x0000000000008b52      0x1a7 /usr/local/xenon/xenon/lib/32/libc.a(lib_a-stdio.o)
 .debug_line    0x0000000000008cf9       0xdf /usr/local/xenon/xenon/lib/32/libc.a(lib_a-strcasecmp.o)
 .debug_line    0x0000000000008dd8       0xd4 /usr/local/xenon/xenon/lib/32/libc.a(lib_a-strcat.o)
 .debug_line    0x0000000000008eac       0xfb /usr/local/xenon/xenon/lib/32/libc.a(lib_a-strchr.o)
 .debug_line    0x0000000000008fa7       0xe1 /usr/local/xenon/xenon/lib/32/libc.a(lib_a-strcmp.o)
 .debug_line    0x0000000000009088       0xd3 /usr/local/xenon/xenon/lib/32/libc.a(lib_a-strcpy.o)
 .debug_line    0x000000000000915b      0x111 /usr/local/xenon/xenon/lib/32/libc.a(lib_a-strlcpy.o)
 .debug_line    0x000000000000926c      0x10e /usr/local/xenon/xenon/lib/32/libc.a(lib_a-strlen.o)
 .debug_line    0x000000000000937a      0x11b /usr/local/xenon/xenon/lib/32/libc.a(lib_a-strncasecmp.o)
 .debug_line    0x0000000000009495      0x143 /usr/local/xenon/xenon/lib/32/libc.a(lib_a-strncmp.o)
 .debug_line    0x00000000000095d8      0x125 /usr/local/xenon/xenon/lib/32/libc.a(lib_a-strncpy.o)
 .debug_line    0x00000000000096fd       0xd5 /usr/local/xenon/xenon/lib/32/libc.a(lib_a-strrchr.o)
 .debug_line    0x00000000000097d2      0x105 /usr/local/xenon/xenon/lib/32/libc.a(lib_a-strtok_r.o)
 .debug_line    0x00000000000098d7      0x1cf /usr/local/xenon/xenon/lib/32/libc.a(lib_a-strtol.o)
 .debug_line    0x0000000000009aa6      0x5c9 /usr/local/xenon/xenon/lib/32/libc.a(lib_a-svfprintf.o)
 .debug_line    0x000000000000a06f      0x3b7 /usr/local/xenon/xenon/lib/32/libc.a(lib_a-vfiprintf.o)
 .debug_line    0x000000000000a426      0x57d /usr/local/xenon/xenon/lib/32/libc.a(lib_a-vfprintf.o)
 .debug_line    0x000000000000a9a3      0x1a9 /usr/local/xenon/xenon/lib/32/libc.a(lib_a-wbuf.o)
 .debug_line    0x000000000000ab4c      0x178 /usr/local/xenon/xenon/lib/32/libc.a(lib_a-writer.o)
 .debug_line    0x000000000000acc4      0x19b /usr/local/xenon/xenon/lib/32/libc.a(lib_a-wsetup.o)
 .debug_line    0x000000000000ae5f       0xc9 /usr/local/xenon/xenon/lib/32/libc.a(lib_a-abort.o)
 .debug_line    0x000000000000af28      0x170 /usr/local/xenon/xenon/lib/32/libc.a(lib_a-__call_atexit.o)
 .debug_line    0x000000000000b098      0x176 /usr/local/xenon/xenon/lib/32/libc.a(lib_a-closer.o)
 .debug_line    0x000000000000b20e      0x53b /usr/local/xenon/xenon/lib/32/libc.a(lib_a-dtoa.o)
 .debug_line    0x000000000000b749      0x211 /usr/local/xenon/xenon/lib/32/libc.a(lib_a-fflush.o)
 .debug_line    0x000000000000b95a      0x219 /usr/local/xenon/xenon/lib/32/libc.a(lib_a-findfp.o)
 .debug_line    0x000000000000bb73      0x136 /usr/local/xenon/xenon/lib/32/libc.a(lib_a-flags.o)
 .debug_line    0x000000000000bca9      0x1a4 /usr/local/xenon/xenon/lib/32/libc.a(lib_a-freer.o)
 .debug_line    0x000000000000be4d      0x254 /usr/local/xenon/xenon/lib/32/libc.a(lib_a-fvwrite.o)
 .debug_line    0x000000000000c0a1      0x19e /usr/local/xenon/xenon/lib/32/libc.a(lib_a-fwalk.o)
 .debug_line    0x000000000000c23f      0x177 /usr/local/xenon/xenon/lib/32/libc.a(lib_a-isattyr.o)
 .debug_line    0x000000000000c3b6      0x19a /usr/local/xenon/xenon/lib/32/libc.a(lib_a-locale.o)
 .debug_line    0x000000000000c550      0x178 /usr/local/xenon/xenon/lib/32/libc.a(lib_a-lseekr.o)
 .debug_line    0x000000000000c6c8      0x170 /usr/local/xenon/xenon/lib/32/libc.a(lib_a-memmove.o)
 .debug_line    0x000000000000c838      0x52d /usr/local/xenon/xenon/lib/32/libc.a(lib_a-mprec.o)
 .debug_line    0x000000000000cd65      0x177 /usr/local/xenon/xenon/lib/32/libc.a(lib_a-readr.o)
 .debug_line    0x000000000000cedc      0x1f0 /usr/local/xenon/xenon/lib/32/libc.a(lib_a-reallocr.o)
 .debug_line    0x000000000000d0cc      0x1f6 /usr/local/xenon/xenon/lib/32/libc.a(lib_a-signal.o)
 .debug_line    0x000000000000d2c2      0x17d /usr/local/xenon/xenon/lib/32/libc.a(lib_a-signalr.o)
 .debug_line    0x000000000000d43f      0x140 /usr/local/xenon/xenon/lib/32/libc.a(lib_a-s_isinfd.o)
 .debug_line    0x000000000000d57f      0x13e /usr/local/xenon/xenon/lib/32/libc.a(lib_a-s_isnand.o)
 .debug_line    0x000000000000d6bd      0x129 /usr/local/xenon/xenon/lib/32/libc.a(lib_a-callocr.o)
 .debug_line    0x000000000000d7e6      0x199 /usr/local/xenon/xenon/lib/32/libc.a(lib_a-fclose.o)

.debug_loc      0x0000000000000000    0x176db
 .debug_loc     0x0000000000000000       0x27 /usr/local/xenon/lib/gcc/xenon/4.4.0/../../../../xenon/lib/../lib/crt1.o
 .debug_loc     0x0000000000000027       0x5a main.o
 .debug_loc     0x0000000000000081      0x1a8 /usr/local/xenon/usr/lib/libxenon.a(console.o)
 .debug_loc     0x0000000000000229      0x6db /usr/local/xenon/usr/lib/libxenon.a(newlib.o)
 .debug_loc     0x0000000000000904       0x80 /usr/local/xenon/usr/lib/libxenon.a(usbmain.o)
 .debug_loc     0x0000000000000984     0x2749 /usr/local/xenon/usr/lib/libxenon.a(tinyehci.o)
 .debug_loc     0x00000000000030cd       0x63 /usr/local/xenon/usr/lib/libxenon.a(xenon_uart.o)
 .debug_loc     0x0000000000003130      0x369 /usr/local/xenon/usr/lib/libxenon.a(xenos.o)
 .debug_loc     0x0000000000003499      0x23d /usr/local/xenon/usr/lib/libxenon.a(diskio.o)
 .debug_loc     0x00000000000036d6      0x363 /usr/local/xenon/usr/lib/libxenon.a(fat.o)
 .debug_loc     0x0000000000003a39     0x264c /usr/local/xenon/usr/lib/libxenon.a(fat_rb.o)
 .debug_loc     0x0000000000006085      0xcb4 /usr/local/xenon/usr/lib/libxenon.a(file_rb.o)
 .debug_loc     0x0000000000006d39      0x2ab /usr/local/xenon/usr/lib/libxenon.a(dir_rb.o)
 .debug_loc     0x0000000000006fe4      0xc1b /usr/local/xenon/usr/lib/libxenon.a(iso9660.o)
 .debug_loc     0x0000000000007bff      0x214 /usr/local/xenon/usr/lib/libxenon.a(lib_malloc.o)
 .debug_loc     0x0000000000007e13       0x26 /usr/local/xenon/usr/lib/libxenon.a(io.o)
 .debug_loc     0x0000000000007e39      0x136 /usr/local/xenon/usr/lib/libxenon.a(time.o)
 .debug_loc     0x0000000000007f6f      0xe71 /usr/local/xenon/usr/lib/libxenon.a(ohci.o)
 .debug_loc     0x0000000000008de0      0xe0e /usr/local/xenon/usr/lib/libxenon.a(usbd.o)
 .debug_loc     0x0000000000009bee       0x7e /usr/local/xenon/usr/lib/libxenon.a(usbdevs.o)
 .debug_loc     0x0000000000009c6c      0x1b7 /usr/local/xenon/usr/lib/libxenon.a(usbhid.o)
 .debug_loc     0x0000000000009e23      0x62b /usr/local/xenon/usr/lib/libxenon.a(usbhub.o)
 .debug_loc     0x000000000000a44e      0x28c /usr/local/xenon/usr/lib/libxenon.a(usb_os.o)
 .debug_loc     0x000000000000a6da      0x2a2 /usr/local/xenon/usr/lib/libxenon.a(unicode_rb.o)
 .debug_loc     0x000000000000a97c      0x104 /usr/local/xenon/usr/lib/libxenon.a(xenon_gpio.o)
 .debug_loc     0x000000000000aa80      0x3c3 /usr/local/xenon/usr/lib/libxenon.a(xenon_smc.o)
 .debug_loc     0x000000000000ae43       0x6d /usr/local/xenon/usr/lib/libxenon.a(xenon_config.o)
 .debug_loc     0x000000000000aeb0      0x354 /usr/local/xenon/usr/lib/libxenon.a(disk_rb.o)
 .debug_loc     0x000000000000b204      0x1a5 /usr/local/xenon/usr/lib/libxenon.a(lib_queue.o)
 .debug_loc     0x000000000000b3a9      0x132 /usr/local/xenon/usr/lib/libxenon.a(usbctrl.o)
 .debug_loc     0x000000000000b4db      0x2ee /usr/local/xenon/usr/lib/libxenon.a(usbdebug.o)
 .debug_loc     0x000000000000b7c9      0x53e /usr/local/xenon/usr/lib/libxenon.a(xenon_sfcx.o)
 .debug_loc     0x000000000000bd07       0xea /usr/local/xenon/usr/lib/libxenon.a(input.o)
 .debug_loc     0x000000000000bdf1       0xfa /usr/local/xenon/xenon/lib/32/libc.a(lib_a-assert.o)
 .debug_loc     0x000000000000beeb       0x61 /usr/local/xenon/xenon/lib/32/libc.a(lib_a-atoi.o)
 .debug_loc     0x000000000000bf4c       0x14 /usr/local/xenon/xenon/lib/32/libc.a(lib_a-errno.o)
 .debug_loc     0x000000000000bf60       0x32 /usr/local/xenon/xenon/lib/32/libc.a(lib_a-exit.o)
 .debug_loc     0x000000000000bf92       0x94 /usr/local/xenon/xenon/lib/32/libc.a(lib_a-fiprintf.o)
 .debug_loc     0x000000000000c026      0x15a /usr/local/xenon/xenon/lib/32/libc.a(lib_a-fopen.o)
 .debug_loc     0x000000000000c180       0x94 /usr/local/xenon/xenon/lib/32/libc.a(lib_a-fprintf.o)
 .debug_loc     0x000000000000c214      0x3d8 /usr/local/xenon/xenon/lib/32/libc.a(lib_a-fseek.o)
 .debug_loc     0x000000000000c5ec       0x81 /usr/local/xenon/xenon/lib/32/libc.a(lib_a-fstatr.o)
 .debug_loc     0x000000000000c66d      0x13a /usr/local/xenon/xenon/lib/32/libc.a(lib_a-makebuf.o)
 .debug_loc     0x000000000000c7a7       0x64 /usr/local/xenon/xenon/lib/32/libc.a(lib_a-malloc.o)
 .debug_loc     0x000000000000c80b      0x88f /usr/local/xenon/xenon/lib/32/libc.a(lib_a-mallocr.o)
 .debug_loc     0x000000000000d09a       0xd6 /usr/local/xenon/xenon/lib/32/libc.a(lib_a-memchr.o)
 .debug_loc     0x000000000000d170       0x79 /usr/local/xenon/xenon/lib/32/libc.a(lib_a-memcmp.o)
 .debug_loc     0x000000000000d1e9       0xf2 /usr/local/xenon/xenon/lib/32/libc.a(lib_a-memcpy.o)
 .debug_loc     0x000000000000d2db      0x108 /usr/local/xenon/xenon/lib/32/libc.a(lib_a-memset.o)
 .debug_loc     0x000000000000d3e3       0x94 /usr/local/xenon/xenon/lib/32/libc.a(lib_a-openr.o)
 .debug_loc     0x000000000000d477       0x8c /usr/local/xenon/xenon/lib/32/libc.a(lib_a-printf.o)
 .debug_loc     0x000000000000d503       0x6c /usr/local/xenon/xenon/lib/32/libc.a(lib_a-putchar.o)
 .debug_loc     0x000000000000d56f      0x15d /usr/local/xenon/xenon/lib/32/libc.a(lib_a-putc.o)
 .debug_loc     0x000000000000d6cc       0x96 /usr/local/xenon/xenon/lib/32/libc.a(lib_a-puts.o)
 .debug_loc     0x000000000000d762      0x137 /usr/local/xenon/xenon/lib/32/libc.a(lib_a-reent.o)
 .debug_loc     0x000000000000d899       0xe5 /usr/local/xenon/xenon/lib/32/libc.a(lib_a-refill.o)
 .debug_loc     0x000000000000d97e       0x6e /usr/local/xenon/xenon/lib/32/libc.a(lib_a-sbrkr.o)
 .debug_loc     0x000000000000d9ec      0x211 /usr/local/xenon/xenon/lib/32/libc.a(lib_a-snprintf.o)
 .debug_loc     0x000000000000dbfd       0xaa /usr/local/xenon/xenon/lib/32/libc.a(lib_a-sprintf.o)
 .debug_loc     0x000000000000dca7      0x1ee /usr/local/xenon/xenon/lib/32/libc.a(lib_a-stdio.o)
 .debug_loc     0x000000000000de95       0xd6 /usr/local/xenon/xenon/lib/32/libc.a(lib_a-strcasecmp.o)
 .debug_loc     0x000000000000df6b       0x6e /usr/local/xenon/xenon/lib/32/libc.a(lib_a-strcat.o)
 .debug_loc     0x000000000000dfd9       0xc0 /usr/local/xenon/xenon/lib/32/libc.a(lib_a-strchr.o)
 .debug_loc     0x000000000000e099       0x6e /usr/local/xenon/xenon/lib/32/libc.a(lib_a-strcmp.o)
 .debug_loc     0x000000000000e107       0x5b /usr/local/xenon/xenon/lib/32/libc.a(lib_a-strcpy.o)
 .debug_loc     0x000000000000e162       0xcd /usr/local/xenon/xenon/lib/32/libc.a(lib_a-strlcpy.o)
 .debug_loc     0x000000000000e22f       0x3d /usr/local/xenon/xenon/lib/32/libc.a(lib_a-strlen.o)
 .debug_loc     0x000000000000e26c       0xa2 /usr/local/xenon/xenon/lib/32/libc.a(lib_a-strncasecmp.o)
 .debug_loc     0x000000000000e30e      0x110 /usr/local/xenon/xenon/lib/32/libc.a(lib_a-strncmp.o)
 .debug_loc     0x000000000000e41e      0x10b /usr/local/xenon/xenon/lib/32/libc.a(lib_a-strncpy.o)
 .debug_loc     0x000000000000e529       0xb0 /usr/local/xenon/xenon/lib/32/libc.a(lib_a-strrchr.o)
 .debug_loc     0x000000000000e5d9      0x15a /usr/local/xenon/xenon/lib/32/libc.a(lib_a-strtok_r.o)
 .debug_loc     0x000000000000e733      0x25c /usr/local/xenon/xenon/lib/32/libc.a(lib_a-strtol.o)
 .debug_loc     0x000000000000e98f     0x1916 /usr/local/xenon/xenon/lib/32/libc.a(lib_a-svfprintf.o)
 .debug_loc     0x00000000000102a5      0xf7a /usr/local/xenon/xenon/lib/32/libc.a(lib_a-vfiprintf.o)
 .debug_loc     0x000000000001121f     0x18e3 /usr/local/xenon/xenon/lib/32/libc.a(lib_a-vfprintf.o)
 .debug_loc     0x0000000000012b02      0x108 /usr/local/xenon/xenon/lib/32/libc.a(lib_a-wbuf.o)
 .debug_loc     0x0000000000012c0a       0x94 /usr/local/xenon/xenon/lib/32/libc.a(lib_a-writer.o)
 .debug_loc     0x0000000000012c9e       0x71 /usr/local/xenon/xenon/lib/32/libc.a(lib_a-wsetup.o)
 .debug_loc     0x0000000000012d0f       0x14 /usr/local/xenon/xenon/lib/32/libc.a(lib_a-abort.o)
 .debug_loc     0x0000000000012d23      0x181 /usr/local/xenon/xenon/lib/32/libc.a(lib_a-__call_atexit.o)
 .debug_loc     0x0000000000012ea4       0x6e /usr/local/xenon/xenon/lib/32/libc.a(lib_a-closer.o)
 .debug_loc     0x0000000000012f12     0x1544 /usr/local/xenon/xenon/lib/32/libc.a(lib_a-dtoa.o)
 .debug_loc     0x0000000000014456      0x1c8 /usr/local/xenon/xenon/lib/32/libc.a(lib_a-fflush.o)
 .debug_loc     0x000000000001461e      0x280 /usr/local/xenon/xenon/lib/32/libc.a(lib_a-findfp.o)
 .debug_loc     0x000000000001489e       0xe6 /usr/local/xenon/xenon/lib/32/libc.a(lib_a-flags.o)
 .debug_loc     0x0000000000014984      0x3aa /usr/local/xenon/xenon/lib/32/libc.a(lib_a-freer.o)
 .debug_loc     0x0000000000014d2e      0x3a3 /usr/local/xenon/xenon/lib/32/libc.a(lib_a-fvwrite.o)
 .debug_loc     0x00000000000150d1      0x122 /usr/local/xenon/xenon/lib/32/libc.a(lib_a-fwalk.o)
 .debug_loc     0x00000000000151f3       0x6e /usr/local/xenon/xenon/lib/32/libc.a(lib_a-isattyr.o)
 .debug_loc     0x0000000000015261      0x15a /usr/local/xenon/xenon/lib/32/libc.a(lib_a-locale.o)
 .debug_loc     0x00000000000153bb       0x94 /usr/local/xenon/xenon/lib/32/libc.a(lib_a-lseekr.o)
 .debug_loc     0x000000000001544f      0x155 /usr/local/xenon/xenon/lib/32/libc.a(lib_a-memmove.o)
 .debug_loc     0x00000000000155a4     0x12ec /usr/local/xenon/xenon/lib/32/libc.a(lib_a-mprec.o)
 .debug_loc     0x0000000000016890       0x94 /usr/local/xenon/xenon/lib/32/libc.a(lib_a-readr.o)
 .debug_loc     0x0000000000016924      0x7ac /usr/local/xenon/xenon/lib/32/libc.a(lib_a-reallocr.o)
 .debug_loc     0x00000000000170d0      0x31d /usr/local/xenon/xenon/lib/32/libc.a(lib_a-signal.o)
 .debug_loc     0x00000000000173ed       0xa8 /usr/local/xenon/xenon/lib/32/libc.a(lib_a-signalr.o)
 .debug_loc     0x0000000000017495       0x53 /usr/local/xenon/xenon/lib/32/libc.a(lib_a-s_isinfd.o)
 .debug_loc     0x00000000000174e8       0x28 /usr/local/xenon/xenon/lib/32/libc.a(lib_a-s_isnand.o)
 .debug_loc     0x0000000000017510       0xe9 /usr/local/xenon/xenon/lib/32/libc.a(lib_a-callocr.o)
 .debug_loc     0x00000000000175f9       0xe2 /usr/local/xenon/xenon/lib/32/libc.a(lib_a-fclose.o)

.debug_pubnames
                0x0000000000000000     0x299d
 .debug_pubnames
                0x0000000000000000       0x21 /usr/local/xenon/lib/gcc/xenon/4.4.0/../../../../xenon/lib/../lib/crt1.o
 .debug_pubnames
                0x0000000000000021       0x32 main.o
 .debug_pubnames
                0x0000000000000053       0xa8 /usr/local/xenon/usr/lib/libxenon.a(console.o)
 .debug_pubnames
                0x00000000000000fb      0x166 /usr/local/xenon/usr/lib/libxenon.a(newlib.o)
 .debug_pubnames
                0x0000000000000261       0x20 /usr/local/xenon/usr/lib/libxenon.a(vm.o)
 .debug_pubnames
                0x0000000000000281       0x60 /usr/local/xenon/usr/lib/libxenon.a(usbmain.o)
 .debug_pubnames
                0x00000000000002e1      0x4af /usr/local/xenon/usr/lib/libxenon.a(tinyehci.o)
 .debug_pubnames
                0x0000000000000790       0x30 /usr/local/xenon/usr/lib/libxenon.a(xenon_uart.o)
 .debug_pubnames
                0x00000000000007c0      0x20a /usr/local/xenon/usr/lib/libxenon.a(xenos.o)
 .debug_pubnames
                0x00000000000009ca       0x91 /usr/local/xenon/usr/lib/libxenon.a(diskio.o)
 .debug_pubnames
                0x0000000000000a5b       0xfc /usr/local/xenon/usr/lib/libxenon.a(fat.o)
 .debug_pubnames
                0x0000000000000b57      0x16a /usr/local/xenon/usr/lib/libxenon.a(fat_rb.o)
 .debug_pubnames
                0x0000000000000cc1       0xad /usr/local/xenon/usr/lib/libxenon.a(file_rb.o)
 .debug_pubnames
                0x0000000000000d6e       0x6b /usr/local/xenon/usr/lib/libxenon.a(dir_rb.o)
 .debug_pubnames
                0x0000000000000dd9      0x15b /usr/local/xenon/usr/lib/libxenon.a(iso9660.o)
 .debug_pubnames
                0x0000000000000f34       0x94 /usr/local/xenon/usr/lib/libxenon.a(lib_malloc.o)
 .debug_pubnames
                0x0000000000000fc8       0x42 /usr/local/xenon/usr/lib/libxenon.a(io.o)
 .debug_pubnames
                0x000000000000100a       0x32 /usr/local/xenon/usr/lib/libxenon.a(time.o)
 .debug_pubnames
                0x000000000000103c       0x30 /usr/local/xenon/usr/lib/libxenon.a(ohci.o)
 .debug_pubnames
                0x000000000000106c      0x2bf /usr/local/xenon/usr/lib/libxenon.a(usbd.o)
 .debug_pubnames
                0x000000000000132b       0x36 /usr/local/xenon/usr/lib/libxenon.a(usbdevs.o)
 .debug_pubnames
                0x0000000000001361       0x24 /usr/local/xenon/usr/lib/libxenon.a(usbhid.o)
 .debug_pubnames
                0x0000000000001385       0x89 /usr/local/xenon/usr/lib/libxenon.a(usbhub.o)
 .debug_pubnames
                0x000000000000140e       0xfc /usr/local/xenon/usr/lib/libxenon.a(usb_os.o)
 .debug_pubnames
                0x000000000000150a       0x70 /usr/local/xenon/usr/lib/libxenon.a(unicode_rb.o)
 .debug_pubnames
                0x000000000000157a       0x52 /usr/local/xenon/usr/lib/libxenon.a(xenon_gpio.o)
 .debug_pubnames
                0x00000000000015cc      0x19f /usr/local/xenon/usr/lib/libxenon.a(xenon_smc.o)
 .debug_pubnames
                0x000000000000176b       0x98 /usr/local/xenon/usr/lib/libxenon.a(xenon_config.o)
 .debug_pubnames
                0x0000000000001803       0x85 /usr/local/xenon/usr/lib/libxenon.a(disk_rb.o)
 .debug_pubnames
                0x0000000000001888       0x5d /usr/local/xenon/usr/lib/libxenon.a(lib_queue.o)
 .debug_pubnames
                0x00000000000018e5       0x25 /usr/local/xenon/usr/lib/libxenon.a(usbctrl.o)
 .debug_pubnames
                0x000000000000190a       0x90 /usr/local/xenon/usr/lib/libxenon.a(usbdebug.o)
 .debug_pubnames
                0x000000000000199a      0x1a1 /usr/local/xenon/usr/lib/libxenon.a(xenon_sfcx.o)
 .debug_pubnames
                0x0000000000001b3b       0x42 /usr/local/xenon/usr/lib/libxenon.a(input.o)
 .debug_pubnames
                0x0000000000001b7d       0x31 /usr/local/xenon/xenon/lib/32/libc.a(lib_a-assert.o)
 .debug_pubnames
                0x0000000000001bae       0x27 /usr/local/xenon/xenon/lib/32/libc.a(lib_a-atoi.o)
 .debug_pubnames
                0x0000000000001bd5       0x40 /usr/local/xenon/xenon/lib/32/libc.a(lib_a-ctype_.o)
 .debug_pubnames
                0x0000000000001c15       0x1e /usr/local/xenon/xenon/lib/32/libc.a(lib_a-errno.o)
 .debug_pubnames
                0x0000000000001c33       0x1b /usr/local/xenon/xenon/lib/32/libc.a(lib_a-exit.o)
 .debug_pubnames
                0x0000000000001c4e       0x2f /usr/local/xenon/xenon/lib/32/libc.a(lib_a-fiprintf.o)
 .debug_pubnames
                0x0000000000001c7d       0x29 /usr/local/xenon/xenon/lib/32/libc.a(lib_a-fopen.o)
 .debug_pubnames
                0x0000000000001ca6       0x2d /usr/local/xenon/xenon/lib/32/libc.a(lib_a-fprintf.o)
 .debug_pubnames
                0x0000000000001cd3       0x29 /usr/local/xenon/xenon/lib/32/libc.a(lib_a-fseek.o)
 .debug_pubnames
                0x0000000000001cfc       0x1f /usr/local/xenon/xenon/lib/32/libc.a(lib_a-fstatr.o)
 .debug_pubnames
                0x0000000000001d1b       0x39 /usr/local/xenon/xenon/lib/32/libc.a(lib_a-impure.o)
 .debug_pubnames
                0x0000000000001d54       0x23 /usr/local/xenon/xenon/lib/32/libc.a(lib_a-makebuf.o)
 .debug_pubnames
                0x0000000000001d77       0x26 /usr/local/xenon/xenon/lib/32/libc.a(lib_a-malloc.o)
 .debug_pubnames
                0x0000000000001d9d       0xce /usr/local/xenon/xenon/lib/32/libc.a(lib_a-mallocr.o)
 .debug_pubnames
                0x0000000000001e6b       0x1d /usr/local/xenon/xenon/lib/32/libc.a(lib_a-memchr.o)
 .debug_pubnames
                0x0000000000001e88       0x1d /usr/local/xenon/xenon/lib/32/libc.a(lib_a-memcmp.o)
 .debug_pubnames
                0x0000000000001ea5       0x1d /usr/local/xenon/xenon/lib/32/libc.a(lib_a-memcpy.o)
 .debug_pubnames
                0x0000000000001ec2       0x1d /usr/local/xenon/xenon/lib/32/libc.a(lib_a-memset.o)
 .debug_pubnames
                0x0000000000001edf       0x38 /usr/local/xenon/xenon/lib/32/libc.a(lib_a-mlock.o)
 .debug_pubnames
                0x0000000000001f17       0x1e /usr/local/xenon/xenon/lib/32/libc.a(lib_a-openr.o)
 .debug_pubnames
                0x0000000000001f35       0x2b /usr/local/xenon/xenon/lib/32/libc.a(lib_a-printf.o)
 .debug_pubnames
                0x0000000000001f60       0x2d /usr/local/xenon/xenon/lib/32/libc.a(lib_a-putchar.o)
 .debug_pubnames
                0x0000000000001f8d       0x27 /usr/local/xenon/xenon/lib/32/libc.a(lib_a-putc.o)
 .debug_pubnames
                0x0000000000001fb4       0x27 /usr/local/xenon/xenon/lib/32/libc.a(lib_a-puts.o)
 .debug_pubnames
                0x0000000000001fdb       0x52 /usr/local/xenon/xenon/lib/32/libc.a(lib_a-reent.o)
 .debug_pubnames
                0x000000000000202d       0x22 /usr/local/xenon/xenon/lib/32/libc.a(lib_a-refill.o)
 .debug_pubnames
                0x000000000000204f       0x1e /usr/local/xenon/xenon/lib/32/libc.a(lib_a-sbrkr.o)
 .debug_pubnames
                0x000000000000206d       0x2f /usr/local/xenon/xenon/lib/32/libc.a(lib_a-snprintf.o)
 .debug_pubnames
                0x000000000000209c       0x2d /usr/local/xenon/xenon/lib/32/libc.a(lib_a-sprintf.o)
 .debug_pubnames
                0x00000000000020c9       0x44 /usr/local/xenon/xenon/lib/32/libc.a(lib_a-stdio.o)
 .debug_pubnames
                0x000000000000210d       0x21 /usr/local/xenon/xenon/lib/32/libc.a(lib_a-strcasecmp.o)
 .debug_pubnames
                0x000000000000212e       0x1d /usr/local/xenon/xenon/lib/32/libc.a(lib_a-strcat.o)
 .debug_pubnames
                0x000000000000214b       0x1d /usr/local/xenon/xenon/lib/32/libc.a(lib_a-strchr.o)
 .debug_pubnames
                0x0000000000002168       0x1d /usr/local/xenon/xenon/lib/32/libc.a(lib_a-strcmp.o)
 .debug_pubnames
                0x0000000000002185       0x1d /usr/local/xenon/xenon/lib/32/libc.a(lib_a-strcpy.o)
 .debug_pubnames
                0x00000000000021a2       0x1e /usr/local/xenon/xenon/lib/32/libc.a(lib_a-strlcpy.o)
 .debug_pubnames
                0x00000000000021c0       0x1d /usr/local/xenon/xenon/lib/32/libc.a(lib_a-strlen.o)
 .debug_pubnames
                0x00000000000021dd       0x22 /usr/local/xenon/xenon/lib/32/libc.a(lib_a-strncasecmp.o)
 .debug_pubnames
                0x00000000000021ff       0x1e /usr/local/xenon/xenon/lib/32/libc.a(lib_a-strncmp.o)
 .debug_pubnames
                0x000000000000221d       0x1e /usr/local/xenon/xenon/lib/32/libc.a(lib_a-strncpy.o)
 .debug_pubnames
                0x000000000000223b       0x1e /usr/local/xenon/xenon/lib/32/libc.a(lib_a-strrchr.o)
 .debug_pubnames
                0x0000000000002259       0x2e /usr/local/xenon/xenon/lib/32/libc.a(lib_a-strtok_r.o)
 .debug_pubnames
                0x0000000000002287       0x2b /usr/local/xenon/xenon/lib/32/libc.a(lib_a-strtol.o)
 .debug_pubnames
                0x00000000000022b2       0x23 /usr/local/xenon/xenon/lib/32/libc.a(lib_a-svfprintf.o)
 .debug_pubnames
                0x00000000000022d5       0x31 /usr/local/xenon/xenon/lib/32/libc.a(lib_a-vfiprintf.o)
 .debug_pubnames
                0x0000000000002306       0x2f /usr/local/xenon/xenon/lib/32/libc.a(lib_a-vfprintf.o)
 .debug_pubnames
                0x0000000000002335       0x2c /usr/local/xenon/xenon/lib/32/libc.a(lib_a-wbuf.o)
 .debug_pubnames
                0x0000000000002361       0x1f /usr/local/xenon/xenon/lib/32/libc.a(lib_a-writer.o)
 .debug_pubnames
                0x0000000000002380       0x22 /usr/local/xenon/xenon/lib/32/libc.a(lib_a-wsetup.o)
 .debug_pubnames
                0x00000000000023a2       0x1c /usr/local/xenon/xenon/lib/32/libc.a(lib_a-abort.o)
 .debug_pubnames
                0x00000000000023be       0x27 /usr/local/xenon/xenon/lib/32/libc.a(lib_a-__call_atexit.o)
 .debug_pubnames
                0x00000000000023e5       0x1f /usr/local/xenon/xenon/lib/32/libc.a(lib_a-closer.o)
 .debug_pubnames
                0x0000000000002404       0x1e /usr/local/xenon/xenon/lib/32/libc.a(lib_a-dtoa.o)
 .debug_pubnames
                0x0000000000002422       0x2b /usr/local/xenon/xenon/lib/32/libc.a(lib_a-fflush.o)
 .debug_pubnames
                0x000000000000244d       0xdb /usr/local/xenon/xenon/lib/32/libc.a(lib_a-findfp.o)
 .debug_pubnames
                0x0000000000002528       0x1f /usr/local/xenon/xenon/lib/32/libc.a(lib_a-flags.o)
 .debug_pubnames
                0x0000000000002547       0x31 /usr/local/xenon/xenon/lib/32/libc.a(lib_a-freer.o)
 .debug_pubnames
                0x0000000000002578       0x23 /usr/local/xenon/xenon/lib/32/libc.a(lib_a-fvwrite.o)
 .debug_pubnames
                0x000000000000259b       0x2e /usr/local/xenon/xenon/lib/32/libc.a(lib_a-fwalk.o)
 .debug_pubnames
                0x00000000000025c9       0x20 /usr/local/xenon/xenon/lib/32/libc.a(lib_a-isattyr.o)
 .debug_pubnames
                0x00000000000025e9       0xc3 /usr/local/xenon/xenon/lib/32/libc.a(lib_a-locale.o)
 .debug_pubnames
                0x00000000000026ac       0x1f /usr/local/xenon/xenon/lib/32/libc.a(lib_a-lseekr.o)
 .debug_pubnames
                0x00000000000026cb       0x1e /usr/local/xenon/xenon/lib/32/libc.a(lib_a-memmove.o)
 .debug_pubnames
                0x00000000000026e9      0x13a /usr/local/xenon/xenon/lib/32/libc.a(lib_a-mprec.o)
 .debug_pubnames
                0x0000000000002823       0x1e /usr/local/xenon/xenon/lib/32/libc.a(lib_a-readr.o)
 .debug_pubnames
                0x0000000000002841       0x21 /usr/local/xenon/xenon/lib/32/libc.a(lib_a-reallocr.o)
 .debug_pubnames
                0x0000000000002862       0x86 /usr/local/xenon/xenon/lib/32/libc.a(lib_a-signal.o)
 .debug_pubnames
                0x00000000000028e8       0x2c /usr/local/xenon/xenon/lib/32/libc.a(lib_a-signalr.o)
 .debug_pubnames
                0x0000000000002914       0x1f /usr/local/xenon/xenon/lib/32/libc.a(lib_a-s_isinfd.o)
 .debug_pubnames
                0x0000000000002933       0x1f /usr/local/xenon/xenon/lib/32/libc.a(lib_a-s_isnand.o)
 .debug_pubnames
                0x0000000000002952       0x20 /usr/local/xenon/xenon/lib/32/libc.a(lib_a-callocr.o)
 .debug_pubnames
                0x0000000000002972       0x2b /usr/local/xenon/xenon/lib/32/libc.a(lib_a-fclose.o)

.debug_aranges  0x0000000000000000     0x1720
 .debug_aranges
                0x0000000000000000       0x20 /usr/local/xenon/lib/gcc/xenon/4.4.0/../../../../xenon/lib/../lib/crt1.o
 .debug_aranges
                0x0000000000000020       0x30 main.o
 .debug_aranges
                0x0000000000000050       0x58 /usr/local/xenon/usr/lib/libxenon.a(console.o)
 .debug_aranges
                0x00000000000000a8       0xc0 /usr/local/xenon/usr/lib/libxenon.a(newlib.o)
 .debug_aranges
                0x0000000000000168       0x30 /usr/local/xenon/usr/lib/libxenon.a(usbmain.o)
 .debug_aranges
                0x0000000000000198      0x1e8 /usr/local/xenon/usr/lib/libxenon.a(tinyehci.o)
 .debug_aranges
                0x0000000000000380       0x30 /usr/local/xenon/usr/lib/libxenon.a(xenon_uart.o)
 .debug_aranges
                0x00000000000003b0       0x80 /usr/local/xenon/usr/lib/libxenon.a(xenos.o)
 .debug_aranges
                0x0000000000000430       0x48 /usr/local/xenon/usr/lib/libxenon.a(diskio.o)
 .debug_aranges
                0x0000000000000478       0x70 /usr/local/xenon/usr/lib/libxenon.a(fat.o)
 .debug_aranges
                0x00000000000004e8      0x138 /usr/local/xenon/usr/lib/libxenon.a(fat_rb.o)
 .debug_aranges
                0x0000000000000620       0x88 /usr/local/xenon/usr/lib/libxenon.a(file_rb.o)
 .debug_aranges
                0x00000000000006a8       0x48 /usr/local/xenon/usr/lib/libxenon.a(dir_rb.o)
 .debug_aranges
                0x00000000000006f0       0xa8 /usr/local/xenon/usr/lib/libxenon.a(iso9660.o)
 .debug_aranges
                0x0000000000000798       0x58 /usr/local/xenon/usr/lib/libxenon.a(lib_malloc.o)
 .debug_aranges
                0x00000000000007f0       0x38 /usr/local/xenon/usr/lib/libxenon.a(io.o)
 .debug_aranges
                0x0000000000000828       0x30 /usr/local/xenon/usr/lib/libxenon.a(time.o)
 .debug_aranges
                0x0000000000000858       0x98 /usr/local/xenon/usr/lib/libxenon.a(ohci.o)
 .debug_aranges
                0x00000000000008f0      0x110 /usr/local/xenon/usr/lib/libxenon.a(usbd.o)
 .debug_aranges
                0x0000000000000a00       0x20 /usr/local/xenon/usr/lib/libxenon.a(usbdevs.o)
 .debug_aranges
                0x0000000000000a20       0x38 /usr/local/xenon/usr/lib/libxenon.a(usbhid.o)
 .debug_aranges
                0x0000000000000a58       0x78 /usr/local/xenon/usr/lib/libxenon.a(usbhub.o)
 .debug_aranges
                0x0000000000000ad0       0x78 /usr/local/xenon/usr/lib/libxenon.a(usb_os.o)
 .debug_aranges
                0x0000000000000b48       0x48 /usr/local/xenon/usr/lib/libxenon.a(unicode_rb.o)
 .debug_aranges
                0x0000000000000b90       0x30 /usr/local/xenon/usr/lib/libxenon.a(xenon_gpio.o)
 .debug_aranges
                0x0000000000000bc0       0x90 /usr/local/xenon/usr/lib/libxenon.a(xenon_smc.o)
 .debug_aranges
                0x0000000000000c50       0x38 /usr/local/xenon/usr/lib/libxenon.a(xenon_config.o)
 .debug_aranges
                0x0000000000000c88       0x48 /usr/local/xenon/usr/lib/libxenon.a(disk_rb.o)
 .debug_aranges
                0x0000000000000cd0       0x48 /usr/local/xenon/usr/lib/libxenon.a(lib_queue.o)
 .debug_aranges
                0x0000000000000d18       0x30 /usr/local/xenon/usr/lib/libxenon.a(usbctrl.o)
 .debug_aranges
                0x0000000000000d48       0x48 /usr/local/xenon/usr/lib/libxenon.a(usbdebug.o)
 .debug_aranges
                0x0000000000000d90       0xa8 /usr/local/xenon/usr/lib/libxenon.a(xenon_sfcx.o)
 .debug_aranges
                0x0000000000000e38       0x28 /usr/local/xenon/usr/lib/libxenon.a(input.o)
 .debug_aranges
                0x0000000000000e60       0x20 /usr/local/xenon/xenon/lib/32/libc.a(lib_a-assert.o)
 .debug_aranges
                0x0000000000000e80       0x20 /usr/local/xenon/xenon/lib/32/libc.a(lib_a-atoi.o)
 .debug_aranges
                0x0000000000000ea0       0x20 /usr/local/xenon/xenon/lib/32/libc.a(lib_a-errno.o)
 .debug_aranges
                0x0000000000000ec0       0x20 /usr/local/xenon/xenon/lib/32/libc.a(lib_a-exit.o)
 .debug_aranges
                0x0000000000000ee0       0x20 /usr/local/xenon/xenon/lib/32/libc.a(lib_a-fiprintf.o)
 .debug_aranges
                0x0000000000000f00       0x20 /usr/local/xenon/xenon/lib/32/libc.a(lib_a-fopen.o)
 .debug_aranges
                0x0000000000000f20       0x20 /usr/local/xenon/xenon/lib/32/libc.a(lib_a-fprintf.o)
 .debug_aranges
                0x0000000000000f40       0x20 /usr/local/xenon/xenon/lib/32/libc.a(lib_a-fseek.o)
 .debug_aranges
                0x0000000000000f60       0x20 /usr/local/xenon/xenon/lib/32/libc.a(lib_a-fstatr.o)
 .debug_aranges
                0x0000000000000f80       0x20 /usr/local/xenon/xenon/lib/32/libc.a(lib_a-makebuf.o)
 .debug_aranges
                0x0000000000000fa0       0x20 /usr/local/xenon/xenon/lib/32/libc.a(lib_a-malloc.o)
 .debug_aranges
                0x0000000000000fc0       0x20 /usr/local/xenon/xenon/lib/32/libc.a(lib_a-mallocr.o)
 .debug_aranges
                0x0000000000000fe0       0x20 /usr/local/xenon/xenon/lib/32/libc.a(lib_a-memchr.o)
 .debug_aranges
                0x0000000000001000       0x20 /usr/local/xenon/xenon/lib/32/libc.a(lib_a-memcmp.o)
 .debug_aranges
                0x0000000000001020       0x20 /usr/local/xenon/xenon/lib/32/libc.a(lib_a-memcpy.o)
 .debug_aranges
                0x0000000000001040       0x20 /usr/local/xenon/xenon/lib/32/libc.a(lib_a-memset.o)
 .debug_aranges
                0x0000000000001060       0x20 /usr/local/xenon/xenon/lib/32/libc.a(lib_a-mlock.o)
 .debug_aranges
                0x0000000000001080       0x20 /usr/local/xenon/xenon/lib/32/libc.a(lib_a-openr.o)
 .debug_aranges
                0x00000000000010a0       0x20 /usr/local/xenon/xenon/lib/32/libc.a(lib_a-printf.o)
 .debug_aranges
                0x00000000000010c0       0x20 /usr/local/xenon/xenon/lib/32/libc.a(lib_a-putchar.o)
 .debug_aranges
                0x00000000000010e0       0x20 /usr/local/xenon/xenon/lib/32/libc.a(lib_a-putc.o)
 .debug_aranges
                0x0000000000001100       0x20 /usr/local/xenon/xenon/lib/32/libc.a(lib_a-puts.o)
 .debug_aranges
                0x0000000000001120       0x20 /usr/local/xenon/xenon/lib/32/libc.a(lib_a-reent.o)
 .debug_aranges
                0x0000000000001140       0x20 /usr/local/xenon/xenon/lib/32/libc.a(lib_a-refill.o)
 .debug_aranges
                0x0000000000001160       0x20 /usr/local/xenon/xenon/lib/32/libc.a(lib_a-sbrkr.o)
 .debug_aranges
                0x0000000000001180       0x20 /usr/local/xenon/xenon/lib/32/libc.a(lib_a-snprintf.o)
 .debug_aranges
                0x00000000000011a0       0x20 /usr/local/xenon/xenon/lib/32/libc.a(lib_a-sprintf.o)
 .debug_aranges
                0x00000000000011c0       0x20 /usr/local/xenon/xenon/lib/32/libc.a(lib_a-stdio.o)
 .debug_aranges
                0x00000000000011e0       0x20 /usr/local/xenon/xenon/lib/32/libc.a(lib_a-strcasecmp.o)
 .debug_aranges
                0x0000000000001200       0x20 /usr/local/xenon/xenon/lib/32/libc.a(lib_a-strcat.o)
 .debug_aranges
                0x0000000000001220       0x20 /usr/local/xenon/xenon/lib/32/libc.a(lib_a-strchr.o)
 .debug_aranges
                0x0000000000001240       0x20 /usr/local/xenon/xenon/lib/32/libc.a(lib_a-strcmp.o)
 .debug_aranges
                0x0000000000001260       0x20 /usr/local/xenon/xenon/lib/32/libc.a(lib_a-strcpy.o)
 .debug_aranges
                0x0000000000001280       0x20 /usr/local/xenon/xenon/lib/32/libc.a(lib_a-strlcpy.o)
 .debug_aranges
                0x00000000000012a0       0x20 /usr/local/xenon/xenon/lib/32/libc.a(lib_a-strlen.o)
 .debug_aranges
                0x00000000000012c0       0x20 /usr/local/xenon/xenon/lib/32/libc.a(lib_a-strncasecmp.o)
 .debug_aranges
                0x00000000000012e0       0x20 /usr/local/xenon/xenon/lib/32/libc.a(lib_a-strncmp.o)
 .debug_aranges
                0x0000000000001300       0x20 /usr/local/xenon/xenon/lib/32/libc.a(lib_a-strncpy.o)
 .debug_aranges
                0x0000000000001320       0x20 /usr/local/xenon/xenon/lib/32/libc.a(lib_a-strrchr.o)
 .debug_aranges
                0x0000000000001340       0x20 /usr/local/xenon/xenon/lib/32/libc.a(lib_a-strtok_r.o)
 .debug_aranges
                0x0000000000001360       0x20 /usr/local/xenon/xenon/lib/32/libc.a(lib_a-strtol.o)
 .debug_aranges
                0x0000000000001380       0x20 /usr/local/xenon/xenon/lib/32/libc.a(lib_a-svfprintf.o)
 .debug_aranges
                0x00000000000013a0       0x20 /usr/local/xenon/xenon/lib/32/libc.a(lib_a-vfiprintf.o)
 .debug_aranges
                0x00000000000013c0       0x20 /usr/local/xenon/xenon/lib/32/libc.a(lib_a-vfprintf.o)
 .debug_aranges
                0x00000000000013e0       0x20 /usr/local/xenon/xenon/lib/32/libc.a(lib_a-wbuf.o)
 .debug_aranges
                0x0000000000001400       0x20 /usr/local/xenon/xenon/lib/32/libc.a(lib_a-writer.o)
 .debug_aranges
                0x0000000000001420       0x20 /usr/local/xenon/xenon/lib/32/libc.a(lib_a-wsetup.o)
 .debug_aranges
                0x0000000000001440       0x20 /usr/local/xenon/xenon/lib/32/libc.a(lib_a-abort.o)
 .debug_aranges
                0x0000000000001460       0x20 /usr/local/xenon/xenon/lib/32/libc.a(lib_a-__call_atexit.o)
 .debug_aranges
                0x0000000000001480       0x20 /usr/local/xenon/xenon/lib/32/libc.a(lib_a-closer.o)
 .debug_aranges
                0x00000000000014a0       0x20 /usr/local/xenon/xenon/lib/32/libc.a(lib_a-dtoa.o)
 .debug_aranges
                0x00000000000014c0       0x20 /usr/local/xenon/xenon/lib/32/libc.a(lib_a-fflush.o)
 .debug_aranges
                0x00000000000014e0       0x20 /usr/local/xenon/xenon/lib/32/libc.a(lib_a-findfp.o)
 .debug_aranges
                0x0000000000001500       0x20 /usr/local/xenon/xenon/lib/32/libc.a(lib_a-flags.o)
 .debug_aranges
                0x0000000000001520       0x20 /usr/local/xenon/xenon/lib/32/libc.a(lib_a-freer.o)
 .debug_aranges
                0x0000000000001540       0x20 /usr/local/xenon/xenon/lib/32/libc.a(lib_a-fvwrite.o)
 .debug_aranges
                0x0000000000001560       0x20 /usr/local/xenon/xenon/lib/32/libc.a(lib_a-fwalk.o)
 .debug_aranges
                0x0000000000001580       0x20 /usr/local/xenon/xenon/lib/32/libc.a(lib_a-isattyr.o)
 .debug_aranges
                0x00000000000015a0       0x20 /usr/local/xenon/xenon/lib/32/libc.a(lib_a-locale.o)
 .debug_aranges
                0x00000000000015c0       0x20 /usr/local/xenon/xenon/lib/32/libc.a(lib_a-lseekr.o)
 .debug_aranges
                0x00000000000015e0       0x20 /usr/local/xenon/xenon/lib/32/libc.a(lib_a-memmove.o)
 .debug_aranges
                0x0000000000001600       0x20 /usr/local/xenon/xenon/lib/32/libc.a(lib_a-mprec.o)
 .debug_aranges
                0x0000000000001620       0x20 /usr/local/xenon/xenon/lib/32/libc.a(lib_a-readr.o)
 .debug_aranges
                0x0000000000001640       0x20 /usr/local/xenon/xenon/lib/32/libc.a(lib_a-reallocr.o)
 .debug_aranges
                0x0000000000001660       0x20 /usr/local/xenon/xenon/lib/32/libc.a(lib_a-signal.o)
 .debug_aranges
                0x0000000000001680       0x20 /usr/local/xenon/xenon/lib/32/libc.a(lib_a-signalr.o)
 .debug_aranges
                0x00000000000016a0       0x20 /usr/local/xenon/xenon/lib/32/libc.a(lib_a-s_isinfd.o)
 .debug_aranges
                0x00000000000016c0       0x20 /usr/local/xenon/xenon/lib/32/libc.a(lib_a-s_isnand.o)
 .debug_aranges
                0x00000000000016e0       0x20 /usr/local/xenon/xenon/lib/32/libc.a(lib_a-callocr.o)
 .debug_aranges
                0x0000000000001700       0x20 /usr/local/xenon/xenon/lib/32/libc.a(lib_a-fclose.o)

.debug_ranges   0x0000000000000000     0x2888
 .debug_ranges  0x0000000000000000       0x18 /usr/local/xenon/lib/gcc/xenon/4.4.0/../../../../xenon/lib/../lib/crt1.o
 .debug_ranges  0x0000000000000018       0x28 main.o
 .debug_ranges  0x0000000000000040      0x130 /usr/local/xenon/usr/lib/libxenon.a(console.o)
 .debug_ranges  0x0000000000000170      0x1a8 /usr/local/xenon/usr/lib/libxenon.a(newlib.o)
 .debug_ranges  0x0000000000000318       0x28 /usr/local/xenon/usr/lib/libxenon.a(usbmain.o)
 .debug_ranges  0x0000000000000340      0x5b0 /usr/local/xenon/usr/lib/libxenon.a(tinyehci.o)
 .debug_ranges  0x00000000000008f0       0x28 /usr/local/xenon/usr/lib/libxenon.a(xenon_uart.o)
 .debug_ranges  0x0000000000000918       0xc8 /usr/local/xenon/usr/lib/libxenon.a(xenos.o)
 .debug_ranges  0x00000000000009e0       0x40 /usr/local/xenon/usr/lib/libxenon.a(diskio.o)
 .debug_ranges  0x0000000000000a20       0x68 /usr/local/xenon/usr/lib/libxenon.a(fat.o)
 .debug_ranges  0x0000000000000a88      0x4e0 /usr/local/xenon/usr/lib/libxenon.a(fat_rb.o)
 .debug_ranges  0x0000000000000f68       0x80 /usr/local/xenon/usr/lib/libxenon.a(file_rb.o)
 .debug_ranges  0x0000000000000fe8       0x58 /usr/local/xenon/usr/lib/libxenon.a(dir_rb.o)
 .debug_ranges  0x0000000000001040      0x690 /usr/local/xenon/usr/lib/libxenon.a(iso9660.o)
 .debug_ranges  0x00000000000016d0       0xa0 /usr/local/xenon/usr/lib/libxenon.a(lib_malloc.o)
 .debug_ranges  0x0000000000001770       0x30 /usr/local/xenon/usr/lib/libxenon.a(io.o)
 .debug_ranges  0x00000000000017a0       0xe8 /usr/local/xenon/usr/lib/libxenon.a(time.o)
 .debug_ranges  0x0000000000001888      0x4a0 /usr/local/xenon/usr/lib/libxenon.a(ohci.o)
 .debug_ranges  0x0000000000001d28      0x120 /usr/local/xenon/usr/lib/libxenon.a(usbd.o)
 .debug_ranges  0x0000000000001e48       0x18 /usr/local/xenon/usr/lib/libxenon.a(usbdevs.o)
 .debug_ranges  0x0000000000001e60       0x30 /usr/local/xenon/usr/lib/libxenon.a(usbhid.o)
 .debug_ranges  0x0000000000001e90       0xb0 /usr/local/xenon/usr/lib/libxenon.a(usbhub.o)
 .debug_ranges  0x0000000000001f40       0x70 /usr/local/xenon/usr/lib/libxenon.a(usb_os.o)
 .debug_ranges  0x0000000000001fb0       0x40 /usr/local/xenon/usr/lib/libxenon.a(unicode_rb.o)
 .debug_ranges  0x0000000000001ff0       0x28 /usr/local/xenon/usr/lib/libxenon.a(xenon_gpio.o)
 .debug_ranges  0x0000000000002018       0x88 /usr/local/xenon/usr/lib/libxenon.a(xenon_smc.o)
 .debug_ranges  0x00000000000020a0       0x30 /usr/local/xenon/usr/lib/libxenon.a(xenon_config.o)
 .debug_ranges  0x00000000000020d0       0x68 /usr/local/xenon/usr/lib/libxenon.a(disk_rb.o)
 .debug_ranges  0x0000000000002138       0x40 /usr/local/xenon/usr/lib/libxenon.a(lib_queue.o)
 .debug_ranges  0x0000000000002178       0x98 /usr/local/xenon/usr/lib/libxenon.a(usbctrl.o)
 .debug_ranges  0x0000000000002210       0x40 /usr/local/xenon/usr/lib/libxenon.a(usbdebug.o)
 .debug_ranges  0x0000000000002250       0xa0 /usr/local/xenon/usr/lib/libxenon.a(xenon_sfcx.o)
 .debug_ranges  0x00000000000022f0       0x20 /usr/local/xenon/usr/lib/libxenon.a(input.o)
 .debug_ranges  0x0000000000002310       0x18 /usr/local/xenon/xenon/lib/32/libc.a(lib_a-fseek.o)
 .debug_ranges  0x0000000000002328       0x50 /usr/local/xenon/xenon/lib/32/libc.a(lib_a-mallocr.o)
 .debug_ranges  0x0000000000002378       0x18 /usr/local/xenon/xenon/lib/32/libc.a(lib_a-strcasecmp.o)
 .debug_ranges  0x0000000000002390       0x18 /usr/local/xenon/xenon/lib/32/libc.a(lib_a-strncasecmp.o)
 .debug_ranges  0x00000000000023a8      0x188 /usr/local/xenon/xenon/lib/32/libc.a(lib_a-svfprintf.o)
 .debug_ranges  0x0000000000002530       0x30 /usr/local/xenon/xenon/lib/32/libc.a(lib_a-vfiprintf.o)
 .debug_ranges  0x0000000000002560      0x190 /usr/local/xenon/xenon/lib/32/libc.a(lib_a-vfprintf.o)
 .debug_ranges  0x00000000000026f0       0x30 /usr/local/xenon/xenon/lib/32/libc.a(lib_a-__call_atexit.o)
 .debug_ranges  0x0000000000002720       0x50 /usr/local/xenon/xenon/lib/32/libc.a(lib_a-fflush.o)
 .debug_ranges  0x0000000000002770       0x20 /usr/local/xenon/xenon/lib/32/libc.a(lib_a-fvwrite.o)
 .debug_ranges  0x0000000000002790       0x60 /usr/local/xenon/xenon/lib/32/libc.a(lib_a-fwalk.o)
 .debug_ranges  0x00000000000027f0       0x80 /usr/local/xenon/xenon/lib/32/libc.a(lib_a-reallocr.o)
 .debug_ranges  0x0000000000002870       0x18 /usr/local/xenon/xenon/lib/32/libc.a(lib_a-callocr.o)

.debug_str      0x0000000000000000     0x65a6
 .debug_str     0x0000000000000000       0x89 /usr/local/xenon/lib/gcc/xenon/4.4.0/../../../../xenon/lib/../lib/crt1.o
 .debug_str     0x0000000000000089      0x405 main.o
                                        0x4d4 (size before relaxing)
 .debug_str     0x000000000000048e      0x186 /usr/local/xenon/usr/lib/libxenon.a(console.o)
                                        0x284 (size before relaxing)
 .debug_str     0x0000000000000614      0x2d0 /usr/local/xenon/usr/lib/libxenon.a(newlib.o)
                                        0x467 (size before relaxing)
 .debug_str     0x00000000000008e4       0x21 /usr/local/xenon/usr/lib/libxenon.a(vm.o)
                                         0xf0 (size before relaxing)
 .debug_str     0x0000000000000905      0x502 /usr/local/xenon/usr/lib/libxenon.a(usbmain.o)
                                        0x5ff (size before relaxing)
 .debug_str     0x0000000000000e07      0xb5d /usr/local/xenon/usr/lib/libxenon.a(tinyehci.o)
                                        0xee9 (size before relaxing)
 .debug_str     0x0000000000001964       0x32 /usr/local/xenon/usr/lib/libxenon.a(xenon_uart.o)
                                        0x10e (size before relaxing)
 .debug_str     0x0000000000001996      0x2e7 /usr/local/xenon/usr/lib/libxenon.a(xenos.o)
                                        0x3f6 (size before relaxing)
 .debug_str     0x0000000000001c7d       0x9b /usr/local/xenon/usr/lib/libxenon.a(diskio.o)
                                        0x3a3 (size before relaxing)
 .debug_str     0x0000000000001d18      0x19c /usr/local/xenon/usr/lib/libxenon.a(fat.o)
                                        0x4fa (size before relaxing)
 .debug_str     0x0000000000001eb4      0x67e /usr/local/xenon/usr/lib/libxenon.a(fat_rb.o)
                                        0x8dc (size before relaxing)
 .debug_str     0x0000000000002532      0x144 /usr/local/xenon/usr/lib/libxenon.a(file_rb.o)
                                        0x3aa (size before relaxing)
 .debug_str     0x0000000000002676       0x78 /usr/local/xenon/usr/lib/libxenon.a(dir_rb.o)
                                        0x2b6 (size before relaxing)
 .debug_str     0x00000000000026ee      0x354 /usr/local/xenon/usr/lib/libxenon.a(iso9660.o)
                                        0x716 (size before relaxing)
 .debug_str     0x0000000000002a42      0x1a4 /usr/local/xenon/usr/lib/libxenon.a(lib_malloc.o)
                                        0x2b4 (size before relaxing)
 .debug_str     0x0000000000002be6       0x28 /usr/local/xenon/usr/lib/libxenon.a(io.o)
                                        0x10b (size before relaxing)
 .debug_str     0x0000000000002c0e       0x2f /usr/local/xenon/usr/lib/libxenon.a(time.o)
                                        0x112 (size before relaxing)
 .debug_str     0x0000000000002c3d      0x77d /usr/local/xenon/usr/lib/libxenon.a(ohci.o)
                                        0xea6 (size before relaxing)
 .debug_str     0x00000000000033ba      0x378 /usr/local/xenon/usr/lib/libxenon.a(usbd.o)
                                        0xa97 (size before relaxing)
 .debug_str     0x0000000000003732       0xb8 /usr/local/xenon/usr/lib/libxenon.a(usbdevs.o)
                                        0x6c4 (size before relaxing)
 .debug_str     0x00000000000037ea      0x172 /usr/local/xenon/usr/lib/libxenon.a(usbhid.o)
                                        0x891 (size before relaxing)
 .debug_str     0x000000000000395c      0x264 /usr/local/xenon/usr/lib/libxenon.a(usbhub.o)
                                        0xb43 (size before relaxing)
 .debug_str     0x0000000000003bc0      0x115 /usr/local/xenon/usr/lib/libxenon.a(usb_os.o)
                                        0x20d (size before relaxing)
 .debug_str     0x0000000000003cd5       0x7a /usr/local/xenon/usr/lib/libxenon.a(unicode_rb.o)
                                        0x15d (size before relaxing)
 .debug_str     0x0000000000003d4f       0x59 /usr/local/xenon/usr/lib/libxenon.a(xenon_gpio.o)
                                        0x12e (size before relaxing)
 .debug_str     0x0000000000003da8      0x18d /usr/local/xenon/usr/lib/libxenon.a(xenon_smc.o)
                                        0x288 (size before relaxing)
 .debug_str     0x0000000000003f35      0x2b8 /usr/local/xenon/usr/lib/libxenon.a(xenon_config.o)
                                        0x3c8 (size before relaxing)
 .debug_str     0x00000000000041ed       0xce /usr/local/xenon/usr/lib/libxenon.a(disk_rb.o)
                                        0x21e (size before relaxing)
 .debug_str     0x00000000000042bb       0x5e /usr/local/xenon/usr/lib/libxenon.a(lib_queue.o)
                                        0x14c (size before relaxing)
 .debug_str     0x0000000000004319       0xe4 /usr/local/xenon/usr/lib/libxenon.a(usbctrl.o)
                                        0x86e (size before relaxing)
 .debug_str     0x00000000000043fd      0x146 /usr/local/xenon/usr/lib/libxenon.a(usbdebug.o)
                                        0x8fc (size before relaxing)
 .debug_str     0x0000000000004543      0x165 /usr/local/xenon/usr/lib/libxenon.a(xenon_sfcx.o)
                                        0x34b (size before relaxing)
 .debug_str     0x00000000000046a8       0x44 /usr/local/xenon/usr/lib/libxenon.a(input.o)
                                        0x100 (size before relaxing)
 .debug_str     0x00000000000046ec       0xab /usr/local/xenon/xenon/lib/32/libc.a(lib_a-assert.o)
                                        0x50a (size before relaxing)
 .debug_str     0x0000000000004797       0x47 /usr/local/xenon/xenon/lib/32/libc.a(lib_a-atoi.o)
                                        0x4d8 (size before relaxing)
 .debug_str     0x00000000000047de       0x9b /usr/local/xenon/xenon/lib/32/libc.a(lib_a-ctype_.o)
                                         0xba (size before relaxing)
 .debug_str     0x0000000000004879       0x8e /usr/local/xenon/xenon/lib/32/libc.a(lib_a-errno.o)
                                        0x4de (size before relaxing)
 .debug_str     0x0000000000004907       0x4d /usr/local/xenon/xenon/lib/32/libc.a(lib_a-exit.o)
                                        0x4e8 (size before relaxing)
 .debug_str     0x0000000000004954       0xd2 /usr/local/xenon/xenon/lib/32/libc.a(lib_a-fiprintf.o)
                                        0x541 (size before relaxing)
 .debug_str     0x0000000000004a26       0x49 /usr/local/xenon/xenon/lib/32/libc.a(lib_a-fopen.o)
                                        0x501 (size before relaxing)
 .debug_str     0x0000000000004a6f       0x47 /usr/local/xenon/xenon/lib/32/libc.a(lib_a-fprintf.o)
                                        0x53e (size before relaxing)
 .debug_str     0x0000000000004ab6       0x6b /usr/local/xenon/xenon/lib/32/libc.a(lib_a-fseek.o)
                                        0x60e (size before relaxing)
 .debug_str     0x0000000000004b21       0x96 /usr/local/xenon/xenon/lib/32/libc.a(lib_a-fstatr.o)
                                        0x5cd (size before relaxing)
 .debug_str     0x0000000000004bb7       0x47 /usr/local/xenon/xenon/lib/32/libc.a(lib_a-impure.o)
                                        0x4f6 (size before relaxing)
 .debug_str     0x0000000000004bfe       0x54 /usr/local/xenon/xenon/lib/32/libc.a(lib_a-makebuf.o)
                                        0x5e2 (size before relaxing)
 .debug_str     0x0000000000004c52       0x48 /usr/local/xenon/xenon/lib/32/libc.a(lib_a-malloc.o)
                                        0x4f8 (size before relaxing)
 .debug_str     0x0000000000004c9a      0x203 /usr/local/xenon/xenon/lib/32/libc.a(lib_a-mallocr.o)
                                        0x6cd (size before relaxing)
 .debug_str     0x0000000000004e9d       0x9e /usr/local/xenon/xenon/lib/32/libc.a(lib_a-memchr.o)
                                        0x146 (size before relaxing)
 .debug_str     0x0000000000004f3b       0x3c /usr/local/xenon/xenon/lib/32/libc.a(lib_a-memcmp.o)
                                        0x12c (size before relaxing)
 .debug_str     0x0000000000004f77       0x6a /usr/local/xenon/xenon/lib/32/libc.a(lib_a-memcpy.o)
                                        0x153 (size before relaxing)
 .debug_str     0x0000000000004fe1       0x50 /usr/local/xenon/xenon/lib/32/libc.a(lib_a-memset.o)
                                        0x140 (size before relaxing)
 .debug_str     0x0000000000005031       0x6e /usr/local/xenon/xenon/lib/32/libc.a(lib_a-mlock.o)
                                        0x4ff (size before relaxing)
 .debug_str     0x000000000000509f       0x42 /usr/local/xenon/xenon/lib/32/libc.a(lib_a-openr.o)
                                        0x4e8 (size before relaxing)
 .debug_str     0x00000000000050e1       0x45 /usr/local/xenon/xenon/lib/32/libc.a(lib_a-printf.o)
                                        0x536 (size before relaxing)
 .debug_str     0x0000000000005126       0x4f /usr/local/xenon/xenon/lib/32/libc.a(lib_a-putchar.o)
                                        0x4eb (size before relaxing)
 .debug_str     0x0000000000005175       0x46 /usr/local/xenon/xenon/lib/32/libc.a(lib_a-putc.o)
                                        0x4ee (size before relaxing)
 .debug_str     0x00000000000051bb       0x82 /usr/local/xenon/xenon/lib/32/libc.a(lib_a-puts.o)
                                        0x525 (size before relaxing)
 .debug_str     0x000000000000523d       0x74 /usr/local/xenon/xenon/lib/32/libc.a(lib_a-reent.o)
                                        0x51b (size before relaxing)
 .debug_str     0x00000000000052b1       0x4e /usr/local/xenon/xenon/lib/32/libc.a(lib_a-refill.o)
                                        0x4f6 (size before relaxing)
 .debug_str     0x00000000000052ff       0x42 /usr/local/xenon/xenon/lib/32/libc.a(lib_a-sbrkr.o)
                                        0x4e7 (size before relaxing)
 .debug_str     0x0000000000005341       0x52 /usr/local/xenon/xenon/lib/32/libc.a(lib_a-snprintf.o)
                                        0x54d (size before relaxing)
 .debug_str     0x0000000000005393       0x4f /usr/local/xenon/xenon/lib/32/libc.a(lib_a-sprintf.o)
                                        0x53e (size before relaxing)
 .debug_str     0x00000000000053e2       0x5c /usr/local/xenon/xenon/lib/32/libc.a(lib_a-stdio.o)
                                        0x50d (size before relaxing)
 .debug_str     0x000000000000543e       0x4b /usr/local/xenon/xenon/lib/32/libc.a(lib_a-strcasecmp.o)
                                        0x13b (size before relaxing)
 .debug_str     0x0000000000005489       0x4e /usr/local/xenon/xenon/lib/32/libc.a(lib_a-strcat.o)
                                        0x130 (size before relaxing)
 .debug_str     0x00000000000054d7       0x43 /usr/local/xenon/xenon/lib/32/libc.a(lib_a-strchr.o)
                                        0x137 (size before relaxing)
 .debug_str     0x000000000000551a       0x43 /usr/local/xenon/xenon/lib/32/libc.a(lib_a-strcmp.o)
                                        0x125 (size before relaxing)
 .debug_str     0x000000000000555d       0x43 /usr/local/xenon/xenon/lib/32/libc.a(lib_a-strcpy.o)
                                        0x147 (size before relaxing)
 .debug_str     0x00000000000055a0       0x45 /usr/local/xenon/xenon/lib/32/libc.a(lib_a-strlcpy.o)
                                        0x12e (size before relaxing)
 .debug_str     0x00000000000055e5       0x43 /usr/local/xenon/xenon/lib/32/libc.a(lib_a-strlen.o)
                                        0x13f (size before relaxing)
 .debug_str     0x0000000000005628       0x4d /usr/local/xenon/xenon/lib/32/libc.a(lib_a-strncasecmp.o)
                                        0x144 (size before relaxing)
 .debug_str     0x0000000000005675       0x45 /usr/local/xenon/xenon/lib/32/libc.a(lib_a-strncmp.o)
                                        0x12e (size before relaxing)
 .debug_str     0x00000000000056ba       0x45 /usr/local/xenon/xenon/lib/32/libc.a(lib_a-strncpy.o)
                                        0x156 (size before relaxing)
 .debug_str     0x00000000000056ff       0x45 /usr/local/xenon/xenon/lib/32/libc.a(lib_a-strrchr.o)
                                        0x12c (size before relaxing)
 .debug_str     0x0000000000005744       0x6d /usr/local/xenon/xenon/lib/32/libc.a(lib_a-strtok_r.o)
                                        0x15e (size before relaxing)
 .debug_str     0x00000000000057b1       0x5b /usr/local/xenon/xenon/lib/32/libc.a(lib_a-strtol.o)
                                        0x51c (size before relaxing)
 .debug_str     0x000000000000580c      0x143 /usr/local/xenon/xenon/lib/32/libc.a(lib_a-svfprintf.o)
                                        0x6bd (size before relaxing)
 .debug_str     0x000000000000594f       0x27 /usr/local/xenon/xenon/lib/32/libc.a(lib_a-vfiprintf.o)
                                        0x64d (size before relaxing)
 .debug_str     0x0000000000005976       0x15 /usr/local/xenon/xenon/lib/32/libc.a(lib_a-vfprintf.o)
                                        0x6de (size before relaxing)
 .debug_str     0x000000000000598b       0x4b /usr/local/xenon/xenon/lib/32/libc.a(lib_a-wbuf.o)
                                        0x4ec (size before relaxing)
 .debug_str     0x00000000000059d6       0x44 /usr/local/xenon/xenon/lib/32/libc.a(lib_a-writer.o)
                                        0x4ea (size before relaxing)
 .debug_str     0x0000000000005a1a       0x47 /usr/local/xenon/xenon/lib/32/libc.a(lib_a-wsetup.o)
                                        0x4e8 (size before relaxing)
 .debug_str     0x0000000000005a61       0x41 /usr/local/xenon/xenon/lib/32/libc.a(lib_a-abort.o)
                                        0x123 (size before relaxing)
 .debug_str     0x0000000000005aa2       0x5a /usr/local/xenon/xenon/lib/32/libc.a(lib_a-__call_atexit.o)
                                        0x510 (size before relaxing)
 .debug_str     0x0000000000005afc       0x44 /usr/local/xenon/xenon/lib/32/libc.a(lib_a-closer.o)
                                        0x4da (size before relaxing)
 .debug_str     0x0000000000005b40       0xfd /usr/local/xenon/xenon/lib/32/libc.a(lib_a-dtoa.o)
                                        0x5dd (size before relaxing)
 .debug_str     0x0000000000005c3d       0x4c /usr/local/xenon/xenon/lib/32/libc.a(lib_a-fflush.o)
                                        0x50e (size before relaxing)
 .debug_str     0x0000000000005c89       0xfd /usr/local/xenon/xenon/lib/32/libc.a(lib_a-findfp.o)
                                        0x5d0 (size before relaxing)
 .debug_str     0x0000000000005d86       0x48 /usr/local/xenon/xenon/lib/32/libc.a(lib_a-flags.o)
                                        0x4dd (size before relaxing)
 .debug_str     0x0000000000005dce       0x36 /usr/local/xenon/xenon/lib/32/libc.a(lib_a-freer.o)
                                        0x61f (size before relaxing)
 .debug_str     0x0000000000005e04       0x58 /usr/local/xenon/xenon/lib/32/libc.a(lib_a-fvwrite.o)
                                        0x53f (size before relaxing)
 .debug_str     0x0000000000005e5c       0x5f /usr/local/xenon/xenon/lib/32/libc.a(lib_a-fwalk.o)
                                        0x511 (size before relaxing)
 .debug_str     0x0000000000005ebb       0x46 /usr/local/xenon/xenon/lib/32/libc.a(lib_a-isattyr.o)
                                        0x4dc (size before relaxing)
 .debug_str     0x0000000000005f01      0x1e7 /usr/local/xenon/xenon/lib/32/libc.a(lib_a-locale.o)
                                        0x685 (size before relaxing)
 .debug_str     0x00000000000060e8       0x44 /usr/local/xenon/xenon/lib/32/libc.a(lib_a-lseekr.o)
                                        0x4e8 (size before relaxing)
 .debug_str     0x000000000000612c       0x4e /usr/local/xenon/xenon/lib/32/libc.a(lib_a-memmove.o)
                                        0x15f (size before relaxing)
 .debug_str     0x000000000000617a       0xf9 /usr/local/xenon/xenon/lib/32/libc.a(lib_a-mprec.o)
                                        0x5ea (size before relaxing)
 .debug_str     0x0000000000006273       0x42 /usr/local/xenon/xenon/lib/32/libc.a(lib_a-readr.o)
                                        0x4e8 (size before relaxing)
 .debug_str     0x00000000000062b5       0x54 /usr/local/xenon/xenon/lib/32/libc.a(lib_a-reallocr.o)
                                        0x59f (size before relaxing)
 .debug_str     0x0000000000006309       0xe3 /usr/local/xenon/xenon/lib/32/libc.a(lib_a-signal.o)
                                        0x549 (size before relaxing)
 .debug_str     0x00000000000063ec       0x4e /usr/local/xenon/xenon/lib/32/libc.a(lib_a-signalr.o)
                                        0x4e4 (size before relaxing)
 .debug_str     0x000000000000643a       0xc0 /usr/local/xenon/xenon/lib/32/libc.a(lib_a-s_isinfd.o)
                                        0x17f (size before relaxing)
 .debug_str     0x00000000000064fa       0x47 /usr/local/xenon/xenon/lib/32/libc.a(lib_a-s_isnand.o)
                                        0x17f (size before relaxing)
 .debug_str     0x0000000000006541       0x19 /usr/local/xenon/xenon/lib/32/libc.a(lib_a-callocr.o)
                                        0x51e (size before relaxing)
 .debug_str     0x000000000000655a       0x4c /usr/local/xenon/xenon/lib/32/libc.a(lib_a-fclose.o)
                                        0x4f2 (size before relaxing)

.comment        0x0000000000000000      0x797
 .comment       0x0000000000000000       0x12 /usr/local/xenon/lib/gcc/xenon/4.4.0/../../../../xenon/lib/../lib/crt1.o
 .comment       0x0000000000000012       0x12 /usr/local/xenon/lib/gcc/xenon/4.4.0/32/crtbegin.o
 .comment       0x0000000000000024       0x11 main.o
                                         0x12 (size before relaxing)
 .comment       0x0000000000000035       0x12 /usr/local/xenon/usr/lib/libxenon.a(console.o)
 .comment       0x0000000000000047       0x12 /usr/local/xenon/usr/lib/libxenon.a(newlib.o)
 .comment       0x0000000000000059       0x12 /usr/local/xenon/usr/lib/libxenon.a(vm.o)
 .comment       0x000000000000006b       0x12 /usr/local/xenon/usr/lib/libxenon.a(usbmain.o)
 .comment       0x000000000000007d       0x12 /usr/local/xenon/usr/lib/libxenon.a(tinyehci.o)
 .comment       0x000000000000008f       0x12 /usr/local/xenon/usr/lib/libxenon.a(xenon_uart.o)
 .comment       0x00000000000000a1       0x12 /usr/local/xenon/usr/lib/libxenon.a(xenos.o)
 .comment       0x00000000000000b3       0x12 /usr/local/xenon/usr/lib/libxenon.a(diskio.o)
 .comment       0x00000000000000c5       0x12 /usr/local/xenon/usr/lib/libxenon.a(fat.o)
 .comment       0x00000000000000d7       0x12 /usr/local/xenon/usr/lib/libxenon.a(fat_rb.o)
 .comment       0x00000000000000e9       0x12 /usr/local/xenon/usr/lib/libxenon.a(file_rb.o)
 .comment       0x00000000000000fb       0x12 /usr/local/xenon/usr/lib/libxenon.a(dir_rb.o)
 .comment       0x000000000000010d       0x12 /usr/local/xenon/usr/lib/libxenon.a(iso9660.o)
 .comment       0x000000000000011f       0x12 /usr/local/xenon/usr/lib/libxenon.a(lib_malloc.o)
 .comment       0x0000000000000131       0x12 /usr/local/xenon/usr/lib/libxenon.a(io.o)
 .comment       0x0000000000000143       0x12 /usr/local/xenon/usr/lib/libxenon.a(time.o)
 .comment       0x0000000000000155       0x12 /usr/local/xenon/usr/lib/libxenon.a(ohci.o)
 .comment       0x0000000000000167       0x12 /usr/local/xenon/usr/lib/libxenon.a(usbd.o)
 .comment       0x0000000000000179       0x12 /usr/local/xenon/usr/lib/libxenon.a(usbdevs.o)
 .comment       0x000000000000018b       0x12 /usr/local/xenon/usr/lib/libxenon.a(usbhid.o)
 .comment       0x000000000000019d       0x12 /usr/local/xenon/usr/lib/libxenon.a(usbhub.o)
 .comment       0x00000000000001af       0x12 /usr/local/xenon/usr/lib/libxenon.a(usb_os.o)
 .comment       0x00000000000001c1       0x12 /usr/local/xenon/usr/lib/libxenon.a(unicode_rb.o)
 .comment       0x00000000000001d3       0x12 /usr/local/xenon/usr/lib/libxenon.a(xenon_gpio.o)
 .comment       0x00000000000001e5       0x12 /usr/local/xenon/usr/lib/libxenon.a(xenon_smc.o)
 .comment       0x00000000000001f7       0x12 /usr/local/xenon/usr/lib/libxenon.a(xenon_config.o)
 .comment       0x0000000000000209       0x12 /usr/local/xenon/usr/lib/libxenon.a(disk_rb.o)
 .comment       0x000000000000021b       0x12 /usr/local/xenon/usr/lib/libxenon.a(lib_queue.o)
 .comment       0x000000000000022d       0x12 /usr/local/xenon/usr/lib/libxenon.a(usbctrl.o)
 .comment       0x000000000000023f       0x12 /usr/local/xenon/usr/lib/libxenon.a(usbdebug.o)
 .comment       0x0000000000000251       0x12 /usr/local/xenon/usr/lib/libxenon.a(xenon_sfcx.o)
 .comment       0x0000000000000263       0x12 /usr/local/xenon/usr/lib/libxenon.a(input.o)
 .comment       0x0000000000000275       0x12 /usr/local/xenon/xenon/lib/32/libc.a(lib_a-assert.o)
 .comment       0x0000000000000287       0x12 /usr/local/xenon/xenon/lib/32/libc.a(lib_a-atoi.o)
 .comment       0x0000000000000299       0x12 /usr/local/xenon/xenon/lib/32/libc.a(lib_a-ctype_.o)
 .comment       0x00000000000002ab       0x12 /usr/local/xenon/xenon/lib/32/libc.a(lib_a-errno.o)
 .comment       0x00000000000002bd       0x12 /usr/local/xenon/xenon/lib/32/libc.a(lib_a-exit.o)
 .comment       0x00000000000002cf       0x12 /usr/local/xenon/xenon/lib/32/libc.a(lib_a-fiprintf.o)
 .comment       0x00000000000002e1       0x12 /usr/local/xenon/xenon/lib/32/libc.a(lib_a-fopen.o)
 .comment       0x00000000000002f3       0x12 /usr/local/xenon/xenon/lib/32/libc.a(lib_a-fprintf.o)
 .comment       0x0000000000000305       0x12 /usr/local/xenon/xenon/lib/32/libc.a(lib_a-fseek.o)
 .comment       0x0000000000000317       0x12 /usr/local/xenon/xenon/lib/32/libc.a(lib_a-fstatr.o)
 .comment       0x0000000000000329       0x12 /usr/local/xenon/xenon/lib/32/libc.a(lib_a-impure.o)
 .comment       0x000000000000033b       0x12 /usr/local/xenon/xenon/lib/32/libc.a(lib_a-makebuf.o)
 .comment       0x000000000000034d       0x12 /usr/local/xenon/xenon/lib/32/libc.a(lib_a-malloc.o)
 .comment       0x000000000000035f       0x12 /usr/local/xenon/xenon/lib/32/libc.a(lib_a-mallocr.o)
 .comment       0x0000000000000371       0x12 /usr/local/xenon/xenon/lib/32/libc.a(lib_a-memchr.o)
 .comment       0x0000000000000383       0x12 /usr/local/xenon/xenon/lib/32/libc.a(lib_a-memcmp.o)
 .comment       0x0000000000000395       0x12 /usr/local/xenon/xenon/lib/32/libc.a(lib_a-memcpy.o)
 .comment       0x00000000000003a7       0x12 /usr/local/xenon/xenon/lib/32/libc.a(lib_a-memset.o)
 .comment       0x00000000000003b9       0x12 /usr/local/xenon/xenon/lib/32/libc.a(lib_a-mlock.o)
 .comment       0x00000000000003cb       0x12 /usr/local/xenon/xenon/lib/32/libc.a(lib_a-openr.o)
 .comment       0x00000000000003dd       0x12 /usr/local/xenon/xenon/lib/32/libc.a(lib_a-printf.o)
 .comment       0x00000000000003ef       0x12 /usr/local/xenon/xenon/lib/32/libc.a(lib_a-putchar.o)
 .comment       0x0000000000000401       0x12 /usr/local/xenon/xenon/lib/32/libc.a(lib_a-putc.o)
 .comment       0x0000000000000413       0x12 /usr/local/xenon/xenon/lib/32/libc.a(lib_a-puts.o)
 .comment       0x0000000000000425       0x12 /usr/local/xenon/xenon/lib/32/libc.a(lib_a-reent.o)
 .comment       0x0000000000000437       0x12 /usr/local/xenon/xenon/lib/32/libc.a(lib_a-refill.o)
 .comment       0x0000000000000449       0x12 /usr/local/xenon/xenon/lib/32/libc.a(lib_a-sbrkr.o)
 .comment       0x000000000000045b       0x12 /usr/local/xenon/xenon/lib/32/libc.a(lib_a-snprintf.o)
 .comment       0x000000000000046d       0x12 /usr/local/xenon/xenon/lib/32/libc.a(lib_a-sprintf.o)
 .comment       0x000000000000047f       0x12 /usr/local/xenon/xenon/lib/32/libc.a(lib_a-stdio.o)
 .comment       0x0000000000000491       0x12 /usr/local/xenon/xenon/lib/32/libc.a(lib_a-strcasecmp.o)
 .comment       0x00000000000004a3       0x12 /usr/local/xenon/xenon/lib/32/libc.a(lib_a-strcat.o)
 .comment       0x00000000000004b5       0x12 /usr/local/xenon/xenon/lib/32/libc.a(lib_a-strchr.o)
 .comment       0x00000000000004c7       0x12 /usr/local/xenon/xenon/lib/32/libc.a(lib_a-strcmp.o)
 .comment       0x00000000000004d9       0x12 /usr/local/xenon/xenon/lib/32/libc.a(lib_a-strcpy.o)
 .comment       0x00000000000004eb       0x12 /usr/local/xenon/xenon/lib/32/libc.a(lib_a-strlcpy.o)
 .comment       0x00000000000004fd       0x12 /usr/local/xenon/xenon/lib/32/libc.a(lib_a-strlen.o)
 .comment       0x000000000000050f       0x12 /usr/local/xenon/xenon/lib/32/libc.a(lib_a-strncasecmp.o)
 .comment       0x0000000000000521       0x12 /usr/local/xenon/xenon/lib/32/libc.a(lib_a-strncmp.o)
 .comment       0x0000000000000533       0x12 /usr/local/xenon/xenon/lib/32/libc.a(lib_a-strncpy.o)
 .comment       0x0000000000000545       0x12 /usr/local/xenon/xenon/lib/32/libc.a(lib_a-strrchr.o)
 .comment       0x0000000000000557       0x12 /usr/local/xenon/xenon/lib/32/libc.a(lib_a-strtok_r.o)
 .comment       0x0000000000000569       0x12 /usr/local/xenon/xenon/lib/32/libc.a(lib_a-strtol.o)
 .comment       0x000000000000057b       0x12 /usr/local/xenon/xenon/lib/32/libc.a(lib_a-svfprintf.o)
 .comment       0x000000000000058d       0x12 /usr/local/xenon/xenon/lib/32/libc.a(lib_a-vfiprintf.o)
 .comment       0x000000000000059f       0x12 /usr/local/xenon/xenon/lib/32/libc.a(lib_a-vfprintf.o)
 .comment       0x00000000000005b1       0x12 /usr/local/xenon/xenon/lib/32/libc.a(lib_a-wbuf.o)
 .comment       0x00000000000005c3       0x12 /usr/local/xenon/xenon/lib/32/libc.a(lib_a-writer.o)
 .comment       0x00000000000005d5       0x12 /usr/local/xenon/xenon/lib/32/libc.a(lib_a-wsetup.o)
 .comment       0x00000000000005e7       0x12 /usr/local/xenon/xenon/lib/32/libc.a(lib_a-abort.o)
 .comment       0x00000000000005f9       0x12 /usr/local/xenon/xenon/lib/32/libc.a(lib_a-__call_atexit.o)
 .comment       0x000000000000060b       0x12 /usr/local/xenon/xenon/lib/32/libc.a(lib_a-closer.o)
 .comment       0x000000000000061d       0x12 /usr/local/xenon/xenon/lib/32/libc.a(lib_a-dtoa.o)
 .comment       0x000000000000062f       0x12 /usr/local/xenon/xenon/lib/32/libc.a(lib_a-fflush.o)
 .comment       0x0000000000000641       0x12 /usr/local/xenon/xenon/lib/32/libc.a(lib_a-findfp.o)
 .comment       0x0000000000000653       0x12 /usr/local/xenon/xenon/lib/32/libc.a(lib_a-flags.o)
 .comment       0x0000000000000665       0x12 /usr/local/xenon/xenon/lib/32/libc.a(lib_a-freer.o)
 .comment       0x0000000000000677       0x12 /usr/local/xenon/xenon/lib/32/libc.a(lib_a-fvwrite.o)
 .comment       0x0000000000000689       0x12 /usr/local/xenon/xenon/lib/32/libc.a(lib_a-fwalk.o)
 .comment       0x000000000000069b       0x12 /usr/local/xenon/xenon/lib/32/libc.a(lib_a-isattyr.o)
 .comment       0x00000000000006ad       0x12 /usr/local/xenon/xenon/lib/32/libc.a(lib_a-locale.o)
 .comment       0x00000000000006bf       0x12 /usr/local/xenon/xenon/lib/32/libc.a(lib_a-lseekr.o)
 .comment       0x00000000000006d1       0x12 /usr/local/xenon/xenon/lib/32/libc.a(lib_a-memmove.o)
 .comment       0x00000000000006e3       0x12 /usr/local/xenon/xenon/lib/32/libc.a(lib_a-mprec.o)
 .comment       0x00000000000006f5       0x12 /usr/local/xenon/xenon/lib/32/libc.a(lib_a-readr.o)
 .comment       0x0000000000000707       0x12 /usr/local/xenon/xenon/lib/32/libc.a(lib_a-reallocr.o)
 .comment       0x0000000000000719       0x12 /usr/local/xenon/xenon/lib/32/libc.a(lib_a-signal.o)
 .comment       0x000000000000072b       0x12 /usr/local/xenon/xenon/lib/32/libc.a(lib_a-signalr.o)
 .comment       0x000000000000073d       0x12 /usr/local/xenon/xenon/lib/32/libc.a(lib_a-s_isinfd.o)
 .comment       0x000000000000074f       0x12 /usr/local/xenon/xenon/lib/32/libc.a(lib_a-s_isnand.o)
 .comment       0x0000000000000761       0x12 /usr/local/xenon/xenon/lib/32/libc.a(lib_a-callocr.o)
 .comment       0x0000000000000773       0x12 /usr/local/xenon/xenon/lib/32/libc.a(lib_a-fclose.o)
 .comment       0x0000000000000785       0x12 /usr/local/xenon/lib/gcc/xenon/4.4.0/32/crtend.o

.note.GNU-stack
                0x0000000000000000        0x0
 .note.GNU-stack
                0x0000000000000000        0x0 /usr/local/xenon/lib/gcc/xenon/4.4.0/../../../../xenon/lib/../lib/crt1.o
 .note.GNU-stack
                0x0000000000000000        0x0 /usr/local/xenon/lib/gcc/xenon/4.4.0/32/crtbegin.o
 .note.GNU-stack
                0x0000000000000000        0x0 main.o
 .note.GNU-stack
                0x0000000000000000        0x0 /usr/local/xenon/usr/lib/libxenon.a(console.o)
 .note.GNU-stack
                0x0000000000000000        0x0 /usr/local/xenon/usr/lib/libxenon.a(newlib.o)
 .note.GNU-stack
                0x0000000000000000        0x0 /usr/local/xenon/usr/lib/libxenon.a(vm.o)
 .note.GNU-stack
                0x0000000000000000        0x0 /usr/local/xenon/usr/lib/libxenon.a(usbmain.o)
 .note.GNU-stack
                0x0000000000000000        0x0 /usr/local/xenon/usr/lib/libxenon.a(tinyehci.o)
 .note.GNU-stack
                0x0000000000000000        0x0 /usr/local/xenon/usr/lib/libxenon.a(xenon_uart.o)
 .note.GNU-stack
                0x0000000000000000        0x0 /usr/local/xenon/usr/lib/libxenon.a(xenos.o)
 .note.GNU-stack
                0x0000000000000000        0x0 /usr/local/xenon/usr/lib/libxenon.a(diskio.o)
 .note.GNU-stack
                0x0000000000000000        0x0 /usr/local/xenon/usr/lib/libxenon.a(fat.o)
 .note.GNU-stack
                0x0000000000000000        0x0 /usr/local/xenon/usr/lib/libxenon.a(fat_rb.o)
 .note.GNU-stack
                0x0000000000000000        0x0 /usr/local/xenon/usr/lib/libxenon.a(file_rb.o)
 .note.GNU-stack
                0x0000000000000000        0x0 /usr/local/xenon/usr/lib/libxenon.a(dir_rb.o)
 .note.GNU-stack
                0x0000000000000000        0x0 /usr/local/xenon/usr/lib/libxenon.a(iso9660.o)
 .note.GNU-stack
                0x0000000000000000        0x0 /usr/local/xenon/usr/lib/libxenon.a(lib_malloc.o)
 .note.GNU-stack
                0x0000000000000000        0x0 /usr/local/xenon/usr/lib/libxenon.a(io.o)
 .note.GNU-stack
                0x0000000000000000        0x0 /usr/local/xenon/usr/lib/libxenon.a(time.o)
 .note.GNU-stack
                0x0000000000000000        0x0 /usr/local/xenon/usr/lib/libxenon.a(ohci.o)
 .note.GNU-stack
                0x0000000000000000        0x0 /usr/local/xenon/usr/lib/libxenon.a(usbd.o)
 .note.GNU-stack
                0x0000000000000000        0x0 /usr/local/xenon/usr/lib/libxenon.a(usbdevs.o)
 .note.GNU-stack
                0x0000000000000000        0x0 /usr/local/xenon/usr/lib/libxenon.a(usbhid.o)
 .note.GNU-stack
                0x0000000000000000        0x0 /usr/local/xenon/usr/lib/libxenon.a(usbhub.o)
 .note.GNU-stack
                0x0000000000000000        0x0 /usr/local/xenon/usr/lib/libxenon.a(usb_os.o)
 .note.GNU-stack
                0x0000000000000000        0x0 /usr/local/xenon/usr/lib/libxenon.a(unicode_rb.o)
 .note.GNU-stack
                0x0000000000000000        0x0 /usr/local/xenon/usr/lib/libxenon.a(xenon_gpio.o)
 .note.GNU-stack
                0x0000000000000000        0x0 /usr/local/xenon/usr/lib/libxenon.a(xenon_smc.o)
 .note.GNU-stack
                0x0000000000000000        0x0 /usr/local/xenon/usr/lib/libxenon.a(xenon_config.o)
 .note.GNU-stack
                0x0000000000000000        0x0 /usr/local/xenon/usr/lib/libxenon.a(disk_rb.o)
 .note.GNU-stack
                0x0000000000000000        0x0 /usr/local/xenon/usr/lib/libxenon.a(lib_queue.o)
 .note.GNU-stack
                0x0000000000000000        0x0 /usr/local/xenon/usr/lib/libxenon.a(usbctrl.o)
 .note.GNU-stack
                0x0000000000000000        0x0 /usr/local/xenon/usr/lib/libxenon.a(usbdebug.o)
 .note.GNU-stack
                0x0000000000000000        0x0 /usr/local/xenon/usr/lib/libxenon.a(xenon_sfcx.o)
 .note.GNU-stack
                0x0000000000000000        0x0 /usr/local/xenon/usr/lib/libxenon.a(input.o)
 .note.GNU-stack
                0x0000000000000000        0x0 /usr/local/xenon/xenon/lib/32/libc.a(lib_a-assert.o)
 .note.GNU-stack
                0x0000000000000000        0x0 /usr/local/xenon/xenon/lib/32/libc.a(lib_a-atoi.o)
 .note.GNU-stack
                0x0000000000000000        0x0 /usr/local/xenon/xenon/lib/32/libc.a(lib_a-ctype_.o)
 .note.GNU-stack
                0x0000000000000000        0x0 /usr/local/xenon/xenon/lib/32/libc.a(lib_a-errno.o)
 .note.GNU-stack
                0x0000000000000000        0x0 /usr/local/xenon/xenon/lib/32/libc.a(lib_a-exit.o)
 .note.GNU-stack
                0x0000000000000000        0x0 /usr/local/xenon/xenon/lib/32/libc.a(lib_a-fiprintf.o)
 .note.GNU-stack
                0x0000000000000000        0x0 /usr/local/xenon/xenon/lib/32/libc.a(lib_a-fopen.o)
 .note.GNU-stack
                0x0000000000000000        0x0 /usr/local/xenon/xenon/lib/32/libc.a(lib_a-fprintf.o)
 .note.GNU-stack
                0x0000000000000000        0x0 /usr/local/xenon/xenon/lib/32/libc.a(lib_a-fseek.o)
 .note.GNU-stack
                0x0000000000000000        0x0 /usr/local/xenon/xenon/lib/32/libc.a(lib_a-fstatr.o)
 .note.GNU-stack
                0x0000000000000000        0x0 /usr/local/xenon/xenon/lib/32/libc.a(lib_a-impure.o)
 .note.GNU-stack
                0x0000000000000000        0x0 /usr/local/xenon/xenon/lib/32/libc.a(lib_a-makebuf.o)
 .note.GNU-stack
                0x0000000000000000        0x0 /usr/local/xenon/xenon/lib/32/libc.a(lib_a-malloc.o)
 .note.GNU-stack
                0x0000000000000000        0x0 /usr/local/xenon/xenon/lib/32/libc.a(lib_a-mallocr.o)
 .note.GNU-stack
                0x0000000000000000        0x0 /usr/local/xenon/xenon/lib/32/libc.a(lib_a-memchr.o)
 .note.GNU-stack
                0x0000000000000000        0x0 /usr/local/xenon/xenon/lib/32/libc.a(lib_a-memcmp.o)
 .note.GNU-stack
                0x0000000000000000        0x0 /usr/local/xenon/xenon/lib/32/libc.a(lib_a-memcpy.o)
 .note.GNU-stack
                0x0000000000000000        0x0 /usr/local/xenon/xenon/lib/32/libc.a(lib_a-memset.o)
 .note.GNU-stack
                0x0000000000000000        0x0 /usr/local/xenon/xenon/lib/32/libc.a(lib_a-mlock.o)
 .note.GNU-stack
                0x0000000000000000        0x0 /usr/local/xenon/xenon/lib/32/libc.a(lib_a-openr.o)
 .note.GNU-stack
                0x0000000000000000        0x0 /usr/local/xenon/xenon/lib/32/libc.a(lib_a-printf.o)
 .note.GNU-stack
                0x0000000000000000        0x0 /usr/local/xenon/xenon/lib/32/libc.a(lib_a-putchar.o)
 .note.GNU-stack
                0x0000000000000000        0x0 /usr/local/xenon/xenon/lib/32/libc.a(lib_a-putc.o)
 .note.GNU-stack
                0x0000000000000000        0x0 /usr/local/xenon/xenon/lib/32/libc.a(lib_a-puts.o)
 .note.GNU-stack
                0x0000000000000000        0x0 /usr/local/xenon/xenon/lib/32/libc.a(lib_a-reent.o)
 .note.GNU-stack
                0x0000000000000000        0x0 /usr/local/xenon/xenon/lib/32/libc.a(lib_a-refill.o)
 .note.GNU-stack
                0x0000000000000000        0x0 /usr/local/xenon/xenon/lib/32/libc.a(lib_a-sbrkr.o)
 .note.GNU-stack
                0x0000000000000000        0x0 /usr/local/xenon/xenon/lib/32/libc.a(lib_a-snprintf.o)
 .note.GNU-stack
                0x0000000000000000        0x0 /usr/local/xenon/xenon/lib/32/libc.a(lib_a-sprintf.o)
 .note.GNU-stack
                0x0000000000000000        0x0 /usr/local/xenon/xenon/lib/32/libc.a(lib_a-stdio.o)
 .note.GNU-stack
                0x0000000000000000        0x0 /usr/local/xenon/xenon/lib/32/libc.a(lib_a-strcasecmp.o)
 .note.GNU-stack
                0x0000000000000000        0x0 /usr/local/xenon/xenon/lib/32/libc.a(lib_a-strcat.o)
 .note.GNU-stack
                0x0000000000000000        0x0 /usr/local/xenon/xenon/lib/32/libc.a(lib_a-strchr.o)
 .note.GNU-stack
                0x0000000000000000        0x0 /usr/local/xenon/xenon/lib/32/libc.a(lib_a-strcmp.o)
 .note.GNU-stack
                0x0000000000000000        0x0 /usr/local/xenon/xenon/lib/32/libc.a(lib_a-strcpy.o)
 .note.GNU-stack
                0x0000000000000000        0x0 /usr/local/xenon/xenon/lib/32/libc.a(lib_a-strlcpy.o)
 .note.GNU-stack
                0x0000000000000000        0x0 /usr/local/xenon/xenon/lib/32/libc.a(lib_a-strlen.o)
 .note.GNU-stack
                0x0000000000000000        0x0 /usr/local/xenon/xenon/lib/32/libc.a(lib_a-strncasecmp.o)
 .note.GNU-stack
                0x0000000000000000        0x0 /usr/local/xenon/xenon/lib/32/libc.a(lib_a-strncmp.o)
 .note.GNU-stack
                0x0000000000000000        0x0 /usr/local/xenon/xenon/lib/32/libc.a(lib_a-strncpy.o)
 .note.GNU-stack
                0x0000000000000000        0x0 /usr/local/xenon/xenon/lib/32/libc.a(lib_a-strrchr.o)
 .note.GNU-stack
                0x0000000000000000        0x0 /usr/local/xenon/xenon/lib/32/libc.a(lib_a-strtok_r.o)
 .note.GNU-stack
                0x0000000000000000        0x0 /usr/local/xenon/xenon/lib/32/libc.a(lib_a-strtol.o)
 .note.GNU-stack
                0x0000000000000000        0x0 /usr/local/xenon/xenon/lib/32/libc.a(lib_a-svfprintf.o)
 .note.GNU-stack
                0x0000000000000000        0x0 /usr/local/xenon/xenon/lib/32/libc.a(lib_a-vfiprintf.o)
 .note.GNU-stack
                0x0000000000000000        0x0 /usr/local/xenon/xenon/lib/32/libc.a(lib_a-vfprintf.o)
 .note.GNU-stack
                0x0000000000000000        0x0 /usr/local/xenon/xenon/lib/32/libc.a(lib_a-wbuf.o)
 .note.GNU-stack
                0x0000000000000000        0x0 /usr/local/xenon/xenon/lib/32/libc.a(lib_a-writer.o)
 .note.GNU-stack
                0x0000000000000000        0x0 /usr/local/xenon/xenon/lib/32/libc.a(lib_a-wsetup.o)
 .note.GNU-stack
                0x0000000000000000        0x0 /usr/local/xenon/xenon/lib/32/libc.a(lib_a-abort.o)
 .note.GNU-stack
                0x0000000000000000        0x0 /usr/local/xenon/xenon/lib/32/libc.a(lib_a-__call_atexit.o)
 .note.GNU-stack
                0x0000000000000000        0x0 /usr/local/xenon/xenon/lib/32/libc.a(lib_a-closer.o)
 .note.GNU-stack
                0x0000000000000000        0x0 /usr/local/xenon/xenon/lib/32/libc.a(lib_a-dtoa.o)
 .note.GNU-stack
                0x0000000000000000        0x0 /usr/local/xenon/xenon/lib/32/libc.a(lib_a-fflush.o)
 .note.GNU-stack
                0x0000000000000000        0x0 /usr/local/xenon/xenon/lib/32/libc.a(lib_a-findfp.o)
 .note.GNU-stack
                0x0000000000000000        0x0 /usr/local/xenon/xenon/lib/32/libc.a(lib_a-flags.o)
 .note.GNU-stack
                0x0000000000000000        0x0 /usr/local/xenon/xenon/lib/32/libc.a(lib_a-freer.o)
 .note.GNU-stack
                0x0000000000000000        0x0 /usr/local/xenon/xenon/lib/32/libc.a(lib_a-fvwrite.o)
 .note.GNU-stack
                0x0000000000000000        0x0 /usr/local/xenon/xenon/lib/32/libc.a(lib_a-fwalk.o)
 .note.GNU-stack
                0x0000000000000000        0x0 /usr/local/xenon/xenon/lib/32/libc.a(lib_a-isattyr.o)
 .note.GNU-stack
                0x0000000000000000        0x0 /usr/local/xenon/xenon/lib/32/libc.a(lib_a-locale.o)
 .note.GNU-stack
                0x0000000000000000        0x0 /usr/local/xenon/xenon/lib/32/libc.a(lib_a-lseekr.o)
 .note.GNU-stack
                0x0000000000000000        0x0 /usr/local/xenon/xenon/lib/32/libc.a(lib_a-memmove.o)
 .note.GNU-stack
                0x0000000000000000        0x0 /usr/local/xenon/xenon/lib/32/libc.a(lib_a-mprec.o)
 .note.GNU-stack
                0x0000000000000000        0x0 /usr/local/xenon/xenon/lib/32/libc.a(lib_a-readr.o)
 .note.GNU-stack
                0x0000000000000000        0x0 /usr/local/xenon/xenon/lib/32/libc.a(lib_a-reallocr.o)
 .note.GNU-stack
                0x0000000000000000        0x0 /usr/local/xenon/xenon/lib/32/libc.a(lib_a-signal.o)
 .note.GNU-stack
                0x0000000000000000        0x0 /usr/local/xenon/xenon/lib/32/libc.a(lib_a-signalr.o)
 .note.GNU-stack
                0x0000000000000000        0x0 /usr/local/xenon/xenon/lib/32/libc.a(lib_a-s_isinfd.o)
 .note.GNU-stack
                0x0000000000000000        0x0 /usr/local/xenon/xenon/lib/32/libc.a(lib_a-s_isnand.o)
 .note.GNU-stack
                0x0000000000000000        0x0 /usr/local/xenon/xenon/lib/32/libc.a(lib_a-callocr.o)
 .note.GNU-stack
                0x0000000000000000        0x0 /usr/local/xenon/xenon/lib/32/libc.a(lib_a-fclose.o)
 .note.GNU-stack
                0x0000000000000000        0x0 /usr/local/xenon/lib/gcc/xenon/4.4.0/32/crtend.o

.gnu.attributes
                0x0000000000000000       0x14
 .gnu.attributes
                0x0000000000000000       0x14 /usr/local/xenon/lib/gcc/xenon/4.4.0/../../../../xenon/lib/../lib/crt1.o
 .gnu.attributes
                0x0000000000000014       0x14 /usr/local/xenon/lib/gcc/xenon/4.4.0/32/crtbegin.o
 .gnu.attributes
                0x0000000000000028       0x14 main.o
 .gnu.attributes
                0x000000000000003c       0x14 /usr/local/xenon/usr/lib/libxenon.a(console.o)
 .gnu.attributes
                0x0000000000000050       0x14 /usr/local/xenon/usr/lib/libxenon.a(newlib.o)
 .gnu.attributes
                0x0000000000000064       0x14 /usr/local/xenon/usr/lib/libxenon.a(vm.o)
 .gnu.attributes
                0x0000000000000078       0x14 /usr/local/xenon/usr/lib/libxenon.a(usbmain.o)
 .gnu.attributes
                0x000000000000008c       0x14 /usr/local/xenon/usr/lib/libxenon.a(tinyehci.o)
 .gnu.attributes
                0x00000000000000a0       0x14 /usr/local/xenon/usr/lib/libxenon.a(xenon_uart.o)
 .gnu.attributes
                0x00000000000000b4       0x14 /usr/local/xenon/usr/lib/libxenon.a(xenos.o)
 .gnu.attributes
                0x00000000000000c8       0x14 /usr/local/xenon/usr/lib/libxenon.a(diskio.o)
 .gnu.attributes
                0x00000000000000dc       0x14 /usr/local/xenon/usr/lib/libxenon.a(fat.o)
 .gnu.attributes
                0x00000000000000f0       0x14 /usr/local/xenon/usr/lib/libxenon.a(fat_rb.o)
 .gnu.attributes
                0x0000000000000104       0x14 /usr/local/xenon/usr/lib/libxenon.a(file_rb.o)
 .gnu.attributes
                0x0000000000000118       0x14 /usr/local/xenon/usr/lib/libxenon.a(dir_rb.o)
 .gnu.attributes
                0x000000000000012c       0x14 /usr/local/xenon/usr/lib/libxenon.a(iso9660.o)
 .gnu.attributes
                0x0000000000000140       0x14 /usr/local/xenon/usr/lib/libxenon.a(lib_malloc.o)
 .gnu.attributes
                0x0000000000000154       0x14 /usr/local/xenon/usr/lib/libxenon.a(io.o)
 .gnu.attributes
                0x0000000000000168       0x14 /usr/local/xenon/usr/lib/libxenon.a(time.o)
 .gnu.attributes
                0x000000000000017c       0x14 /usr/local/xenon/usr/lib/libxenon.a(ohci.o)
 .gnu.attributes
                0x0000000000000190       0x14 /usr/local/xenon/usr/lib/libxenon.a(usbd.o)
 .gnu.attributes
                0x00000000000001a4       0x14 /usr/local/xenon/usr/lib/libxenon.a(usbdevs.o)
 .gnu.attributes
                0x00000000000001b8       0x14 /usr/local/xenon/usr/lib/libxenon.a(usbhid.o)
 .gnu.attributes
                0x00000000000001cc       0x14 /usr/local/xenon/usr/lib/libxenon.a(usbhub.o)
 .gnu.attributes
                0x00000000000001e0       0x14 /usr/local/xenon/usr/lib/libxenon.a(usb_os.o)
 .gnu.attributes
                0x00000000000001f4       0x14 /usr/local/xenon/usr/lib/libxenon.a(unicode_rb.o)
 .gnu.attributes
                0x0000000000000208       0x14 /usr/local/xenon/usr/lib/libxenon.a(xenon_gpio.o)
 .gnu.attributes
                0x000000000000021c       0x14 /usr/local/xenon/usr/lib/libxenon.a(xenon_smc.o)
 .gnu.attributes
                0x0000000000000230       0x14 /usr/local/xenon/usr/lib/libxenon.a(xenon_config.o)
 .gnu.attributes
                0x0000000000000244       0x14 /usr/local/xenon/usr/lib/libxenon.a(disk_rb.o)
 .gnu.attributes
                0x0000000000000258       0x14 /usr/local/xenon/usr/lib/libxenon.a(lib_queue.o)
 .gnu.attributes
                0x000000000000026c       0x14 /usr/local/xenon/usr/lib/libxenon.a(usbctrl.o)
 .gnu.attributes
                0x0000000000000280       0x14 /usr/local/xenon/usr/lib/libxenon.a(usbdebug.o)
 .gnu.attributes
                0x0000000000000294       0x14 /usr/local/xenon/usr/lib/libxenon.a(xenon_sfcx.o)
 .gnu.attributes
                0x00000000000002a8       0x14 /usr/local/xenon/usr/lib/libxenon.a(input.o)
 .gnu.attributes
                0x00000000000002bc       0x14 /usr/local/xenon/xenon/lib/32/libc.a(lib_a-assert.o)
 .gnu.attributes
                0x00000000000002d0       0x14 /usr/local/xenon/xenon/lib/32/libc.a(lib_a-atoi.o)
 .gnu.attributes
                0x00000000000002e4       0x14 /usr/local/xenon/xenon/lib/32/libc.a(lib_a-ctype_.o)
 .gnu.attributes
                0x00000000000002f8       0x14 /usr/local/xenon/xenon/lib/32/libc.a(lib_a-errno.o)
 .gnu.attributes
                0x000000000000030c       0x14 /usr/local/xenon/xenon/lib/32/libc.a(lib_a-exit.o)
 .gnu.attributes
                0x0000000000000320       0x14 /usr/local/xenon/xenon/lib/32/libc.a(lib_a-fiprintf.o)
 .gnu.attributes
                0x0000000000000334       0x14 /usr/local/xenon/xenon/lib/32/libc.a(lib_a-fopen.o)
 .gnu.attributes
                0x0000000000000348       0x14 /usr/local/xenon/xenon/lib/32/libc.a(lib_a-fprintf.o)
 .gnu.attributes
                0x000000000000035c       0x14 /usr/local/xenon/xenon/lib/32/libc.a(lib_a-fseek.o)
 .gnu.attributes
                0x0000000000000370       0x14 /usr/local/xenon/xenon/lib/32/libc.a(lib_a-fstatr.o)
 .gnu.attributes
                0x0000000000000384       0x14 /usr/local/xenon/xenon/lib/32/libc.a(lib_a-impure.o)
 .gnu.attributes
                0x0000000000000398       0x14 /usr/local/xenon/xenon/lib/32/libc.a(lib_a-makebuf.o)
 .gnu.attributes
                0x00000000000003ac       0x14 /usr/local/xenon/xenon/lib/32/libc.a(lib_a-malloc.o)
 .gnu.attributes
                0x00000000000003c0       0x14 /usr/local/xenon/xenon/lib/32/libc.a(lib_a-mallocr.o)
 .gnu.attributes
                0x00000000000003d4       0x14 /usr/local/xenon/xenon/lib/32/libc.a(lib_a-memchr.o)
 .gnu.attributes
                0x00000000000003e8       0x14 /usr/local/xenon/xenon/lib/32/libc.a(lib_a-memcmp.o)
 .gnu.attributes
                0x00000000000003fc       0x14 /usr/local/xenon/xenon/lib/32/libc.a(lib_a-memcpy.o)
 .gnu.attributes
                0x0000000000000410       0x14 /usr/local/xenon/xenon/lib/32/libc.a(lib_a-memset.o)
 .gnu.attributes
                0x0000000000000424       0x14 /usr/local/xenon/xenon/lib/32/libc.a(lib_a-mlock.o)
 .gnu.attributes
                0x0000000000000438       0x14 /usr/local/xenon/xenon/lib/32/libc.a(lib_a-openr.o)
 .gnu.attributes
                0x000000000000044c       0x14 /usr/local/xenon/xenon/lib/32/libc.a(lib_a-printf.o)
 .gnu.attributes
                0x0000000000000460       0x14 /usr/local/xenon/xenon/lib/32/libc.a(lib_a-putchar.o)
 .gnu.attributes
                0x0000000000000474       0x14 /usr/local/xenon/xenon/lib/32/libc.a(lib_a-putc.o)
 .gnu.attributes
                0x0000000000000488       0x14 /usr/local/xenon/xenon/lib/32/libc.a(lib_a-puts.o)
 .gnu.attributes
                0x000000000000049c       0x14 /usr/local/xenon/xenon/lib/32/libc.a(lib_a-reent.o)
 .gnu.attributes
                0x00000000000004b0       0x14 /usr/local/xenon/xenon/lib/32/libc.a(lib_a-refill.o)
 .gnu.attributes
                0x00000000000004c4       0x14 /usr/local/xenon/xenon/lib/32/libc.a(lib_a-sbrkr.o)
 .gnu.attributes
                0x00000000000004d8       0x14 /usr/local/xenon/xenon/lib/32/libc.a(lib_a-snprintf.o)
 .gnu.attributes
                0x00000000000004ec       0x14 /usr/local/xenon/xenon/lib/32/libc.a(lib_a-sprintf.o)
 .gnu.attributes
                0x0000000000000500       0x14 /usr/local/xenon/xenon/lib/32/libc.a(lib_a-stdio.o)
 .gnu.attributes
                0x0000000000000514       0x14 /usr/local/xenon/xenon/lib/32/libc.a(lib_a-strcasecmp.o)
 .gnu.attributes
                0x0000000000000528       0x14 /usr/local/xenon/xenon/lib/32/libc.a(lib_a-strcat.o)
 .gnu.attributes
                0x000000000000053c       0x14 /usr/local/xenon/xenon/lib/32/libc.a(lib_a-strchr.o)
 .gnu.attributes
                0x0000000000000550       0x14 /usr/local/xenon/xenon/lib/32/libc.a(lib_a-strcmp.o)
 .gnu.attributes
                0x0000000000000564       0x14 /usr/local/xenon/xenon/lib/32/libc.a(lib_a-strcpy.o)
 .gnu.attributes
                0x0000000000000578       0x14 /usr/local/xenon/xenon/lib/32/libc.a(lib_a-strlcpy.o)
 .gnu.attributes
                0x000000000000058c       0x14 /usr/local/xenon/xenon/lib/32/libc.a(lib_a-strlen.o)
 .gnu.attributes
                0x00000000000005a0       0x14 /usr/local/xenon/xenon/lib/32/libc.a(lib_a-strncasecmp.o)
 .gnu.attributes
                0x00000000000005b4       0x14 /usr/local/xenon/xenon/lib/32/libc.a(lib_a-strncmp.o)
 .gnu.attributes
                0x00000000000005c8       0x14 /usr/local/xenon/xenon/lib/32/libc.a(lib_a-strncpy.o)
 .gnu.attributes
                0x00000000000005dc       0x14 /usr/local/xenon/xenon/lib/32/libc.a(lib_a-strrchr.o)
 .gnu.attributes
                0x00000000000005f0       0x14 /usr/local/xenon/xenon/lib/32/libc.a(lib_a-strtok_r.o)
 .gnu.attributes
                0x0000000000000604       0x14 /usr/local/xenon/xenon/lib/32/libc.a(lib_a-strtol.o)
 .gnu.attributes
                0x0000000000000618       0x14 /usr/local/xenon/xenon/lib/32/libc.a(lib_a-svfprintf.o)
 .gnu.attributes
                0x000000000000062c       0x14 /usr/local/xenon/xenon/lib/32/libc.a(lib_a-vfiprintf.o)
 .gnu.attributes
                0x0000000000000640       0x14 /usr/local/xenon/xenon/lib/32/libc.a(lib_a-vfprintf.o)
 .gnu.attributes
                0x0000000000000654       0x14 /usr/local/xenon/xenon/lib/32/libc.a(lib_a-wbuf.o)
 .gnu.attributes
                0x0000000000000668       0x14 /usr/local/xenon/xenon/lib/32/libc.a(lib_a-writer.o)
 .gnu.attributes
                0x000000000000067c       0x14 /usr/local/xenon/xenon/lib/32/libc.a(lib_a-wsetup.o)
 .gnu.attributes
                0x0000000000000690       0x14 /usr/local/xenon/xenon/lib/32/libc.a(lib_a-abort.o)
 .gnu.attributes
                0x00000000000006a4       0x14 /usr/local/xenon/xenon/lib/32/libc.a(lib_a-__call_atexit.o)
 .gnu.attributes
                0x00000000000006b8       0x14 /usr/local/xenon/xenon/lib/32/libc.a(lib_a-closer.o)
 .gnu.attributes
                0x00000000000006cc       0x14 /usr/local/xenon/xenon/lib/32/libc.a(lib_a-dtoa.o)
 .gnu.attributes
                0x00000000000006e0       0x14 /usr/local/xenon/xenon/lib/32/libc.a(lib_a-fflush.o)
 .gnu.attributes
                0x00000000000006f4       0x14 /usr/local/xenon/xenon/lib/32/libc.a(lib_a-findfp.o)
 .gnu.attributes
                0x0000000000000708       0x14 /usr/local/xenon/xenon/lib/32/libc.a(lib_a-flags.o)
 .gnu.attributes
                0x000000000000071c       0x14 /usr/local/xenon/xenon/lib/32/libc.a(lib_a-freer.o)
 .gnu.attributes
                0x0000000000000730       0x14 /usr/local/xenon/xenon/lib/32/libc.a(lib_a-fvwrite.o)
 .gnu.attributes
                0x0000000000000744       0x14 /usr/local/xenon/xenon/lib/32/libc.a(lib_a-fwalk.o)
 .gnu.attributes
                0x0000000000000758       0x14 /usr/local/xenon/xenon/lib/32/libc.a(lib_a-isattyr.o)
 .gnu.attributes
                0x000000000000076c       0x14 /usr/local/xenon/xenon/lib/32/libc.a(lib_a-locale.o)
 .gnu.attributes
                0x0000000000000780       0x14 /usr/local/xenon/xenon/lib/32/libc.a(lib_a-lseekr.o)
 .gnu.attributes
                0x0000000000000794       0x14 /usr/local/xenon/xenon/lib/32/libc.a(lib_a-memmove.o)
 .gnu.attributes
                0x00000000000007a8       0x14 /usr/local/xenon/xenon/lib/32/libc.a(lib_a-mprec.o)
 .gnu.attributes
                0x00000000000007bc       0x14 /usr/local/xenon/xenon/lib/32/libc.a(lib_a-readr.o)
 .gnu.attributes
                0x00000000000007d0       0x14 /usr/local/xenon/xenon/lib/32/libc.a(lib_a-reallocr.o)
 .gnu.attributes
                0x00000000000007e4       0x14 /usr/local/xenon/xenon/lib/32/libc.a(lib_a-signal.o)
 .gnu.attributes
                0x00000000000007f8       0x14 /usr/local/xenon/xenon/lib/32/libc.a(lib_a-signalr.o)
 .gnu.attributes
                0x000000000000080c       0x14 /usr/local/xenon/xenon/lib/32/libc.a(lib_a-s_isinfd.o)
 .gnu.attributes
                0x0000000000000820       0x14 /usr/local/xenon/xenon/lib/32/libc.a(lib_a-s_isnand.o)
 .gnu.attributes
                0x0000000000000834       0x14 /usr/local/xenon/xenon/lib/32/libc.a(lib_a-callocr.o)
 .gnu.attributes
                0x0000000000000848       0x14 /usr/local/xenon/xenon/lib/32/libc.a(lib_a-fclose.o)
 .gnu.attributes
                0x000000000000085c       0x14 /usr/local/xenon/lib/gcc/xenon/4.4.0/32/crtend.o
