Archive member included because of file (symbol)

/usr/local/xenon/usr/lib/libxenon.a(startup_from_xell.o)
                              (_start)
/usr/local/xenon/usr/lib/libxenon.a(console.o)
                              main.o (console_set_colors)
/usr/local/xenon/usr/lib/libxenon.a(input.o)
                              main.o (get_controller_data)
/usr/local/xenon/usr/lib/libxenon.a(newlib.o)
                              (read)
/usr/local/xenon/usr/lib/libxenon.a(lib_malloc.o)
                              main.o (kmem_init)
/usr/local/xenon/usr/lib/libxenon.a(atomic.o)
                              /usr/local/xenon/usr/lib/libxenon.a(startup_from_xell.o) (atomic_clearset)
/usr/local/xenon/usr/lib/libxenon.a(cache.o)
                              /usr/local/xenon/usr/lib/libxenon.a(console.o) (memdcbst)
/usr/local/xenon/usr/lib/libxenon.a(except.o)
                              (exc_base)
/usr/local/xenon/usr/lib/libxenon.a(vm.o)
                              /usr/local/xenon/usr/lib/libxenon.a(except.o) (pagetable)
/usr/local/xenon/usr/lib/libxenon.a(usbmain.o)
                              main.o (usb_do_poll)
/usr/local/xenon/usr/lib/libxenon.a(xenon_smc.o)
                              main.o (xenon_smc_receive_response)
/usr/local/xenon/usr/lib/libxenon.a(xenon_uart.o)
                              /usr/local/xenon/usr/lib/libxenon.a(newlib.o) (putch)
/usr/local/xenon/usr/lib/libxenon.a(xenos.o)
                              /usr/local/xenon/usr/lib/libxenon.a(console.o) (xenos_is_overscan)
/usr/local/xenon/usr/lib/libxenon.a(io.o)
                              /usr/local/xenon/usr/lib/libxenon.a(xenon_smc.o) (read32n)
/usr/local/xenon/usr/lib/libxenon.a(time.o)
                              /usr/local/xenon/usr/lib/libxenon.a(xenos.o) (udelay)
/usr/local/xenon/usr/lib/libxenon.a(ohci.o)
                              /usr/local/xenon/usr/lib/libxenon.a(usbmain.o) (ohci_driver)
/usr/local/xenon/usr/lib/libxenon.a(usbd.o)
                              /usr/local/xenon/usr/lib/libxenon.a(usbmain.o) (usb_poll)
/usr/local/xenon/usr/lib/libxenon.a(usbdevs.o)
                              /usr/local/xenon/usr/lib/libxenon.a(usbd.o) (usb_find_driver)
/usr/local/xenon/usr/lib/libxenon.a(usbhid.o)
                              /usr/local/xenon/usr/lib/libxenon.a(usbdevs.o) (usbhid_driver)
/usr/local/xenon/usr/lib/libxenon.a(usbhub.o)
                              /usr/local/xenon/usr/lib/libxenon.a(usbd.o) (usb_scan)
/usr/local/xenon/usr/lib/libxenon.a(usbmass.o)
                              /usr/local/xenon/usr/lib/libxenon.a(usbdevs.o) (usbmass_driver)
/usr/local/xenon/usr/lib/libxenon.a(xenon_gpio.o)
                              /usr/local/xenon/usr/lib/libxenon.a(xenos.o) (xenon_gpio_set)
/usr/local/xenon/usr/lib/libxenon.a(xenon_config.o)
                              /usr/local/xenon/usr/lib/libxenon.a(xenos.o) (xenon_config_get_avregion)
/usr/local/xenon/usr/lib/libxenon.a(diskio.o)
                              /usr/local/xenon/usr/lib/libxenon.a(usbmass.o) (unregister_bdev)
/usr/local/xenon/usr/lib/libxenon.a(disk_rb.o)
                              /usr/local/xenon/usr/lib/libxenon.a(diskio.o) (disk_mount)
/usr/local/xenon/usr/lib/libxenon.a(fat_rb.o)
                              /usr/local/xenon/usr/lib/libxenon.a(diskio.o) (fat_init)
/usr/local/xenon/usr/lib/libxenon.a(file_rb.o)
                              /usr/local/xenon/usr/lib/libxenon.a(disk_rb.o) (release_files)
/usr/local/xenon/usr/lib/libxenon.a(dir_rb.o)
                              /usr/local/xenon/usr/lib/libxenon.a(disk_rb.o) (release_dirs)
/usr/local/xenon/usr/lib/libxenon.a(iso9660.o)
                              /usr/local/xenon/usr/lib/libxenon.a(diskio.o) (vfs_iso9660_mount_ops)
/usr/local/xenon/usr/lib/libxenon.a(lib_queue.o)
                              /usr/local/xenon/usr/lib/libxenon.a(ohci.o) (q_enqueue)
/usr/local/xenon/usr/lib/libxenon.a(usbctrl.o)
                              /usr/local/xenon/usr/lib/libxenon.a(usbdevs.o) (usbctrl_driver)
/usr/local/xenon/usr/lib/libxenon.a(usbdebug.o)
                              /usr/local/xenon/usr/lib/libxenon.a(usbhub.o) (usb_dbg_showdevice)
/usr/local/xenon/usr/lib/libxenon.a(unicode_rb.o)
                              /usr/local/xenon/usr/lib/libxenon.a(fat_rb.o) (utf8encode)
/usr/local/xenon/usr/lib/libxenon.a(xenon_sfcx.o)
                              /usr/local/xenon/usr/lib/libxenon.a(xenon_config.o) (sfcx_init)
/usr/local/xenon/xenon/lib/32/libc.a(lib_a-assert.o)
                              /usr/local/xenon/usr/lib/libxenon.a(xenos.o) (__assert_func)
/usr/local/xenon/xenon/lib/32/libc.a(lib_a-atoi.o)
                              /usr/local/xenon/usr/lib/libxenon.a(fat_rb.o) (atoi)
/usr/local/xenon/xenon/lib/32/libc.a(lib_a-ctype_.o)
                              /usr/local/xenon/usr/lib/libxenon.a(fat_rb.o) (__ctype_ptr__)
/usr/local/xenon/xenon/lib/32/libc.a(lib_a-errno.o)
                              /usr/local/xenon/usr/lib/libxenon.a(newlib.o) (__errno)
/usr/local/xenon/xenon/lib/32/libc.a(lib_a-exit.o)
                              /usr/local/xenon/usr/lib/libxenon.a(disk_rb.o) (exit)
/usr/local/xenon/xenon/lib/32/libc.a(lib_a-fiprintf.o)
                              /usr/local/xenon/xenon/lib/32/libc.a(lib_a-assert.o) (fiprintf)
/usr/local/xenon/xenon/lib/32/libc.a(lib_a-impure.o)
                              /usr/local/xenon/xenon/lib/32/libc.a(lib_a-assert.o) (_impure_ptr)
/usr/local/xenon/xenon/lib/32/libc.a(lib_a-malloc.o)
                              /usr/local/xenon/usr/lib/libxenon.a(iso9660.o) (free)
/usr/local/xenon/xenon/lib/32/libc.a(lib_a-mallocr.o)
                              /usr/local/xenon/xenon/lib/32/libc.a(lib_a-malloc.o) (_malloc_r)
/usr/local/xenon/xenon/lib/32/libc.a(lib_a-memchr.o)
                              /usr/local/xenon/usr/lib/libxenon.a(disk_rb.o) (memchr)
/usr/local/xenon/xenon/lib/32/libc.a(lib_a-memcmp.o)
                              /usr/local/xenon/usr/lib/libxenon.a(iso9660.o) (memcmp)
/usr/local/xenon/xenon/lib/32/libc.a(lib_a-memcpy.o)
                              main.o (memcpy)
/usr/local/xenon/xenon/lib/32/libc.a(lib_a-memset.o)
                              /usr/local/xenon/usr/lib/libxenon.a(newlib.o) (memset)
/usr/local/xenon/xenon/lib/32/libc.a(lib_a-mlock.o)
                              /usr/local/xenon/xenon/lib/32/libc.a(lib_a-mallocr.o) (__malloc_lock)
/usr/local/xenon/xenon/lib/32/libc.a(lib_a-printf.o)
                              main.o (printf)
/usr/local/xenon/xenon/lib/32/libc.a(lib_a-putchar.o)
                              main.o (putchar)
/usr/local/xenon/xenon/lib/32/libc.a(lib_a-putc.o)
                              /usr/local/xenon/xenon/lib/32/libc.a(lib_a-putchar.o) (_putc_r)
/usr/local/xenon/xenon/lib/32/libc.a(lib_a-puts.o)
                              main.o (puts)
/usr/local/xenon/xenon/lib/32/libc.a(lib_a-rand.o)
                              main.o (rand)
/usr/local/xenon/xenon/lib/32/libc.a(lib_a-sbrkr.o)
                              /usr/local/xenon/xenon/lib/32/libc.a(lib_a-mallocr.o) (_sbrk_r)
/usr/local/xenon/xenon/lib/32/libc.a(lib_a-snprintf.o)
                              /usr/local/xenon/usr/lib/libxenon.a(diskio.o) (snprintf)
/usr/local/xenon/xenon/lib/32/libc.a(lib_a-sprintf.o)
                              main.o (sprintf)
/usr/local/xenon/xenon/lib/32/libc.a(lib_a-strcasecmp.o)
                              /usr/local/xenon/usr/lib/libxenon.a(file_rb.o) (strcasecmp)
/usr/local/xenon/xenon/lib/32/libc.a(lib_a-strcat.o)
                              /usr/local/xenon/usr/lib/libxenon.a(fat_rb.o) (strcat)
/usr/local/xenon/xenon/lib/32/libc.a(lib_a-strchr.o)
                              /usr/local/xenon/usr/lib/libxenon.a(fat_rb.o) (strchr)
/usr/local/xenon/xenon/lib/32/libc.a(lib_a-strcmp.o)
                              /usr/local/xenon/usr/lib/libxenon.a(newlib.o) (strcmp)
/usr/local/xenon/xenon/lib/32/libc.a(lib_a-strcpy.o)
                              /usr/local/xenon/usr/lib/libxenon.a(newlib.o) (strcpy)
/usr/local/xenon/xenon/lib/32/libc.a(lib_a-strlcpy.o)
                              /usr/local/xenon/usr/lib/libxenon.a(fat_rb.o) (strlcpy)
/usr/local/xenon/xenon/lib/32/libc.a(lib_a-strlen.o)
                              /usr/local/xenon/usr/lib/libxenon.a(newlib.o) (strlen)
/usr/local/xenon/xenon/lib/32/libc.a(lib_a-strncasecmp.o)
                              /usr/local/xenon/usr/lib/libxenon.a(iso9660.o) (strncasecmp)
/usr/local/xenon/xenon/lib/32/libc.a(lib_a-strncmp.o)
                              /usr/local/xenon/usr/lib/libxenon.a(newlib.o) (strncmp)
/usr/local/xenon/xenon/lib/32/libc.a(lib_a-strncpy.o)
                              /usr/local/xenon/usr/lib/libxenon.a(iso9660.o) (strncpy)
/usr/local/xenon/xenon/lib/32/libc.a(lib_a-strrchr.o)
                              /usr/local/xenon/usr/lib/libxenon.a(fat_rb.o) (strrchr)
/usr/local/xenon/xenon/lib/32/libc.a(lib_a-strtok_r.o)
                              /usr/local/xenon/usr/lib/libxenon.a(dir_rb.o) (strtok_r)
/usr/local/xenon/xenon/lib/32/libc.a(lib_a-strtol.o)
                              /usr/local/xenon/xenon/lib/32/libc.a(lib_a-atoi.o) (_strtol_r)
/usr/local/xenon/xenon/lib/32/libc.a(lib_a-svfprintf.o)
                              /usr/local/xenon/xenon/lib/32/libc.a(lib_a-snprintf.o) (_svfprintf_r)
/usr/local/xenon/xenon/lib/32/libc.a(lib_a-vfiprintf.o)
                              /usr/local/xenon/xenon/lib/32/libc.a(lib_a-fiprintf.o) (_vfiprintf_r)
/usr/local/xenon/xenon/lib/32/libc.a(lib_a-vfprintf.o)
                              /usr/local/xenon/xenon/lib/32/libc.a(lib_a-printf.o) (_vfprintf_r)
/usr/local/xenon/xenon/lib/32/libc.a(lib_a-wbuf.o)
                              /usr/local/xenon/xenon/lib/32/libc.a(lib_a-putc.o) (__swbuf_r)
/usr/local/xenon/xenon/lib/32/libc.a(lib_a-wsetup.o)
                              /usr/local/xenon/xenon/lib/32/libc.a(lib_a-vfiprintf.o) (__swsetup_r)
/usr/local/xenon/xenon/lib/32/libc.a(lib_a-abort.o)
                              /usr/local/xenon/xenon/lib/32/libc.a(lib_a-assert.o) (abort)
/usr/local/xenon/xenon/lib/32/libc.a(lib_a-__call_atexit.o)
                              /usr/local/xenon/xenon/lib/32/libc.a(lib_a-exit.o) (__call_exitprocs)
/usr/local/xenon/xenon/lib/32/libc.a(lib_a-dtoa.o)
                              /usr/local/xenon/xenon/lib/32/libc.a(lib_a-svfprintf.o) (_dtoa_r)
/usr/local/xenon/xenon/lib/32/libc.a(lib_a-fflush.o)
                              /usr/local/xenon/xenon/lib/32/libc.a(lib_a-vfiprintf.o) (_fflush_r)
/usr/local/xenon/xenon/lib/32/libc.a(lib_a-findfp.o)
                              /usr/local/xenon/xenon/lib/32/libc.a(lib_a-putc.o) (__sinit)
/usr/local/xenon/xenon/lib/32/libc.a(lib_a-freer.o)
                              /usr/local/xenon/xenon/lib/32/libc.a(lib_a-malloc.o) (_free_r)
/usr/local/xenon/xenon/lib/32/libc.a(lib_a-fvwrite.o)
                              /usr/local/xenon/xenon/lib/32/libc.a(lib_a-puts.o) (__sfvwrite_r)
/usr/local/xenon/xenon/lib/32/libc.a(lib_a-fwalk.o)
                              /usr/local/xenon/xenon/lib/32/libc.a(lib_a-fflush.o) (_fwalk_reent)
/usr/local/xenon/xenon/lib/32/libc.a(lib_a-locale.o)
                              /usr/local/xenon/xenon/lib/32/libc.a(lib_a-svfprintf.o) (_localeconv_r)
/usr/local/xenon/xenon/lib/32/libc.a(lib_a-makebuf.o)
                              /usr/local/xenon/xenon/lib/32/libc.a(lib_a-wsetup.o) (__smakebuf_r)
/usr/local/xenon/xenon/lib/32/libc.a(lib_a-memmove.o)
                              /usr/local/xenon/xenon/lib/32/libc.a(lib_a-svfprintf.o) (memmove)
/usr/local/xenon/xenon/lib/32/libc.a(lib_a-mprec.o)
                              /usr/local/xenon/xenon/lib/32/libc.a(lib_a-dtoa.o) (_Bfree)
/usr/local/xenon/xenon/lib/32/libc.a(lib_a-reallocr.o)
                              /usr/local/xenon/xenon/lib/32/libc.a(lib_a-svfprintf.o) (_realloc_r)
/usr/local/xenon/xenon/lib/32/libc.a(lib_a-reent.o)
                              /usr/local/xenon/xenon/lib/32/libc.a(lib_a-sbrkr.o) (errno)
/usr/local/xenon/xenon/lib/32/libc.a(lib_a-signal.o)
                              /usr/local/xenon/xenon/lib/32/libc.a(lib_a-abort.o) (raise)
/usr/local/xenon/xenon/lib/32/libc.a(lib_a-signalr.o)
                              /usr/local/xenon/xenon/lib/32/libc.a(lib_a-signal.o) (_getpid_r)
/usr/local/xenon/xenon/lib/32/libc.a(lib_a-s_isinfd.o)
                              /usr/local/xenon/xenon/lib/32/libc.a(lib_a-svfprintf.o) (__isinfd)
/usr/local/xenon/xenon/lib/32/libc.a(lib_a-s_isnand.o)
                              /usr/local/xenon/xenon/lib/32/libc.a(lib_a-svfprintf.o) (__isnand)
/usr/local/xenon/xenon/lib/32/libc.a(lib_a-stdio.o)
                              /usr/local/xenon/xenon/lib/32/libc.a(lib_a-findfp.o) (__sclose)
/usr/local/xenon/xenon/lib/32/libc.a(lib_a-writer.o)
                              /usr/local/xenon/xenon/lib/32/libc.a(lib_a-stdio.o) (_write_r)
/usr/local/xenon/xenon/lib/32/libc.a(lib_a-callocr.o)
                              /usr/local/xenon/xenon/lib/32/libc.a(lib_a-mprec.o) (_calloc_r)
/usr/local/xenon/xenon/lib/32/libc.a(lib_a-closer.o)
                              /usr/local/xenon/xenon/lib/32/libc.a(lib_a-stdio.o) (_close_r)
/usr/local/xenon/xenon/lib/32/libc.a(lib_a-fclose.o)
                              /usr/local/xenon/xenon/lib/32/libc.a(lib_a-findfp.o) (fclose)
/usr/local/xenon/xenon/lib/32/libc.a(lib_a-fstatr.o)
                              /usr/local/xenon/xenon/lib/32/libc.a(lib_a-makebuf.o) (_fstat_r)
/usr/local/xenon/xenon/lib/32/libc.a(lib_a-isattyr.o)
                              /usr/local/xenon/xenon/lib/32/libc.a(lib_a-makebuf.o) (_isatty_r)
/usr/local/xenon/xenon/lib/32/libc.a(lib_a-lseekr.o)
                              /usr/local/xenon/xenon/lib/32/libc.a(lib_a-stdio.o) (_lseek_r)
/usr/local/xenon/xenon/lib/32/libc.a(lib_a-readr.o)
                              /usr/local/xenon/xenon/lib/32/libc.a(lib_a-stdio.o) (_read_r)

Allocating common symbols
Common symbol       size              file

errno               0x4               /usr/local/xenon/xenon/lib/32/libc.a(lib_a-reent.o)
heap_ptr            0x4               /usr/local/xenon/usr/lib/libxenon.a(newlib.o)
kmempool            0xc               /usr/local/xenon/usr/lib/libxenon.a(lib_malloc.o)
usb_buses           0x10              /usr/local/xenon/usr/lib/libxenon.a(usbmain.o)
devices             0x380             /usr/local/xenon/usr/lib/libxenon.a(diskio.o)

Discarded input sections

 .text          0x0000000000000000        0x0 /usr/local/xenon/lib/gcc/xenon/4.4.0/../../../../xenon/lib/../lib/crt1.o
 .data          0x0000000000000000        0x0 /usr/local/xenon/lib/gcc/xenon/4.4.0/../../../../xenon/lib/../lib/crt1.o
 .bss           0x0000000000000000        0x0 /usr/local/xenon/lib/gcc/xenon/4.4.0/../../../../xenon/lib/../lib/crt1.o
 .text          0x0000000000000000        0x0 /usr/local/xenon/lib/gcc/xenon/4.4.0/../../../../xenon/lib/../lib/crti.o
 .data          0x0000000000000000        0x0 /usr/local/xenon/lib/gcc/xenon/4.4.0/../../../../xenon/lib/../lib/crti.o
 .bss           0x0000000000000000        0x0 /usr/local/xenon/lib/gcc/xenon/4.4.0/../../../../xenon/lib/../lib/crti.o
 .init          0x0000000000000000        0x0 /usr/local/xenon/lib/gcc/xenon/4.4.0/../../../../xenon/lib/../lib/crti.o
 .fini          0x0000000000000000        0x0 /usr/local/xenon/lib/gcc/xenon/4.4.0/../../../../xenon/lib/../lib/crti.o
 .text          0x0000000000000000        0x0 /usr/local/xenon/lib/gcc/xenon/4.4.0/32/crtbegin.o
 .data          0x0000000000000000        0x0 /usr/local/xenon/lib/gcc/xenon/4.4.0/32/crtbegin.o
 .bss           0x0000000000000000        0x0 /usr/local/xenon/lib/gcc/xenon/4.4.0/32/crtbegin.o
 .got2          0x0000000000000000        0x0 /usr/local/xenon/lib/gcc/xenon/4.4.0/32/crtbegin.o
 .ctors         0x0000000000000000        0x0 /usr/local/xenon/lib/gcc/xenon/4.4.0/32/crtbegin.o
 .dtors         0x0000000000000000        0x0 /usr/local/xenon/lib/gcc/xenon/4.4.0/32/crtbegin.o
 .jcr           0x0000000000000000        0x0 /usr/local/xenon/lib/gcc/xenon/4.4.0/32/crtbegin.o
 .fini          0x0000000000000000        0x0 /usr/local/xenon/lib/gcc/xenon/4.4.0/32/crtbegin.o
 .init          0x0000000000000000        0x0 /usr/local/xenon/lib/gcc/xenon/4.4.0/32/crtbegin.o
 .text          0x0000000000000000        0x0 main.o
 .data          0x0000000000000000        0x0 main.o
 .bss           0x0000000000000000        0x0 main.o
 .data          0x0000000000000000        0x0 /usr/local/xenon/usr/lib/libxenon.a(startup_from_xell.o)
 .bss           0x0000000000000000        0x0 /usr/local/xenon/usr/lib/libxenon.a(startup_from_xell.o)
 .text          0x0000000000000000        0x0 /usr/local/xenon/usr/lib/libxenon.a(console.o)
 .data          0x0000000000000000        0x0 /usr/local/xenon/usr/lib/libxenon.a(console.o)
 .bss           0x0000000000000000        0x0 /usr/local/xenon/usr/lib/libxenon.a(console.o)
 .text.console_pset
                0x0000000000000000        0x0 /usr/local/xenon/usr/lib/libxenon.a(console.o)
 .text.console_close
                0x0000000000000000        0x0 /usr/local/xenon/usr/lib/libxenon.a(console.o)
 .text          0x0000000000000000        0x0 /usr/local/xenon/usr/lib/libxenon.a(input.o)
 .data          0x0000000000000000        0x0 /usr/local/xenon/usr/lib/libxenon.a(input.o)
 .bss           0x0000000000000000        0x0 /usr/local/xenon/usr/lib/libxenon.a(input.o)
 .text          0x0000000000000000        0x0 /usr/local/xenon/usr/lib/libxenon.a(newlib.o)
 .data          0x0000000000000000        0x0 /usr/local/xenon/usr/lib/libxenon.a(newlib.o)
 .bss           0x0000000000000000        0x0 /usr/local/xenon/usr/lib/libxenon.a(newlib.o)
 .text.vfs_default_lseek
                0x0000000000000000        0x0 /usr/local/xenon/usr/lib/libxenon.a(newlib.o)
 .text.unlink   0x0000000000000000        0x0 /usr/local/xenon/usr/lib/libxenon.a(newlib.o)
 .text.open     0x0000000000000000        0x0 /usr/local/xenon/usr/lib/libxenon.a(newlib.o)
 .bss.ffs_files
                0x0000000000000000        0x0 /usr/local/xenon/usr/lib/libxenon.a(newlib.o)
 .text          0x0000000000000000        0x0 /usr/local/xenon/usr/lib/libxenon.a(lib_malloc.o)
 .data          0x0000000000000000        0x0 /usr/local/xenon/usr/lib/libxenon.a(lib_malloc.o)
 .bss           0x0000000000000000        0x0 /usr/local/xenon/usr/lib/libxenon.a(lib_malloc.o)
 .text.kmeminit
                0x0000000000000000        0x0 /usr/local/xenon/usr/lib/libxenon.a(lib_malloc.o)
 .text.kmempoolbase
                0x0000000000000000        0x0 /usr/local/xenon/usr/lib/libxenon.a(lib_malloc.o)
 .text.kmempoolsize
                0x0000000000000000        0x0 /usr/local/xenon/usr/lib/libxenon.a(lib_malloc.o)
 .text.kmemstats
                0x0000000000000000        0x0 /usr/local/xenon/usr/lib/libxenon.a(lib_malloc.o)
 .data          0x0000000000000000        0x0 /usr/local/xenon/usr/lib/libxenon.a(atomic.o)
 .bss           0x0000000000000000        0x0 /usr/local/xenon/usr/lib/libxenon.a(atomic.o)
 .data          0x0000000000000000        0x0 /usr/local/xenon/usr/lib/libxenon.a(cache.o)
 .bss           0x0000000000000000        0x0 /usr/local/xenon/usr/lib/libxenon.a(cache.o)
 .text          0x0000000000000000        0x0 /usr/local/xenon/usr/lib/libxenon.a(except.o)
 .data          0x0000000000000000        0x0 /usr/local/xenon/usr/lib/libxenon.a(except.o)
 .bss           0x0000000000000000        0x0 /usr/local/xenon/usr/lib/libxenon.a(except.o)
 .text          0x0000000000000000        0x0 /usr/local/xenon/usr/lib/libxenon.a(vm.o)
 .data          0x0000000000000000        0x0 /usr/local/xenon/usr/lib/libxenon.a(vm.o)
 .bss           0x0000000000000000        0x0 /usr/local/xenon/usr/lib/libxenon.a(vm.o)
 .text          0x0000000000000000        0x0 /usr/local/xenon/usr/lib/libxenon.a(usbmain.o)
 .data          0x0000000000000000        0x0 /usr/local/xenon/usr/lib/libxenon.a(usbmain.o)
 .bss           0x0000000000000000        0x0 /usr/local/xenon/usr/lib/libxenon.a(usbmain.o)
 .text          0x0000000000000000        0x0 /usr/local/xenon/usr/lib/libxenon.a(xenon_smc.o)
 .data          0x0000000000000000        0x0 /usr/local/xenon/usr/lib/libxenon.a(xenon_smc.o)
 .bss           0x0000000000000000        0x0 /usr/local/xenon/usr/lib/libxenon.a(xenon_smc.o)
 .text.xenon_smc_query_sensors
                0x0000000000000000        0x0 /usr/local/xenon/usr/lib/libxenon.a(xenon_smc.o)
 .text.xenon_smc_start_bootanim
                0x0000000000000000        0x0 /usr/local/xenon/usr/lib/libxenon.a(xenon_smc.o)
 .text.xenon_smc_set_led
                0x0000000000000000        0x0 /usr/local/xenon/usr/lib/libxenon.a(xenon_smc.o)
 .text.xenon_smc_i2c_read
                0x0000000000000000        0x0 /usr/local/xenon/usr/lib/libxenon.a(xenon_smc.o)
 .text          0x0000000000000000        0x0 /usr/local/xenon/usr/lib/libxenon.a(xenon_uart.o)
 .data          0x0000000000000000        0x0 /usr/local/xenon/usr/lib/libxenon.a(xenon_uart.o)
 .bss           0x0000000000000000        0x0 /usr/local/xenon/usr/lib/libxenon.a(xenon_uart.o)
 .text.kbhit    0x0000000000000000        0x0 /usr/local/xenon/usr/lib/libxenon.a(xenon_uart.o)
 .text.getch    0x0000000000000000        0x0 /usr/local/xenon/usr/lib/libxenon.a(xenon_uart.o)
 .text          0x0000000000000000        0x0 /usr/local/xenon/usr/lib/libxenon.a(xenos.o)
 .data          0x0000000000000000        0x0 /usr/local/xenon/usr/lib/libxenon.a(xenos.o)
 .bss           0x0000000000000000        0x0 /usr/local/xenon/usr/lib/libxenon.a(xenos.o)
 .text          0x0000000000000000        0x0 /usr/local/xenon/usr/lib/libxenon.a(io.o)
 .data          0x0000000000000000        0x0 /usr/local/xenon/usr/lib/libxenon.a(io.o)
 .bss           0x0000000000000000        0x0 /usr/local/xenon/usr/lib/libxenon.a(io.o)
 .text          0x0000000000000000        0x0 /usr/local/xenon/usr/lib/libxenon.a(time.o)
 .data          0x0000000000000000        0x0 /usr/local/xenon/usr/lib/libxenon.a(time.o)
 .bss           0x0000000000000000        0x0 /usr/local/xenon/usr/lib/libxenon.a(time.o)
 .text          0x0000000000000000        0x0 /usr/local/xenon/usr/lib/libxenon.a(ohci.o)
 .data          0x0000000000000000        0x0 /usr/local/xenon/usr/lib/libxenon.a(ohci.o)
 .bss           0x0000000000000000        0x0 /usr/local/xenon/usr/lib/libxenon.a(ohci.o)
 .sbss.ohcidebug
                0x0000000000000000        0x0 /usr/local/xenon/usr/lib/libxenon.a(ohci.o)
 .text          0x0000000000000000        0x0 /usr/local/xenon/usr/lib/libxenon.a(usbd.o)
 .data          0x0000000000000000        0x0 /usr/local/xenon/usr/lib/libxenon.a(usbd.o)
 .bss           0x0000000000000000        0x0 /usr/local/xenon/usr/lib/libxenon.a(usbd.o)
 .text.usb_cancel_request
                0x0000000000000000        0x0 /usr/local/xenon/usr/lib/libxenon.a(usbd.o)
 .text.usb_destroy_pipe
                0x0000000000000000        0x0 /usr/local/xenon/usr/lib/libxenon.a(usbd.o)
 .text          0x0000000000000000        0x0 /usr/local/xenon/usr/lib/libxenon.a(usbdevs.o)
 .data          0x0000000000000000        0x0 /usr/local/xenon/usr/lib/libxenon.a(usbdevs.o)
 .bss           0x0000000000000000        0x0 /usr/local/xenon/usr/lib/libxenon.a(usbdevs.o)
 .text          0x0000000000000000        0x0 /usr/local/xenon/usr/lib/libxenon.a(usbhid.o)
 .data          0x0000000000000000        0x0 /usr/local/xenon/usr/lib/libxenon.a(usbhid.o)
 .bss           0x0000000000000000        0x0 /usr/local/xenon/usr/lib/libxenon.a(usbhid.o)
 .text          0x0000000000000000        0x0 /usr/local/xenon/usr/lib/libxenon.a(usbhub.o)
 .data          0x0000000000000000        0x0 /usr/local/xenon/usr/lib/libxenon.a(usbhub.o)
 .bss           0x0000000000000000        0x0 /usr/local/xenon/usr/lib/libxenon.a(usbhub.o)
 .text.usbhub_dumpbus
                0x0000000000000000        0x0 /usr/local/xenon/usr/lib/libxenon.a(usbhub.o)
 .text.usbhub_dumpbus1
                0x0000000000000000        0x0 /usr/local/xenon/usr/lib/libxenon.a(usbhub.o)
 .text          0x0000000000000000        0x0 /usr/local/xenon/usr/lib/libxenon.a(usbmass.o)
 .data          0x0000000000000000        0x0 /usr/local/xenon/usr/lib/libxenon.a(usbmass.o)
 .bss           0x0000000000000000        0x0 /usr/local/xenon/usr/lib/libxenon.a(usbmass.o)
 .text.usbmass_read_capacity
                0x0000000000000000        0x0 /usr/local/xenon/usr/lib/libxenon.a(usbmass.o)
 .text          0x0000000000000000        0x0 /usr/local/xenon/usr/lib/libxenon.a(xenon_gpio.o)
 .data          0x0000000000000000        0x0 /usr/local/xenon/usr/lib/libxenon.a(xenon_gpio.o)
 .bss           0x0000000000000000        0x0 /usr/local/xenon/usr/lib/libxenon.a(xenon_gpio.o)
 .text.xenon_gpio_control
                0x0000000000000000        0x0 /usr/local/xenon/usr/lib/libxenon.a(xenon_gpio.o)
 .rodata.C.0.1730
                0x0000000000000000        0x0 /usr/local/xenon/usr/lib/libxenon.a(xenon_gpio.o)
 .text          0x0000000000000000        0x0 /usr/local/xenon/usr/lib/libxenon.a(xenon_config.o)
 .data          0x0000000000000000        0x0 /usr/local/xenon/usr/lib/libxenon.a(xenon_config.o)
 .bss           0x0000000000000000        0x0 /usr/local/xenon/usr/lib/libxenon.a(xenon_config.o)
 .text.xenon_config_get_vid_delta
                0x0000000000000000        0x0 /usr/local/xenon/usr/lib/libxenon.a(xenon_config.o)
 .text.xenon_config_get_mac_addr
                0x0000000000000000        0x0 /usr/local/xenon/usr/lib/libxenon.a(xenon_config.o)
 .rodata.C.4.2940
                0x0000000000000000        0x0 /usr/local/xenon/usr/lib/libxenon.a(xenon_config.o)
 .text          0x0000000000000000        0x0 /usr/local/xenon/usr/lib/libxenon.a(diskio.o)
 .data          0x0000000000000000        0x0 /usr/local/xenon/usr/lib/libxenon.a(diskio.o)
 .bss           0x0000000000000000        0x0 /usr/local/xenon/usr/lib/libxenon.a(diskio.o)
 .text.bdev_enum
                0x0000000000000000        0x0 /usr/local/xenon/usr/lib/libxenon.a(diskio.o)
 .text.bdev_open
                0x0000000000000000        0x0 /usr/local/xenon/usr/lib/libxenon.a(diskio.o)
 .text.register_bdev_child
                0x0000000000000000        0x0 /usr/local/xenon/usr/lib/libxenon.a(diskio.o)
 .text          0x0000000000000000        0x0 /usr/local/xenon/usr/lib/libxenon.a(disk_rb.o)
 .data          0x0000000000000000        0x0 /usr/local/xenon/usr/lib/libxenon.a(disk_rb.o)
 .bss           0x0000000000000000        0x0 /usr/local/xenon/usr/lib/libxenon.a(disk_rb.o)
 .text.disk_partinfo
                0x0000000000000000        0x0 /usr/local/xenon/usr/lib/libxenon.a(disk_rb.o)
 .text.disk_unmount
                0x0000000000000000        0x0 /usr/local/xenon/usr/lib/libxenon.a(disk_rb.o)
 .text          0x0000000000000000        0x0 /usr/local/xenon/usr/lib/libxenon.a(fat_rb.o)
 .data          0x0000000000000000        0x0 /usr/local/xenon/usr/lib/libxenon.a(fat_rb.o)
 .bss           0x0000000000000000        0x0 /usr/local/xenon/usr/lib/libxenon.a(fat_rb.o)
 .text.fat_size
                0x0000000000000000        0x0 /usr/local/xenon/usr/lib/libxenon.a(fat_rb.o)
 .text.fat_get_cluster_size
                0x0000000000000000        0x0 /usr/local/xenon/usr/lib/libxenon.a(fat_rb.o)
 .text.fat_ismounted
                0x0000000000000000        0x0 /usr/local/xenon/usr/lib/libxenon.a(fat_rb.o)
 .text.fat_lock
                0x0000000000000000        0x0 /usr/local/xenon/usr/lib/libxenon.a(fat_rb.o)
 .text.fat_unlock
                0x0000000000000000        0x0 /usr/local/xenon/usr/lib/libxenon.a(fat_rb.o)
 .text.free_direntries
                0x0000000000000000        0x0 /usr/local/xenon/usr/lib/libxenon.a(fat_rb.o)
 .text.fat_remove
                0x0000000000000000        0x0 /usr/local/xenon/usr/lib/libxenon.a(fat_rb.o)
 .text.fat_rename
                0x0000000000000000        0x0 /usr/local/xenon/usr/lib/libxenon.a(fat_rb.o)
 .text.fat_create_dir
                0x0000000000000000        0x0 /usr/local/xenon/usr/lib/libxenon.a(fat_rb.o)
 .text          0x0000000000000000        0x0 /usr/local/xenon/usr/lib/libxenon.a(file_rb.o)
 .data          0x0000000000000000        0x0 /usr/local/xenon/usr/lib/libxenon.a(file_rb.o)
 .bss           0x0000000000000000        0x0 /usr/local/xenon/usr/lib/libxenon.a(file_rb.o)
 .text.release_files
                0x0000000000000000        0x0 /usr/local/xenon/usr/lib/libxenon.a(file_rb.o)
 .text.rb_write
                0x0000000000000000        0x0 /usr/local/xenon/usr/lib/libxenon.a(file_rb.o)
 .text.rb_rename
                0x0000000000000000        0x0 /usr/local/xenon/usr/lib/libxenon.a(file_rb.o)
 .text.rb_remove
                0x0000000000000000        0x0 /usr/local/xenon/usr/lib/libxenon.a(file_rb.o)
 .text          0x0000000000000000        0x0 /usr/local/xenon/usr/lib/libxenon.a(dir_rb.o)
 .data          0x0000000000000000        0x0 /usr/local/xenon/usr/lib/libxenon.a(dir_rb.o)
 .bss           0x0000000000000000        0x0 /usr/local/xenon/usr/lib/libxenon.a(dir_rb.o)
 .text.release_dirs
                0x0000000000000000        0x0 /usr/local/xenon/usr/lib/libxenon.a(dir_rb.o)
 .text.rb_rmdir
                0x0000000000000000        0x0 /usr/local/xenon/usr/lib/libxenon.a(dir_rb.o)
 .text.rb_mkdir
                0x0000000000000000        0x0 /usr/local/xenon/usr/lib/libxenon.a(dir_rb.o)
 .text          0x0000000000000000        0x0 /usr/local/xenon/usr/lib/libxenon.a(iso9660.o)
 .data          0x0000000000000000        0x0 /usr/local/xenon/usr/lib/libxenon.a(iso9660.o)
 .bss           0x0000000000000000        0x0 /usr/local/xenon/usr/lib/libxenon.a(iso9660.o)
 .text          0x0000000000000000        0x0 /usr/local/xenon/usr/lib/libxenon.a(lib_queue.o)
 .data          0x0000000000000000        0x0 /usr/local/xenon/usr/lib/libxenon.a(lib_queue.o)
 .bss           0x0000000000000000        0x0 /usr/local/xenon/usr/lib/libxenon.a(lib_queue.o)
 .text.q_dequeue
                0x0000000000000000        0x0 /usr/local/xenon/usr/lib/libxenon.a(lib_queue.o)
 .text.q_map    0x0000000000000000        0x0 /usr/local/xenon/usr/lib/libxenon.a(lib_queue.o)
 .text.q_count  0x0000000000000000        0x0 /usr/local/xenon/usr/lib/libxenon.a(lib_queue.o)
 .text.q_find   0x0000000000000000        0x0 /usr/local/xenon/usr/lib/libxenon.a(lib_queue.o)
 .text          0x0000000000000000        0x0 /usr/local/xenon/usr/lib/libxenon.a(usbctrl.o)
 .data          0x0000000000000000        0x0 /usr/local/xenon/usr/lib/libxenon.a(usbctrl.o)
 .bss           0x0000000000000000        0x0 /usr/local/xenon/usr/lib/libxenon.a(usbctrl.o)
 .text          0x0000000000000000        0x0 /usr/local/xenon/usr/lib/libxenon.a(usbdebug.o)
 .data          0x0000000000000000        0x0 /usr/local/xenon/usr/lib/libxenon.a(usbdebug.o)
 .bss           0x0000000000000000        0x0 /usr/local/xenon/usr/lib/libxenon.a(usbdebug.o)
 .text.usb_dbg_showdevice
                0x0000000000000000        0x0 /usr/local/xenon/usr/lib/libxenon.a(usbdebug.o)
 .text.usb_dbg_dumpcfgdescr
                0x0000000000000000        0x0 /usr/local/xenon/usr/lib/libxenon.a(usbdebug.o)
 .text.usb_dbg_dumpdevice
                0x0000000000000000        0x0 /usr/local/xenon/usr/lib/libxenon.a(usbdebug.o)
 .text          0x0000000000000000        0x0 /usr/local/xenon/usr/lib/libxenon.a(unicode_rb.o)
 .data          0x0000000000000000        0x0 /usr/local/xenon/usr/lib/libxenon.a(unicode_rb.o)
 .bss           0x0000000000000000        0x0 /usr/local/xenon/usr/lib/libxenon.a(unicode_rb.o)
 .text.utf16LEdecode
                0x0000000000000000        0x0 /usr/local/xenon/usr/lib/libxenon.a(unicode_rb.o)
 .text.utf16BEdecode
                0x0000000000000000        0x0 /usr/local/xenon/usr/lib/libxenon.a(unicode_rb.o)
 .text.utf8seek
                0x0000000000000000        0x0 /usr/local/xenon/usr/lib/libxenon.a(unicode_rb.o)
 .text          0x0000000000000000        0x0 /usr/local/xenon/usr/lib/libxenon.a(xenon_sfcx.o)
 .data          0x0000000000000000        0x0 /usr/local/xenon/usr/lib/libxenon.a(xenon_sfcx.o)
 .bss           0x0000000000000000        0x0 /usr/local/xenon/usr/lib/libxenon.a(xenon_sfcx.o)
 .text.sfcx_get_blocknumber
                0x0000000000000000        0x0 /usr/local/xenon/usr/lib/libxenon.a(xenon_sfcx.o)
 .text.sfcx_set_blocknumber
                0x0000000000000000        0x0 /usr/local/xenon/usr/lib/libxenon.a(xenon_sfcx.o)
 .text.sfcx_get_blockversion
                0x0000000000000000        0x0 /usr/local/xenon/usr/lib/libxenon.a(xenon_sfcx.o)
 .text.sfcx_set_blockversion
                0x0000000000000000        0x0 /usr/local/xenon/usr/lib/libxenon.a(xenon_sfcx.o)
 .text.sfcx_set_pagevalid
                0x0000000000000000        0x0 /usr/local/xenon/usr/lib/libxenon.a(xenon_sfcx.o)
 .text.sfcx_set_pageinvalid
                0x0000000000000000        0x0 /usr/local/xenon/usr/lib/libxenon.a(xenon_sfcx.o)
 .text.sfcx_is_pagevalid
                0x0000000000000000        0x0 /usr/local/xenon/usr/lib/libxenon.a(xenon_sfcx.o)
 .text.sfcx_block_to_address
                0x0000000000000000        0x0 /usr/local/xenon/usr/lib/libxenon.a(xenon_sfcx.o)
 .text.sfcx_address_to_block
                0x0000000000000000        0x0 /usr/local/xenon/usr/lib/libxenon.a(xenon_sfcx.o)
 .text.sfcx_calcecc
                0x0000000000000000        0x0 /usr/local/xenon/usr/lib/libxenon.a(xenon_sfcx.o)
 .text.sfcx_erase_block
                0x0000000000000000        0x0 /usr/local/xenon/usr/lib/libxenon.a(xenon_sfcx.o)
 .text.sfcx_write_page
                0x0000000000000000        0x0 /usr/local/xenon/usr/lib/libxenon.a(xenon_sfcx.o)
 .text.sfcx_write_block
                0x0000000000000000        0x0 /usr/local/xenon/usr/lib/libxenon.a(xenon_sfcx.o)
 .text.sfcx_read_block
                0x0000000000000000        0x0 /usr/local/xenon/usr/lib/libxenon.a(xenon_sfcx.o)
 .data          0x0000000000000000        0x0 /usr/local/xenon/xenon/lib/32/libc.a(lib_a-assert.o)
 .bss           0x0000000000000000        0x0 /usr/local/xenon/xenon/lib/32/libc.a(lib_a-assert.o)
 .data          0x0000000000000000        0x0 /usr/local/xenon/xenon/lib/32/libc.a(lib_a-atoi.o)
 .bss           0x0000000000000000        0x0 /usr/local/xenon/xenon/lib/32/libc.a(lib_a-atoi.o)
 .got2          0x0000000000000000        0x0 /usr/local/xenon/xenon/lib/32/libc.a(lib_a-atoi.o)
 .text          0x0000000000000000        0x0 /usr/local/xenon/xenon/lib/32/libc.a(lib_a-ctype_.o)
 .data          0x0000000000000000        0x0 /usr/local/xenon/xenon/lib/32/libc.a(lib_a-ctype_.o)
 .bss           0x0000000000000000        0x0 /usr/local/xenon/xenon/lib/32/libc.a(lib_a-ctype_.o)
 .got2          0x0000000000000000        0x0 /usr/local/xenon/xenon/lib/32/libc.a(lib_a-ctype_.o)
 .data          0x0000000000000000        0x0 /usr/local/xenon/xenon/lib/32/libc.a(lib_a-errno.o)
 .bss           0x0000000000000000        0x0 /usr/local/xenon/xenon/lib/32/libc.a(lib_a-errno.o)
 .data          0x0000000000000000        0x0 /usr/local/xenon/xenon/lib/32/libc.a(lib_a-exit.o)
 .bss           0x0000000000000000        0x0 /usr/local/xenon/xenon/lib/32/libc.a(lib_a-exit.o)
 .data          0x0000000000000000        0x0 /usr/local/xenon/xenon/lib/32/libc.a(lib_a-fiprintf.o)
 .bss           0x0000000000000000        0x0 /usr/local/xenon/xenon/lib/32/libc.a(lib_a-fiprintf.o)
 .text          0x0000000000000000        0x0 /usr/local/xenon/xenon/lib/32/libc.a(lib_a-impure.o)
 .data          0x0000000000000000        0x0 /usr/local/xenon/xenon/lib/32/libc.a(lib_a-impure.o)
 .bss           0x0000000000000000        0x0 /usr/local/xenon/xenon/lib/32/libc.a(lib_a-impure.o)
 .got2          0x0000000000000000        0x0 /usr/local/xenon/xenon/lib/32/libc.a(lib_a-impure.o)
 .data          0x0000000000000000        0x0 /usr/local/xenon/xenon/lib/32/libc.a(lib_a-malloc.o)
 .bss           0x0000000000000000        0x0 /usr/local/xenon/xenon/lib/32/libc.a(lib_a-malloc.o)
 .data          0x0000000000000000        0x0 /usr/local/xenon/xenon/lib/32/libc.a(lib_a-mallocr.o)
 .data          0x0000000000000000        0x0 /usr/local/xenon/xenon/lib/32/libc.a(lib_a-memchr.o)
 .bss           0x0000000000000000        0x0 /usr/local/xenon/xenon/lib/32/libc.a(lib_a-memchr.o)
 .got2          0x0000000000000000        0x0 /usr/local/xenon/xenon/lib/32/libc.a(lib_a-memchr.o)
 .data          0x0000000000000000        0x0 /usr/local/xenon/xenon/lib/32/libc.a(lib_a-memcmp.o)
 .bss           0x0000000000000000        0x0 /usr/local/xenon/xenon/lib/32/libc.a(lib_a-memcmp.o)
 .got2          0x0000000000000000        0x0 /usr/local/xenon/xenon/lib/32/libc.a(lib_a-memcmp.o)
 .data          0x0000000000000000        0x0 /usr/local/xenon/xenon/lib/32/libc.a(lib_a-memcpy.o)
 .bss           0x0000000000000000        0x0 /usr/local/xenon/xenon/lib/32/libc.a(lib_a-memcpy.o)
 .got2          0x0000000000000000        0x0 /usr/local/xenon/xenon/lib/32/libc.a(lib_a-memcpy.o)
 .data          0x0000000000000000        0x0 /usr/local/xenon/xenon/lib/32/libc.a(lib_a-memset.o)
 .bss           0x0000000000000000        0x0 /usr/local/xenon/xenon/lib/32/libc.a(lib_a-memset.o)
 .got2          0x0000000000000000        0x0 /usr/local/xenon/xenon/lib/32/libc.a(lib_a-memset.o)
 .data          0x0000000000000000        0x0 /usr/local/xenon/xenon/lib/32/libc.a(lib_a-mlock.o)
 .bss           0x0000000000000000        0x0 /usr/local/xenon/xenon/lib/32/libc.a(lib_a-mlock.o)
 .got2          0x0000000000000000        0x0 /usr/local/xenon/xenon/lib/32/libc.a(lib_a-mlock.o)
 .data          0x0000000000000000        0x0 /usr/local/xenon/xenon/lib/32/libc.a(lib_a-printf.o)
 .bss           0x0000000000000000        0x0 /usr/local/xenon/xenon/lib/32/libc.a(lib_a-printf.o)
 .data          0x0000000000000000        0x0 /usr/local/xenon/xenon/lib/32/libc.a(lib_a-putchar.o)
 .bss           0x0000000000000000        0x0 /usr/local/xenon/xenon/lib/32/libc.a(lib_a-putchar.o)
 .data          0x0000000000000000        0x0 /usr/local/xenon/xenon/lib/32/libc.a(lib_a-putc.o)
 .bss           0x0000000000000000        0x0 /usr/local/xenon/xenon/lib/32/libc.a(lib_a-putc.o)
 .data          0x0000000000000000        0x0 /usr/local/xenon/xenon/lib/32/libc.a(lib_a-puts.o)
 .bss           0x0000000000000000        0x0 /usr/local/xenon/xenon/lib/32/libc.a(lib_a-puts.o)
 .data          0x0000000000000000        0x0 /usr/local/xenon/xenon/lib/32/libc.a(lib_a-rand.o)
 .bss           0x0000000000000000        0x0 /usr/local/xenon/xenon/lib/32/libc.a(lib_a-rand.o)
 .data          0x0000000000000000        0x0 /usr/local/xenon/xenon/lib/32/libc.a(lib_a-sbrkr.o)
 .bss           0x0000000000000000        0x0 /usr/local/xenon/xenon/lib/32/libc.a(lib_a-sbrkr.o)
 .data          0x0000000000000000        0x0 /usr/local/xenon/xenon/lib/32/libc.a(lib_a-snprintf.o)
 .bss           0x0000000000000000        0x0 /usr/local/xenon/xenon/lib/32/libc.a(lib_a-snprintf.o)
 .data          0x0000000000000000        0x0 /usr/local/xenon/xenon/lib/32/libc.a(lib_a-sprintf.o)
 .bss           0x0000000000000000        0x0 /usr/local/xenon/xenon/lib/32/libc.a(lib_a-sprintf.o)
 .data          0x0000000000000000        0x0 /usr/local/xenon/xenon/lib/32/libc.a(lib_a-strcasecmp.o)
 .bss           0x0000000000000000        0x0 /usr/local/xenon/xenon/lib/32/libc.a(lib_a-strcasecmp.o)
 .data          0x0000000000000000        0x0 /usr/local/xenon/xenon/lib/32/libc.a(lib_a-strcat.o)
 .bss           0x0000000000000000        0x0 /usr/local/xenon/xenon/lib/32/libc.a(lib_a-strcat.o)
 .got2          0x0000000000000000        0x0 /usr/local/xenon/xenon/lib/32/libc.a(lib_a-strcat.o)
 .data          0x0000000000000000        0x0 /usr/local/xenon/xenon/lib/32/libc.a(lib_a-strchr.o)
 .bss           0x0000000000000000        0x0 /usr/local/xenon/xenon/lib/32/libc.a(lib_a-strchr.o)
 .got2          0x0000000000000000        0x0 /usr/local/xenon/xenon/lib/32/libc.a(lib_a-strchr.o)
 .data          0x0000000000000000        0x0 /usr/local/xenon/xenon/lib/32/libc.a(lib_a-strcmp.o)
 .bss           0x0000000000000000        0x0 /usr/local/xenon/xenon/lib/32/libc.a(lib_a-strcmp.o)
 .got2          0x0000000000000000        0x0 /usr/local/xenon/xenon/lib/32/libc.a(lib_a-strcmp.o)
 .data          0x0000000000000000        0x0 /usr/local/xenon/xenon/lib/32/libc.a(lib_a-strcpy.o)
 .bss           0x0000000000000000        0x0 /usr/local/xenon/xenon/lib/32/libc.a(lib_a-strcpy.o)
 .got2          0x0000000000000000        0x0 /usr/local/xenon/xenon/lib/32/libc.a(lib_a-strcpy.o)
 .data          0x0000000000000000        0x0 /usr/local/xenon/xenon/lib/32/libc.a(lib_a-strlcpy.o)
 .bss           0x0000000000000000        0x0 /usr/local/xenon/xenon/lib/32/libc.a(lib_a-strlcpy.o)
 .got2          0x0000000000000000        0x0 /usr/local/xenon/xenon/lib/32/libc.a(lib_a-strlcpy.o)
 .data          0x0000000000000000        0x0 /usr/local/xenon/xenon/lib/32/libc.a(lib_a-strlen.o)
 .bss           0x0000000000000000        0x0 /usr/local/xenon/xenon/lib/32/libc.a(lib_a-strlen.o)
 .got2          0x0000000000000000        0x0 /usr/local/xenon/xenon/lib/32/libc.a(lib_a-strlen.o)
 .data          0x0000000000000000        0x0 /usr/local/xenon/xenon/lib/32/libc.a(lib_a-strncasecmp.o)
 .bss           0x0000000000000000        0x0 /usr/local/xenon/xenon/lib/32/libc.a(lib_a-strncasecmp.o)
 .data          0x0000000000000000        0x0 /usr/local/xenon/xenon/lib/32/libc.a(lib_a-strncmp.o)
 .bss           0x0000000000000000        0x0 /usr/local/xenon/xenon/lib/32/libc.a(lib_a-strncmp.o)
 .got2          0x0000000000000000        0x0 /usr/local/xenon/xenon/lib/32/libc.a(lib_a-strncmp.o)
 .data          0x0000000000000000        0x0 /usr/local/xenon/xenon/lib/32/libc.a(lib_a-strncpy.o)
 .bss           0x0000000000000000        0x0 /usr/local/xenon/xenon/lib/32/libc.a(lib_a-strncpy.o)
 .got2          0x0000000000000000        0x0 /usr/local/xenon/xenon/lib/32/libc.a(lib_a-strncpy.o)
 .data          0x0000000000000000        0x0 /usr/local/xenon/xenon/lib/32/libc.a(lib_a-strrchr.o)
 .bss           0x0000000000000000        0x0 /usr/local/xenon/xenon/lib/32/libc.a(lib_a-strrchr.o)
 .got2          0x0000000000000000        0x0 /usr/local/xenon/xenon/lib/32/libc.a(lib_a-strrchr.o)
 .data          0x0000000000000000        0x0 /usr/local/xenon/xenon/lib/32/libc.a(lib_a-strtok_r.o)
 .bss           0x0000000000000000        0x0 /usr/local/xenon/xenon/lib/32/libc.a(lib_a-strtok_r.o)
 .got2          0x0000000000000000        0x0 /usr/local/xenon/xenon/lib/32/libc.a(lib_a-strtok_r.o)
 .data          0x0000000000000000        0x0 /usr/local/xenon/xenon/lib/32/libc.a(lib_a-strtol.o)
 .bss           0x0000000000000000        0x0 /usr/local/xenon/xenon/lib/32/libc.a(lib_a-strtol.o)
 .data          0x0000000000000000        0x0 /usr/local/xenon/xenon/lib/32/libc.a(lib_a-svfprintf.o)
 .bss           0x0000000000000000        0x0 /usr/local/xenon/xenon/lib/32/libc.a(lib_a-svfprintf.o)
 .data          0x0000000000000000        0x0 /usr/local/xenon/xenon/lib/32/libc.a(lib_a-vfiprintf.o)
 .bss           0x0000000000000000        0x0 /usr/local/xenon/xenon/lib/32/libc.a(lib_a-vfiprintf.o)
 .data          0x0000000000000000        0x0 /usr/local/xenon/xenon/lib/32/libc.a(lib_a-vfprintf.o)
 .bss           0x0000000000000000        0x0 /usr/local/xenon/xenon/lib/32/libc.a(lib_a-vfprintf.o)
 .data          0x0000000000000000        0x0 /usr/local/xenon/xenon/lib/32/libc.a(lib_a-wbuf.o)
 .bss           0x0000000000000000        0x0 /usr/local/xenon/xenon/lib/32/libc.a(lib_a-wbuf.o)
 .data          0x0000000000000000        0x0 /usr/local/xenon/xenon/lib/32/libc.a(lib_a-wsetup.o)
 .bss           0x0000000000000000        0x0 /usr/local/xenon/xenon/lib/32/libc.a(lib_a-wsetup.o)
 .data          0x0000000000000000        0x0 /usr/local/xenon/xenon/lib/32/libc.a(lib_a-abort.o)
 .bss           0x0000000000000000        0x0 /usr/local/xenon/xenon/lib/32/libc.a(lib_a-abort.o)
 .got2          0x0000000000000000        0x0 /usr/local/xenon/xenon/lib/32/libc.a(lib_a-abort.o)
 .data          0x0000000000000000        0x0 /usr/local/xenon/xenon/lib/32/libc.a(lib_a-__call_atexit.o)
 .bss           0x0000000000000000        0x0 /usr/local/xenon/xenon/lib/32/libc.a(lib_a-__call_atexit.o)
 .data          0x0000000000000000        0x0 /usr/local/xenon/xenon/lib/32/libc.a(lib_a-dtoa.o)
 .bss           0x0000000000000000        0x0 /usr/local/xenon/xenon/lib/32/libc.a(lib_a-dtoa.o)
 .data          0x0000000000000000        0x0 /usr/local/xenon/xenon/lib/32/libc.a(lib_a-fflush.o)
 .bss           0x0000000000000000        0x0 /usr/local/xenon/xenon/lib/32/libc.a(lib_a-fflush.o)
 .data          0x0000000000000000        0x0 /usr/local/xenon/xenon/lib/32/libc.a(lib_a-findfp.o)
 .bss           0x0000000000000000        0x0 /usr/local/xenon/xenon/lib/32/libc.a(lib_a-findfp.o)
 .data          0x0000000000000000        0x0 /usr/local/xenon/xenon/lib/32/libc.a(lib_a-freer.o)
 .bss           0x0000000000000000        0x0 /usr/local/xenon/xenon/lib/32/libc.a(lib_a-freer.o)
 .data          0x0000000000000000        0x0 /usr/local/xenon/xenon/lib/32/libc.a(lib_a-fvwrite.o)
 .bss           0x0000000000000000        0x0 /usr/local/xenon/xenon/lib/32/libc.a(lib_a-fvwrite.o)
 .got2          0x0000000000000000        0x0 /usr/local/xenon/xenon/lib/32/libc.a(lib_a-fvwrite.o)
 .data          0x0000000000000000        0x0 /usr/local/xenon/xenon/lib/32/libc.a(lib_a-fwalk.o)
 .bss           0x0000000000000000        0x0 /usr/local/xenon/xenon/lib/32/libc.a(lib_a-fwalk.o)
 .got2          0x0000000000000000        0x0 /usr/local/xenon/xenon/lib/32/libc.a(lib_a-fwalk.o)
 .data          0x0000000000000000        0x0 /usr/local/xenon/xenon/lib/32/libc.a(lib_a-locale.o)
 .bss           0x0000000000000000        0x0 /usr/local/xenon/xenon/lib/32/libc.a(lib_a-locale.o)
 .sbss          0x0000000000000000        0x0 /usr/local/xenon/xenon/lib/32/libc.a(lib_a-locale.o)
 .sdata         0x0000000000000000        0x0 /usr/local/xenon/xenon/lib/32/libc.a(lib_a-locale.o)
 .data          0x0000000000000000        0x0 /usr/local/xenon/xenon/lib/32/libc.a(lib_a-makebuf.o)
 .bss           0x0000000000000000        0x0 /usr/local/xenon/xenon/lib/32/libc.a(lib_a-makebuf.o)
 .data          0x0000000000000000        0x0 /usr/local/xenon/xenon/lib/32/libc.a(lib_a-memmove.o)
 .bss           0x0000000000000000        0x0 /usr/local/xenon/xenon/lib/32/libc.a(lib_a-memmove.o)
 .got2          0x0000000000000000        0x0 /usr/local/xenon/xenon/lib/32/libc.a(lib_a-memmove.o)
 .data          0x0000000000000000        0x0 /usr/local/xenon/xenon/lib/32/libc.a(lib_a-mprec.o)
 .bss           0x0000000000000000        0x0 /usr/local/xenon/xenon/lib/32/libc.a(lib_a-mprec.o)
 .data          0x0000000000000000        0x0 /usr/local/xenon/xenon/lib/32/libc.a(lib_a-reallocr.o)
 .bss           0x0000000000000000        0x0 /usr/local/xenon/xenon/lib/32/libc.a(lib_a-reallocr.o)
 .text          0x0000000000000000        0x0 /usr/local/xenon/xenon/lib/32/libc.a(lib_a-reent.o)
 .data          0x0000000000000000        0x0 /usr/local/xenon/xenon/lib/32/libc.a(lib_a-reent.o)
 .bss           0x0000000000000000        0x0 /usr/local/xenon/xenon/lib/32/libc.a(lib_a-reent.o)
 .got2          0x0000000000000000        0x0 /usr/local/xenon/xenon/lib/32/libc.a(lib_a-reent.o)
 .data          0x0000000000000000        0x0 /usr/local/xenon/xenon/lib/32/libc.a(lib_a-signal.o)
 .bss           0x0000000000000000        0x0 /usr/local/xenon/xenon/lib/32/libc.a(lib_a-signal.o)
 .data          0x0000000000000000        0x0 /usr/local/xenon/xenon/lib/32/libc.a(lib_a-signalr.o)
 .bss           0x0000000000000000        0x0 /usr/local/xenon/xenon/lib/32/libc.a(lib_a-signalr.o)
 .data          0x0000000000000000        0x0 /usr/local/xenon/xenon/lib/32/libc.a(lib_a-s_isinfd.o)
 .bss           0x0000000000000000        0x0 /usr/local/xenon/xenon/lib/32/libc.a(lib_a-s_isinfd.o)
 .got2          0x0000000000000000        0x0 /usr/local/xenon/xenon/lib/32/libc.a(lib_a-s_isinfd.o)
 .data          0x0000000000000000        0x0 /usr/local/xenon/xenon/lib/32/libc.a(lib_a-s_isnand.o)
 .bss           0x0000000000000000        0x0 /usr/local/xenon/xenon/lib/32/libc.a(lib_a-s_isnand.o)
 .got2          0x0000000000000000        0x0 /usr/local/xenon/xenon/lib/32/libc.a(lib_a-s_isnand.o)
 .data          0x0000000000000000        0x0 /usr/local/xenon/xenon/lib/32/libc.a(lib_a-stdio.o)
 .bss           0x0000000000000000        0x0 /usr/local/xenon/xenon/lib/32/libc.a(lib_a-stdio.o)
 .got2          0x0000000000000000        0x0 /usr/local/xenon/xenon/lib/32/libc.a(lib_a-stdio.o)
 .data          0x0000000000000000        0x0 /usr/local/xenon/xenon/lib/32/libc.a(lib_a-writer.o)
 .bss           0x0000000000000000        0x0 /usr/local/xenon/xenon/lib/32/libc.a(lib_a-writer.o)
 .data          0x0000000000000000        0x0 /usr/local/xenon/xenon/lib/32/libc.a(lib_a-callocr.o)
 .bss           0x0000000000000000        0x0 /usr/local/xenon/xenon/lib/32/libc.a(lib_a-callocr.o)
 .got2          0x0000000000000000        0x0 /usr/local/xenon/xenon/lib/32/libc.a(lib_a-callocr.o)
 .data          0x0000000000000000        0x0 /usr/local/xenon/xenon/lib/32/libc.a(lib_a-closer.o)
 .bss           0x0000000000000000        0x0 /usr/local/xenon/xenon/lib/32/libc.a(lib_a-closer.o)
 .data          0x0000000000000000        0x0 /usr/local/xenon/xenon/lib/32/libc.a(lib_a-fclose.o)
 .bss           0x0000000000000000        0x0 /usr/local/xenon/xenon/lib/32/libc.a(lib_a-fclose.o)
 .data          0x0000000000000000        0x0 /usr/local/xenon/xenon/lib/32/libc.a(lib_a-fstatr.o)
 .bss           0x0000000000000000        0x0 /usr/local/xenon/xenon/lib/32/libc.a(lib_a-fstatr.o)
 .data          0x0000000000000000        0x0 /usr/local/xenon/xenon/lib/32/libc.a(lib_a-isattyr.o)
 .bss           0x0000000000000000        0x0 /usr/local/xenon/xenon/lib/32/libc.a(lib_a-isattyr.o)
 .data          0x0000000000000000        0x0 /usr/local/xenon/xenon/lib/32/libc.a(lib_a-lseekr.o)
 .bss           0x0000000000000000        0x0 /usr/local/xenon/xenon/lib/32/libc.a(lib_a-lseekr.o)
 .data          0x0000000000000000        0x0 /usr/local/xenon/xenon/lib/32/libc.a(lib_a-readr.o)
 .bss           0x0000000000000000        0x0 /usr/local/xenon/xenon/lib/32/libc.a(lib_a-readr.o)
 .text          0x0000000000000000        0x0 /usr/local/xenon/lib/gcc/xenon/4.4.0/32/crtend.o
 .data          0x0000000000000000        0x0 /usr/local/xenon/lib/gcc/xenon/4.4.0/32/crtend.o
 .bss           0x0000000000000000        0x0 /usr/local/xenon/lib/gcc/xenon/4.4.0/32/crtend.o
 .got2          0x0000000000000000        0x0 /usr/local/xenon/lib/gcc/xenon/4.4.0/32/crtend.o
 .ctors         0x0000000000000000        0x0 /usr/local/xenon/lib/gcc/xenon/4.4.0/32/crtend.o
 .dtors         0x0000000000000000        0x0 /usr/local/xenon/lib/gcc/xenon/4.4.0/32/crtend.o
 .jcr           0x0000000000000000        0x0 /usr/local/xenon/lib/gcc/xenon/4.4.0/32/crtend.o
 .init          0x0000000000000000        0x0 /usr/local/xenon/lib/gcc/xenon/4.4.0/32/crtend.o
 .text          0x0000000000000000        0x0 /usr/local/xenon/lib/gcc/xenon/4.4.0/../../../../xenon/lib/../lib/crtn.o
 .data          0x0000000000000000        0x0 /usr/local/xenon/lib/gcc/xenon/4.4.0/../../../../xenon/lib/../lib/crtn.o
 .bss           0x0000000000000000        0x0 /usr/local/xenon/lib/gcc/xenon/4.4.0/../../../../xenon/lib/../lib/crtn.o
 .init          0x0000000000000000        0x0 /usr/local/xenon/lib/gcc/xenon/4.4.0/../../../../xenon/lib/../lib/crtn.o
 .fini          0x0000000000000000        0x0 /usr/local/xenon/lib/gcc/xenon/4.4.0/../../../../xenon/lib/../lib/crtn.o

Memory Configuration

Name             Origin             Length             Attributes
*default*        0x0000000000000000 0xffffffffffffffff

Linker script and memory map

LOAD /usr/local/xenon/lib/gcc/xenon/4.4.0/../../../../xenon/lib/../lib/crt1.o
LOAD /usr/local/xenon/lib/gcc/xenon/4.4.0/../../../../xenon/lib/../lib/crti.o
LOAD /usr/local/xenon/lib/gcc/xenon/4.4.0/32/crtbegin.o
LOAD main.o
LOAD /usr/local/xenon/usr/lib/libxenon.a
LOAD /usr/local/xenon/xenon/lib/32/libm.a
LOAD /usr/local/xenon/lib/gcc/xenon/4.4.0/32/libgcc.a
LOAD /usr/local/xenon/xenon/lib/32/libc.a
LOAD /usr/local/xenon/lib/gcc/xenon/4.4.0/32/libgcc.a
LOAD /usr/local/xenon/lib/gcc/xenon/4.4.0/32/crtend.o
LOAD /usr/local/xenon/lib/gcc/xenon/4.4.0/../../../../xenon/lib/../lib/crtn.o
                0x0000000080000000                . = 0x80000000

.text           0x0000000080000000    0x1d5bc
 *(.except*)
 .except        0x0000000080000000     0x1d50 /usr/local/xenon/usr/lib/libxenon.a(except.o)
                0x0000000080000000                secondary_lock
                0x0000000080000000                exc_base
                0x0000000080000004                secondary_alive
 *(.pagetable)
 .pagetable     0x0000000080001d50       0x40 /usr/local/xenon/usr/lib/libxenon.a(vm.o)
                0x0000000080001d50                pagetable
 *(.text*)
 .text.call_ctors
                0x0000000080001d90       0x58 /usr/local/xenon/lib/gcc/xenon/4.4.0/../../../../xenon/lib/../lib/crt1.o
                0x0000000080001d90                call_ctors
 .text.displayCPUKey
                0x0000000080001de8       0x94 main.o
                0x0000000080001de8                displayCPUKey
 *fill*         0x0000000080001e7c        0x4 00
 .text.xenon_set_gpu_fan_speed
                0x0000000080001e80       0x44 main.o
                0x0000000080001e80                xenon_set_gpu_fan_speed
 *fill*         0x0000000080001ec4        0x4 00
 .text.xenon_set_cpu_fan_speed
                0x0000000080001ec8       0x44 main.o
                0x0000000080001ec8                xenon_set_cpu_fan_speed
 *fill*         0x0000000080001f0c        0x4 00
 .text.regulateTemperatures
                0x0000000080001f10      0x104 main.o
                0x0000000080001f10                regulateTemperatures
 *fill*         0x0000000080002014        0x4 00
 .text.printTemperatures
                0x0000000080002018      0x130 main.o
                0x0000000080002018                printTemperatures
 .text.setASCII
                0x0000000080002148       0x78 main.o
                0x0000000080002148                setASCII
 .text.clearScreen
                0x00000000800021c0       0x40 main.o
                0x00000000800021c0                clearScreen
 .text.reDash   0x0000000080002200       0x6c main.o
                0x0000000080002200                reDash
 *fill*         0x000000008000226c        0x4 00
 .text.shutdownConsole
                0x0000000080002270       0x20 main.o
                0x0000000080002270                shutdownConsole
 .text.mainInit
                0x0000000080002290       0x40 main.o
                0x0000000080002290                mainInit
 .text.main     0x00000000800022d0      0x1a8 main.o
                0x00000000800022d0                main
 *fill*         0x0000000080002478       0x88 00
 .text          0x0000000080002500      0x2f0 /usr/local/xenon/usr/lib/libxenon.a(startup_from_xell.o)
                0x00000000800026d4                wait
                0x0000000080002500                _start
                0x0000000080002748                return_to_xell
 .text.console_set_colors
                0x00000000800027f0       0x14 /usr/local/xenon/usr/lib/libxenon.a(console.o)
                0x00000000800027f0                console_set_colors
 .text.console_init
                0x0000000080002804      0x1c4 /usr/local/xenon/usr/lib/libxenon.a(console.o)
                0x0000000080002804                console_init
 .text.console_newline
                0x00000000800029c8      0x118 /usr/local/xenon/usr/lib/libxenon.a(console.o)
                0x00000000800029c8                console_newline
 .text.console_putch
                0x0000000080002ae0      0x18c /usr/local/xenon/usr/lib/libxenon.a(console.o)
                0x0000000080002ae0                console_putch
 .text.console_stdout_hook
                0x0000000080002c6c       0x50 /usr/local/xenon/usr/lib/libxenon.a(console.o)
 .text.get_controller_data
                0x0000000080002cbc       0x68 /usr/local/xenon/usr/lib/libxenon.a(input.o)
                0x0000000080002cbc                get_controller_data
 .text.set_controller_data
                0x0000000080002d24       0x5c /usr/local/xenon/usr/lib/libxenon.a(input.o)
                0x0000000080002d24                set_controller_data
 .text.vfs_console_isatty
                0x0000000080002d80        0x8 /usr/local/xenon/usr/lib/libxenon.a(newlib.o)
                0x0000000080002d80                vfs_console_isatty
 .text.umount   0x0000000080002d88       0x54 /usr/local/xenon/usr/lib/libxenon.a(newlib.o)
                0x0000000080002d88                umount
 .text.sbrk     0x0000000080002ddc       0x34 /usr/local/xenon/usr/lib/libxenon.a(newlib.o)
                0x0000000080002ddc                sbrk
 .text.getpid   0x0000000080002e10        0x8 /usr/local/xenon/usr/lib/libxenon.a(newlib.o)
                0x0000000080002e10                getpid
 .text.kill     0x0000000080002e18        0x8 /usr/local/xenon/usr/lib/libxenon.a(newlib.o)
                0x0000000080002e18                kill
 .text.read     0x0000000080002e20       0x88 /usr/local/xenon/usr/lib/libxenon.a(newlib.o)
                0x0000000080002e20                read
 .text.lseek    0x0000000080002ea8       0x88 /usr/local/xenon/usr/lib/libxenon.a(newlib.o)
                0x0000000080002ea8                lseek
 .text.isatty   0x0000000080002f30       0x7c /usr/local/xenon/usr/lib/libxenon.a(newlib.o)
                0x0000000080002f30                isatty
 .text.fstat    0x0000000080002fac       0x8c /usr/local/xenon/usr/lib/libxenon.a(newlib.o)
                0x0000000080002fac                fstat
 .text.write    0x0000000080003038       0x94 /usr/local/xenon/usr/lib/libxenon.a(newlib.o)
                0x0000000080003038                write
 .text._exit    0x00000000800030cc       0x24 /usr/local/xenon/usr/lib/libxenon.a(newlib.o)
                0x00000000800030cc                _exit
 .text.close    0x00000000800030f0       0x94 /usr/local/xenon/usr/lib/libxenon.a(newlib.o)
                0x00000000800030f0                close
 .text.mount    0x0000000080003184       0xdc /usr/local/xenon/usr/lib/libxenon.a(newlib.o)
                0x0000000080003184                mount
 .text.vfs_console_open
                0x0000000080003260       0x54 /usr/local/xenon/usr/lib/libxenon.a(newlib.o)
                0x0000000080003260                vfs_console_open
 .text.vfs_console_write
                0x00000000800032b4       0x7c /usr/local/xenon/usr/lib/libxenon.a(newlib.o)
                0x00000000800032b4                vfs_console_write
 .text.kfree    0x0000000080003330       0xb4 /usr/local/xenon/usr/lib/libxenon.a(lib_malloc.o)
                0x0000000080003330                kfree
 .text.kmem_init
                0x00000000800033e4       0x8c /usr/local/xenon/usr/lib/libxenon.a(lib_malloc.o)
                0x00000000800033e4                kmem_init
 .text.lib_outofmemory
                0x0000000080003470       0x28 /usr/local/xenon/usr/lib/libxenon.a(lib_malloc.o)
                0x0000000080003470                lib_outofmemory
 .text.kmalloc  0x0000000080003498      0x14c /usr/local/xenon/usr/lib/libxenon.a(lib_malloc.o)
                0x0000000080003498                kmalloc
 .text          0x00000000800035e4       0x68 /usr/local/xenon/usr/lib/libxenon.a(atomic.o)
                0x000000008000360c                atomic_clearset
                0x0000000080003624                lock
                0x00000000800035f8                atomic_dec
                0x0000000080003640                unlock
                0x00000000800035e4                atomic_inc
 .text          0x000000008000364c       0x80 /usr/local/xenon/usr/lib/libxenon.a(cache.o)
                0x0000000080003674                memdcbf
                0x000000008000369c                memicbi
                0x000000008000364c                memdcbst
 .text.usb_do_poll
                0x00000000800036cc       0xb0 /usr/local/xenon/usr/lib/libxenon.a(usbmain.o)
                0x00000000800036cc                usb_do_poll
 .text.usb_init_one_ohci
                0x000000008000377c       0xe4 /usr/local/xenon/usr/lib/libxenon.a(usbmain.o)
 .text.usb_init
                0x0000000080003860      0x164 /usr/local/xenon/usr/lib/libxenon.a(usbmain.o)
                0x0000000080003860                usb_init
 .text.xenon_smc_handle_bulk
                0x00000000800039c4       0x98 /usr/local/xenon/usr/lib/libxenon.a(xenon_smc.o)
                0x00000000800039c4                xenon_smc_handle_bulk
 .text.xenon_smc_receive_message
                0x0000000080003a5c       0x90 /usr/local/xenon/usr/lib/libxenon.a(xenon_smc.o)
                0x0000000080003a5c                xenon_smc_receive_message
 .text.xenon_smc_receive_response
                0x0000000080003aec       0x50 /usr/local/xenon/usr/lib/libxenon.a(xenon_smc.o)
                0x0000000080003aec                xenon_smc_receive_response
 .text.xenon_smc_send_message
                0x0000000080003b3c       0xa0 /usr/local/xenon/usr/lib/libxenon.a(xenon_smc.o)
                0x0000000080003b3c                xenon_smc_send_message
 .text.xenon_smc_read_avpack
                0x0000000080003bdc       0x54 /usr/local/xenon/usr/lib/libxenon.a(xenon_smc.o)
                0x0000000080003bdc                xenon_smc_read_avpack
 .text.xenon_smc_power_shutdown
                0x0000000080003c30       0x40 /usr/local/xenon/usr/lib/libxenon.a(xenon_smc.o)
                0x0000000080003c30                xenon_smc_power_shutdown
 .text.xenon_smc_set_power_led
                0x0000000080003c70       0x5c /usr/local/xenon/usr/lib/libxenon.a(xenon_smc.o)
                0x0000000080003c70                xenon_smc_set_power_led
 .text.xenon_smc_i2c_write
                0x0000000080003ccc       0xac /usr/local/xenon/usr/lib/libxenon.a(xenon_smc.o)
                0x0000000080003ccc                xenon_smc_i2c_write
 .text.xenon_smc_ana_read
                0x0000000080003d78       0xdc /usr/local/xenon/usr/lib/libxenon.a(xenon_smc.o)
                0x0000000080003d78                xenon_smc_ana_read
 .text.xenon_smc_ana_write
                0x0000000080003e54       0xb0 /usr/local/xenon/usr/lib/libxenon.a(xenon_smc.o)
                0x0000000080003e54                xenon_smc_ana_write
 .text.putch    0x0000000080003f04       0x60 /usr/local/xenon/usr/lib/libxenon.a(xenon_uart.o)
                0x0000000080003f04                putch
 .text.xenos_is_overscan
                0x0000000080003f64       0x50 /usr/local/xenon/usr/lib/libxenon.a(xenos.o)
                0x0000000080003f64                xenos_is_overscan
 .text.xenos_read32
                0x0000000080003fb4       0x24 /usr/local/xenon/usr/lib/libxenon.a(xenos.o)
                0x0000000080003fb4                xenos_read32
 .text.xenos_write32
                0x0000000080003fd8       0x24 /usr/local/xenon/usr/lib/libxenon.a(xenos.o)
                0x0000000080003fd8                xenos_write32
 .text.xenos_set_mode_f2
                0x0000000080003ffc      0x314 /usr/local/xenon/usr/lib/libxenon.a(xenos.o)
                0x0000000080003ffc                xenos_set_mode_f2
 .text.xenos_set_mode_f1
                0x0000000080004310      0x148 /usr/local/xenon/usr/lib/libxenon.a(xenos.o)
                0x0000000080004310                xenos_set_mode_f1
 .text.xenos_ana_preinit
                0x0000000080004458       0xe0 /usr/local/xenon/usr/lib/libxenon.a(xenos.o)
                0x0000000080004458                xenos_ana_preinit
 .text.xenos_init_phase1
                0x0000000080004538      0x3c0 /usr/local/xenon/usr/lib/libxenon.a(xenos.o)
                0x0000000080004538                xenos_init_phase1
 .text.xenos_init_phase0
                0x00000000800048f8       0xc0 /usr/local/xenon/usr/lib/libxenon.a(xenos.o)
                0x00000000800048f8                xenos_init_phase0
 .text.xenos_ana_write
                0x00000000800049b8       0x70 /usr/local/xenon/usr/lib/libxenon.a(xenos.o)
 .text.xenos_init_ana_new
                0x0000000080004a28      0x3a4 /usr/local/xenon/usr/lib/libxenon.a(xenos.o)
                0x0000000080004a28                xenos_init_ana_new
 .text.xenos_set_mode
                0x0000000080004dcc      0x35c /usr/local/xenon/usr/lib/libxenon.a(xenos.o)
                0x0000000080004dcc                xenos_set_mode
 .text.xenos_autoset_mode
                0x0000000080005128       0xf0 /usr/local/xenon/usr/lib/libxenon.a(xenos.o)
                0x0000000080005128                xenos_autoset_mode
 .text.xenos_init
                0x0000000080005218       0xac /usr/local/xenon/usr/lib/libxenon.a(xenos.o)
                0x0000000080005218                xenos_init
 .text.read32n  0x00000000800052c4        0x8 /usr/local/xenon/usr/lib/libxenon.a(io.o)
                0x00000000800052c4                read32n
 .text.write32n
                0x00000000800052cc        0x8 /usr/local/xenon/usr/lib/libxenon.a(io.o)
                0x00000000800052cc                write32n
 .text.write32  0x00000000800052d4        0x8 /usr/local/xenon/usr/lib/libxenon.a(io.o)
                0x00000000800052d4                write32
 .text.read32   0x00000000800052dc        0x8 /usr/local/xenon/usr/lib/libxenon.a(io.o)
                0x00000000800052dc                read32
 .text.udelay   0x00000000800052e4       0x4c /usr/local/xenon/usr/lib/libxenon.a(time.o)
                0x00000000800052e4                udelay
 .text.mdelay   0x0000000080005330       0x54 /usr/local/xenon/usr/lib/libxenon.a(time.o)
                0x0000000080005330                mdelay
 .text.delay    0x0000000080005384       0x54 /usr/local/xenon/usr/lib/libxenon.a(time.o)
                0x0000000080005384                delay
 .text._ohci_allocept
                0x00000000800053d8       0x64 /usr/local/xenon/usr/lib/libxenon.a(ohci.o)
 .text._ohci_allocxfer
                0x000000008000543c       0x5c /usr/local/xenon/usr/lib/libxenon.a(ohci.o)
 .text.ohci_stop
                0x0000000080005498       0x14 /usr/local/xenon/usr/lib/libxenon.a(ohci.o)
 .text._ohci_queueept
                0x00000000800054ac       0x74 /usr/local/xenon/usr/lib/libxenon.a(ohci.o)
 .text.ohci_delete
                0x0000000080005520        0x4 /usr/local/xenon/usr/lib/libxenon.a(ohci.o)
 .text.ohci_ept_create
                0x0000000080005524      0x1bc /usr/local/xenon/usr/lib/libxenon.a(ohci.o)
 .text.ohci_ept_setaddr
                0x00000000800056e0       0x70 /usr/local/xenon/usr/lib/libxenon.a(ohci.o)
 .text.ohci_ept_setmps
                0x0000000080005750       0x6c /usr/local/xenon/usr/lib/libxenon.a(ohci.o)
 .text.ohci_ept_cleartoggle
                0x00000000800057bc       0x7c /usr/local/xenon/usr/lib/libxenon.a(ohci.o)
 .text.ohci_ept_delete
                0x0000000080005838      0x250 /usr/local/xenon/usr/lib/libxenon.a(ohci.o)
 .text.ohci_start
                0x0000000080005a88      0x1d4 /usr/local/xenon/usr/lib/libxenon.a(ohci.o)
 .text.ohci_roothub_strdscr
                0x0000000080005c5c       0x7c /usr/local/xenon/usr/lib/libxenon.a(ohci.o)
 .text.ohci_xfer
                0x0000000080005cd8      0x93c /usr/local/xenon/usr/lib/libxenon.a(ohci.o)
 .text.ohci_intr
                0x0000000080006614      0x2c4 /usr/local/xenon/usr/lib/libxenon.a(ohci.o)
 .text._ohci_dma_alloc
                0x00000000800068d8       0x60 /usr/local/xenon/usr/lib/libxenon.a(ohci.o)
 .text.ohci_create
                0x0000000080006938      0x314 /usr/local/xenon/usr/lib/libxenon.a(ohci.o)
 .text.usb_poll
                0x0000000080006c4c       0x2c /usr/local/xenon/usr/lib/libxenon.a(usbd.o)
                0x0000000080006c4c                usb_poll
 .text.usb_queue_request
                0x0000000080006c78       0x54 /usr/local/xenon/usr/lib/libxenon.a(usbd.o)
                0x0000000080006c78                usb_queue_request
 .text.usb_wait_request
                0x0000000080006ccc       0x48 /usr/local/xenon/usr/lib/libxenon.a(usbd.o)
                0x0000000080006ccc                usb_wait_request
 .text.usb_sync_request
                0x0000000080006d14       0x30 /usr/local/xenon/usr/lib/libxenon.a(usbd.o)
                0x0000000080006d14                usb_sync_request
 .text.usb_new_address
                0x0000000080006d44       0x30 /usr/local/xenon/usr/lib/libxenon.a(usbd.o)
                0x0000000080006d44                usb_new_address
 .text.usb_set_ep0mps
                0x0000000080006d74       0x74 /usr/local/xenon/usr/lib/libxenon.a(usbd.o)
                0x0000000080006d74                usb_set_ep0mps
 .text.usb_complete_request
                0x0000000080006de8       0x3c /usr/local/xenon/usr/lib/libxenon.a(usbd.o)
                0x0000000080006de8                usb_complete_request
 .text.usb_find_cfg_descr
                0x0000000080006e24       0x54 /usr/local/xenon/usr/lib/libxenon.a(usbd.o)
                0x0000000080006e24                usb_find_cfg_descr
 .text.usb_create_pipe
                0x0000000080006e78      0x110 /usr/local/xenon/usr/lib/libxenon.a(usbd.o)
                0x0000000080006e78                usb_create_pipe
 .text.usb_open_pipe
                0x0000000080006f88       0x8c /usr/local/xenon/usr/lib/libxenon.a(usbd.o)
                0x0000000080006f88                usb_open_pipe
 .text.usb_free_request
                0x0000000080007014       0x48 /usr/local/xenon/usr/lib/libxenon.a(usbd.o)
                0x0000000080007014                usb_free_request
 .text.usb_destroy_all_pipes
                0x000000008000705c       0xa0 /usr/local/xenon/usr/lib/libxenon.a(usbd.o)
                0x000000008000705c                usb_destroy_all_pipes
 .text.usb_destroy_device
                0x00000000800070fc       0x54 /usr/local/xenon/usr/lib/libxenon.a(usbd.o)
                0x00000000800070fc                usb_destroy_device
 .text.usb_make_request
                0x0000000080007150       0xbc /usr/local/xenon/usr/lib/libxenon.a(usbd.o)
                0x0000000080007150                usb_make_request
 .text.usb_clear_stall
                0x000000008000720c      0x124 /usr/local/xenon/usr/lib/libxenon.a(usbd.o)
                0x000000008000720c                usb_clear_stall
 .text.usb_make_sync_request
                0x0000000080007330       0x48 /usr/local/xenon/usr/lib/libxenon.a(usbd.o)
                0x0000000080007330                usb_make_sync_request
 .text.usb_std_request
                0x0000000080007378      0x2c0 /usr/local/xenon/usr/lib/libxenon.a(usbd.o)
                0x0000000080007378                usb_std_request
 .text.usb_get_device_status
                0x0000000080007638       0x1c /usr/local/xenon/usr/lib/libxenon.a(usbd.o)
                0x0000000080007638                usb_get_device_status
 .text.usb_get_string
                0x0000000080007654      0x12c /usr/local/xenon/usr/lib/libxenon.a(usbd.o)
                0x0000000080007654                usb_get_string
 .text.usb_get_descriptor
                0x0000000080007780       0x20 /usr/local/xenon/usr/lib/libxenon.a(usbd.o)
                0x0000000080007780                usb_get_descriptor
 .text.usb_get_config_descriptor
                0x00000000800077a0       0xbc /usr/local/xenon/usr/lib/libxenon.a(usbd.o)
                0x00000000800077a0                usb_get_config_descriptor
 .text.usb_get_device_descriptor
                0x000000008000785c       0xc4 /usr/local/xenon/usr/lib/libxenon.a(usbd.o)
                0x000000008000785c                usb_get_device_descriptor
 .text.usb_simple_request
                0x0000000080007920       0x18 /usr/local/xenon/usr/lib/libxenon.a(usbd.o)
                0x0000000080007920                usb_simple_request
 .text.usb_set_address
                0x0000000080007938       0xc4 /usr/local/xenon/usr/lib/libxenon.a(usbd.o)
                0x0000000080007938                usb_set_address
 .text.usb_set_configuration
                0x00000000800079fc       0x14 /usr/local/xenon/usr/lib/libxenon.a(usbd.o)
                0x00000000800079fc                usb_set_configuration
 .text.usb_create_device
                0x0000000080007a10       0x90 /usr/local/xenon/usr/lib/libxenon.a(usbd.o)
                0x0000000080007a10                usb_create_device
 .text.usb_initroot
                0x0000000080007aa0      0x18c /usr/local/xenon/usr/lib/libxenon.a(usbd.o)
                0x0000000080007aa0                usb_initroot
 .text.usb_delay_ms
                0x0000000080007c2c       0x28 /usr/local/xenon/usr/lib/libxenon.a(usbd.o)
                0x0000000080007c2c                usb_delay_ms
 .text.usb_daemon
                0x0000000080007c54       0x38 /usr/local/xenon/usr/lib/libxenon.a(usbd.o)
                0x0000000080007c54                usb_daemon
 .text.usb_find_driver
                0x0000000080007c8c      0x124 /usr/local/xenon/usr/lib/libxenon.a(usbdevs.o)
                0x0000000080007c8c                usb_find_driver
 .text.usbhid_detach
                0x0000000080007db0        0x8 /usr/local/xenon/usr/lib/libxenon.a(usbhid.o)
 .text.usbhid_kbd_scan1
                0x0000000080007db8       0x9c /usr/local/xenon/usr/lib/libxenon.a(usbhid.o)
 .text.usbhid_attach
                0x0000000080007e54      0x190 /usr/local/xenon/usr/lib/libxenon.a(usbhid.o)
 .text.usbhid_ireq_callback
                0x0000000080007fe4      0x18c /usr/local/xenon/usr/lib/libxenon.a(usbhid.o)
 .text.usbhub_map_tree1
                0x0000000080008170       0xa4 /usr/local/xenon/usr/lib/libxenon.a(usbhub.o)
 .text.usbhub_map_tree
                0x0000000080008214       0x14 /usr/local/xenon/usr/lib/libxenon.a(usbhub.o)
                0x0000000080008214                usbhub_map_tree
 .text.usbhub_map_from_device
                0x0000000080008228       0x10 /usr/local/xenon/usr/lib/libxenon.a(usbhub.o)
                0x0000000080008228                usbhub_map_from_device
 .text.usbhub_markdetached1
                0x0000000080008238       0x18 /usr/local/xenon/usr/lib/libxenon.a(usbhub.o)
 .text.usb_scan
                0x0000000080008250       0x10 /usr/local/xenon/usr/lib/libxenon.a(usbhub.o)
                0x0000000080008250                usb_scan
 .text.usbhub_detach
                0x0000000080008260      0x188 /usr/local/xenon/usr/lib/libxenon.a(usbhub.o)
 .text.usbhub_get_port_status
                0x00000000800083e8       0x38 /usr/local/xenon/usr/lib/libxenon.a(usbhub.o)
 .text.usbhub_scan1
                0x0000000080008420      0x60c /usr/local/xenon/usr/lib/libxenon.a(usbhub.o)
 .text.usbhub_ireq_callback
                0x0000000080008a2c       0x90 /usr/local/xenon/usr/lib/libxenon.a(usbhub.o)
 .text.usbhub_attach
                0x0000000080008abc      0x1d4 /usr/local/xenon/usr/lib/libxenon.a(usbhub.o)
 .text.usbmass_detach
                0x0000000080008c90       0x44 /usr/local/xenon/usr/lib/libxenon.a(usbmass.o)
 .text.usbmass_attach
                0x0000000080008cd4      0x1d4 /usr/local/xenon/usr/lib/libxenon.a(usbmass.o)
 .text.usbmass_request_sense
                0x0000000080008ea8      0x1b4 /usr/local/xenon/usr/lib/libxenon.a(usbmass.o)
                0x0000000080008ea8                usbmass_request_sense
 .text.usbmass_stall_recovery
                0x000000008000905c       0x38 /usr/local/xenon/usr/lib/libxenon.a(usbmass.o)
 .text.usbmass_read_sector
                0x0000000080009094      0x270 /usr/local/xenon/usr/lib/libxenon.a(usbmass.o)
                0x0000000080009094                usbmass_read_sector
 .text.usbmass_read
                0x0000000080009304       0xbc /usr/local/xenon/usr/lib/libxenon.a(usbmass.o)
                0x0000000080009304                usbmass_read
 .text.xenon_gpio_set
                0x00000000800093c0       0x5c /usr/local/xenon/usr/lib/libxenon.a(xenon_gpio.o)
                0x00000000800093c0                xenon_gpio_set
 .text.xenon_gpio_set_oe
                0x000000008000941c       0x5c /usr/local/xenon/usr/lib/libxenon.a(xenon_gpio.o)
                0x000000008000941c                xenon_gpio_set_oe
 .text.xenon_config_get_avregion
                0x0000000080009478       0xac /usr/local/xenon/usr/lib/libxenon.a(xenon_config.o)
                0x0000000080009478                xenon_config_get_avregion
 .text.xenon_config_init
                0x0000000080009524       0xb0 /usr/local/xenon/usr/lib/libxenon.a(xenon_config.o)
                0x0000000080009524                xenon_config_init
 .text.unregister_bdev
                0x00000000800095d4       0x38 /usr/local/xenon/usr/lib/libxenon.a(diskio.o)
                0x00000000800095d4                unregister_bdev
 .text.determine_filesystem
                0x000000008000960c       0x80 /usr/local/xenon/usr/lib/libxenon.a(diskio.o)
                0x000000008000960c                determine_filesystem
 .text.register_bdev
                0x000000008000968c       0xf0 /usr/local/xenon/usr/lib/libxenon.a(diskio.o)
                0x000000008000968c                register_bdev
 .text._fat_umount
                0x000000008000977c       0x28 /usr/local/xenon/usr/lib/libxenon.a(diskio.o)
                0x000000008000977c                _fat_umount
 .text._fat_mount
                0x00000000800097a4       0x48 /usr/local/xenon/usr/lib/libxenon.a(diskio.o)
                0x00000000800097a4                _fat_mount
 .text._fat_open
                0x00000000800097ec       0x4c /usr/local/xenon/usr/lib/libxenon.a(diskio.o)
                0x00000000800097ec                _fat_open
 .text._fat_close
                0x0000000080009838       0x24 /usr/local/xenon/usr/lib/libxenon.a(diskio.o)
                0x0000000080009838                _fat_close
 .text._fat_fstat
                0x000000008000985c       0x4c /usr/local/xenon/usr/lib/libxenon.a(diskio.o)
                0x000000008000985c                _fat_fstat
 .text._fat_read
                0x00000000800098a8       0x24 /usr/local/xenon/usr/lib/libxenon.a(diskio.o)
                0x00000000800098a8                _fat_read
 .text._fat_lseek
                0x00000000800098cc       0x24 /usr/local/xenon/usr/lib/libxenon.a(diskio.o)
                0x00000000800098cc                _fat_lseek
 .text.storage_write_sectors
                0x00000000800098f0       0x40 /usr/local/xenon/usr/lib/libxenon.a(disk_rb.o)
                0x00000000800098f0                storage_write_sectors
 .text.storage_read_sectors
                0x0000000080009930      0x1b8 /usr/local/xenon/usr/lib/libxenon.a(disk_rb.o)
                0x0000000080009930                storage_read_sectors
 .text.disk_init
                0x0000000080009ae8      0x154 /usr/local/xenon/usr/lib/libxenon.a(disk_rb.o)
                0x0000000080009ae8                disk_init
 .text.disk_mount
                0x0000000080009c3c      0x140 /usr/local/xenon/usr/lib/libxenon.a(disk_rb.o)
                0x0000000080009c3c                disk_mount
 .text.fat_time
                0x0000000080009d7c      0x128 /usr/local/xenon/usr/lib/libxenon.a(fat_rb.o)
 .text.fat_open
                0x0000000080009ea4       0x74 /usr/local/xenon/usr/lib/libxenon.a(fat_rb.o)
                0x0000000080009ea4                fat_open
 .text.fat_opendir
                0x0000000080009f18       0xa8 /usr/local/xenon/usr/lib/libxenon.a(fat_rb.o)
                0x0000000080009f18                fat_opendir
 .text.cluster2sec
                0x0000000080009fc0       0x60 /usr/local/xenon/usr/lib/libxenon.a(fat_rb.o)
 .text.fat_init
                0x000000008000a020       0x98 /usr/local/xenon/usr/lib/libxenon.a(fat_rb.o)
                0x000000008000a020                fat_init
 .text.update_fsinfo
                0x000000008000a0b8      0x128 /usr/local/xenon/usr/lib/libxenon.a(fat_rb.o)
 .text.flush_fat_sector
                0x000000008000a1e0      0x108 /usr/local/xenon/usr/lib/libxenon.a(fat_rb.o)
 .text.cache_fat_sector
                0x000000008000a2e8      0x160 /usr/local/xenon/usr/lib/libxenon.a(fat_rb.o)
 .text.get_next_cluster
                0x000000008000a448      0x11c /usr/local/xenon/usr/lib/libxenon.a(fat_rb.o)
 .text.fat_seek
                0x000000008000a564      0x14c /usr/local/xenon/usr/lib/libxenon.a(fat_rb.o)
                0x000000008000a564                fat_seek
 .text.find_free_cluster
                0x000000008000a6b0      0x1bc /usr/local/xenon/usr/lib/libxenon.a(fat_rb.o)
 .text.fat_recalc_free
                0x000000008000a86c      0x174 /usr/local/xenon/usr/lib/libxenon.a(fat_rb.o)
                0x000000008000a86c                fat_recalc_free
 .text.flush_fat
                0x000000008000a9e0       0xc8 /usr/local/xenon/usr/lib/libxenon.a(fat_rb.o)
 .text.fat_unmount
                0x000000008000aaa8       0xac /usr/local/xenon/usr/lib/libxenon.a(fat_rb.o)
                0x000000008000aaa8                fat_unmount
 .text.update_fat_entry
                0x000000008000ab54      0x268 /usr/local/xenon/usr/lib/libxenon.a(fat_rb.o)
 .text.fat_truncate
                0x000000008000adbc       0xa8 /usr/local/xenon/usr/lib/libxenon.a(fat_rb.o)
                0x000000008000adbc                fat_truncate
 .text.transfer
                0x000000008000ae64      0x154 /usr/local/xenon/usr/lib/libxenon.a(fat_rb.o)
 .text.fat_readwrite
                0x000000008000afb8      0x390 /usr/local/xenon/usr/lib/libxenon.a(fat_rb.o)
                0x000000008000afb8                fat_readwrite
 .text.fat_getnext
                0x000000008000b348      0x4c4 /usr/local/xenon/usr/lib/libxenon.a(fat_rb.o)
                0x000000008000b348                fat_getnext
 .text.update_short_entry
                0x000000008000b80c      0x244 /usr/local/xenon/usr/lib/libxenon.a(fat_rb.o)
 .text.fat_closewrite
                0x000000008000ba50       0xb8 /usr/local/xenon/usr/lib/libxenon.a(fat_rb.o)
                0x000000008000ba50                fat_closewrite
 .text.fat_mount
                0x000000008000bb08      0x4f4 /usr/local/xenon/usr/lib/libxenon.a(fat_rb.o)
                0x000000008000bb08                fat_mount
 .text.char2dos
                0x000000008000bffc       0x8c /usr/local/xenon/usr/lib/libxenon.a(fat_rb.o)
 .text.randomize_dos_name
                0x000000008000c088      0x178 /usr/local/xenon/usr/lib/libxenon.a(fat_rb.o)
 .text.write_long_name
                0x000000008000c200      0x564 /usr/local/xenon/usr/lib/libxenon.a(fat_rb.o)
 .text.add_dir_entry
                0x000000008000c764      0x530 /usr/local/xenon/usr/lib/libxenon.a(fat_rb.o)
 .text.fat_create_file
                0x000000008000cc94       0x60 /usr/local/xenon/usr/lib/libxenon.a(fat_rb.o)
                0x000000008000cc94                fat_create_file
 .text.rb_filesize
                0x000000008000ccf4       0x6c /usr/local/xenon/usr/lib/libxenon.a(file_rb.o)
                0x000000008000ccf4                rb_filesize
 .text.flush_cache
                0x000000008000cd60       0xd0 /usr/local/xenon/usr/lib/libxenon.a(file_rb.o)
 .text.rb_lseek
                0x000000008000ce30      0x1c4 /usr/local/xenon/usr/lib/libxenon.a(file_rb.o)
                0x000000008000ce30                rb_lseek
 .text.readwrite
                0x000000008000cff4      0x440 /usr/local/xenon/usr/lib/libxenon.a(file_rb.o)
 .text.rb_read  0x000000008000d434        0x8 /usr/local/xenon/usr/lib/libxenon.a(file_rb.o)
                0x000000008000d434                rb_read
 .text.rb_ftruncate
                0x000000008000d43c       0xc8 /usr/local/xenon/usr/lib/libxenon.a(file_rb.o)
                0x000000008000d43c                rb_ftruncate
 .text.open_internal
                0x000000008000d504      0x39c /usr/local/xenon/usr/lib/libxenon.a(file_rb.o)
 .text.rb_open  0x000000008000d8a0        0x8 /usr/local/xenon/usr/lib/libxenon.a(file_rb.o)
                0x000000008000d8a0                rb_open
 .text.rb_fsync
                0x000000008000d8a8      0x128 /usr/local/xenon/usr/lib/libxenon.a(file_rb.o)
                0x000000008000d8a8                rb_fsync
 .text.rb_close
                0x000000008000d9d0       0xa0 /usr/local/xenon/usr/lib/libxenon.a(file_rb.o)
                0x000000008000d9d0                rb_close
 .text.rb_closedir
                0x000000008000da70       0x14 /usr/local/xenon/usr/lib/libxenon.a(dir_rb.o)
                0x000000008000da70                rb_closedir
 .text.rb_readdir
                0x000000008000da84       0xb0 /usr/local/xenon/usr/lib/libxenon.a(dir_rb.o)
                0x000000008000da84                rb_readdir
 .text.rb_opendir
                0x000000008000db34      0x1e8 /usr/local/xenon/usr/lib/libxenon.a(dir_rb.o)
                0x000000008000db34                rb_opendir
 .text._iso9660_lseek
                0x000000008000dd1c       0xa8 /usr/local/xenon/usr/lib/libxenon.a(iso9660.o)
                0x000000008000dd1c                _iso9660_lseek
 .text._iso9660_fstat
                0x000000008000ddc4       0x60 /usr/local/xenon/usr/lib/libxenon.a(iso9660.o)
                0x000000008000ddc4                _iso9660_fstat
 .text._iso9660_close
                0x000000008000de24       0x24 /usr/local/xenon/usr/lib/libxenon.a(iso9660.o)
                0x000000008000de24                _iso9660_close
 .text.bclear_cache
                0x000000008000de48       0x60 /usr/local/xenon/usr/lib/libxenon.a(iso9660.o)
 .text.iso_reset
                0x000000008000dea8       0x80 /usr/local/xenon/usr/lib/libxenon.a(iso9660.o)
                0x000000008000dea8                iso_reset
 .text.fs_iso9660_shutdown
                0x000000008000df28       0xa4 /usr/local/xenon/usr/lib/libxenon.a(iso9660.o)
                0x000000008000df28                fs_iso9660_shutdown
 .text._iso9660_umount
                0x000000008000dfcc        0x4 /usr/local/xenon/usr/lib/libxenon.a(iso9660.o)
                0x000000008000dfcc                _iso9660_umount
 .text.fs_iso9660_init
                0x000000008000dfd0       0xd0 /usr/local/xenon/usr/lib/libxenon.a(iso9660.o)
                0x000000008000dfd0                fs_iso9660_init
 .text._iso9660_mount
                0x000000008000e0a0        0xc /usr/local/xenon/usr/lib/libxenon.a(iso9660.o)
                0x000000008000e0a0                _iso9660_mount
 .text.init_percd
                0x000000008000e0ac      0x264 /usr/local/xenon/usr/lib/libxenon.a(iso9660.o)
 .text.bread_cache
                0x000000008000e310      0x1ac /usr/local/xenon/usr/lib/libxenon.a(iso9660.o)
 .text._iso9660_read
                0x000000008000e4bc      0x1cc /usr/local/xenon/usr/lib/libxenon.a(iso9660.o)
                0x000000008000e4bc                _iso9660_read
 .text.find_object
                0x000000008000e688      0x400 /usr/local/xenon/usr/lib/libxenon.a(iso9660.o)
 .text._iso9660_open
                0x000000008000ea88      0x280 /usr/local/xenon/usr/lib/libxenon.a(iso9660.o)
                0x000000008000ea88                _iso9660_open
 .text.q_enqueue
                0x000000008000ed08       0x18 /usr/local/xenon/usr/lib/libxenon.a(lib_queue.o)
                0x000000008000ed08                q_enqueue
 .text.q_deqnext
                0x000000008000ed20       0x30 /usr/local/xenon/usr/lib/libxenon.a(lib_queue.o)
                0x000000008000ed20                q_deqnext
 .text.usbctrl_detach
                0x000000008000ed50       0x5c /usr/local/xenon/usr/lib/libxenon.a(usbctrl.o)
 .text.usbctrl_attach
                0x000000008000edac      0x1cc /usr/local/xenon/usr/lib/libxenon.a(usbctrl.o)
 .text.usbctrl_ireq_callback
                0x000000008000ef78      0x1a0 /usr/local/xenon/usr/lib/libxenon.a(usbctrl.o)
 .text.getstringmaybe
                0x000000008000f118       0x88 /usr/local/xenon/usr/lib/libxenon.a(usbdebug.o)
 .text.usb_dbg_dumpdescriptors
                0x000000008000f1a0      0x708 /usr/local/xenon/usr/lib/libxenon.a(usbdebug.o)
                0x000000008000f1a0                usb_dbg_dumpdescriptors
 .text.usb_dbg_dumpportstatus
                0x000000008000f8a8      0x284 /usr/local/xenon/usr/lib/libxenon.a(usbdebug.o)
                0x000000008000f8a8                usb_dbg_dumpportstatus
 .text.utf8encode
                0x000000008000fb2c       0x84 /usr/local/xenon/usr/lib/libxenon.a(unicode_rb.o)
                0x000000008000fb2c                utf8encode
 .text.utf8length
                0x000000008000fbb0       0x34 /usr/local/xenon/usr/lib/libxenon.a(unicode_rb.o)
                0x000000008000fbb0                utf8length
 .text.utf8decode
                0x000000008000fbe4       0xd4 /usr/local/xenon/usr/lib/libxenon.a(unicode_rb.o)
                0x000000008000fbe4                utf8decode
 .text.sfcx_readreg
                0x000000008000fcb8       0x14 /usr/local/xenon/usr/lib/libxenon.a(xenon_sfcx.o)
                0x000000008000fcb8                sfcx_readreg
 .text.sfcx_writereg
                0x000000008000fccc       0x14 /usr/local/xenon/usr/lib/libxenon.a(xenon_sfcx.o)
                0x000000008000fccc                sfcx_writereg
 .text.sfcx_init
                0x000000008000fce0      0x280 /usr/local/xenon/usr/lib/libxenon.a(xenon_sfcx.o)
                0x000000008000fce0                sfcx_init
 .text.sfcx_read_page
                0x000000008000ff60      0x170 /usr/local/xenon/usr/lib/libxenon.a(xenon_sfcx.o)
                0x000000008000ff60                sfcx_read_page
 .text          0x00000000800100d0       0x88 /usr/local/xenon/xenon/lib/32/libc.a(lib_a-assert.o)
                0x00000000800100d4                __assert_func
                0x0000000080010140                __assert
 .text          0x0000000080010158       0x50 /usr/local/xenon/xenon/lib/32/libc.a(lib_a-atoi.o)
                0x0000000080010158                _atoi_r
                0x0000000080010180                atoi
 .text          0x00000000800101a8       0x40 /usr/local/xenon/xenon/lib/32/libc.a(lib_a-errno.o)
                0x00000000800101ac                __errno
 .text          0x00000000800101e8       0x58 /usr/local/xenon/xenon/lib/32/libc.a(lib_a-exit.o)
                0x00000000800101ec                exit
 .text          0x0000000080010240      0x12c /usr/local/xenon/xenon/lib/32/libc.a(lib_a-fiprintf.o)
                0x00000000800102f0                _fiprintf_r
                0x0000000080010244                fiprintf
 *fill*         0x000000008001036c        0x4 00
 .text          0x0000000080010370       0x90 /usr/local/xenon/xenon/lib/32/libc.a(lib_a-malloc.o)
                0x00000000800103bc                malloc
                0x0000000080010374                free
 .text          0x0000000080010400      0x880 /usr/local/xenon/xenon/lib/32/libc.a(lib_a-mallocr.o)
                0x0000000080010404                _malloc_r
 .text          0x0000000080010c80      0x128 /usr/local/xenon/xenon/lib/32/libc.a(lib_a-memchr.o)
                0x0000000080010c80                memchr
 .text          0x0000000080010da8       0xd8 /usr/local/xenon/xenon/lib/32/libc.a(lib_a-memcmp.o)
                0x0000000080010da8                memcmp
 .text          0x0000000080010e80      0x12c /usr/local/xenon/xenon/lib/32/libc.a(lib_a-memcpy.o)
                0x0000000080010e80                memcpy
 *fill*         0x0000000080010fac        0x4 00
 .text          0x0000000080010fb0      0x138 /usr/local/xenon/xenon/lib/32/libc.a(lib_a-memset.o)
                0x0000000080010fb0                memset
 .text          0x00000000800110e8        0xc /usr/local/xenon/xenon/lib/32/libc.a(lib_a-mlock.o)
                0x00000000800110f0                __malloc_unlock
                0x00000000800110e8                __malloc_lock
 *fill*         0x00000000800110f4        0x4 00
 .text          0x00000000800110f8      0x140 /usr/local/xenon/xenon/lib/32/libc.a(lib_a-printf.o)
                0x00000000800110fc                printf
                0x00000000800111b0                _printf_r
 .text          0x0000000080011238       0x74 /usr/local/xenon/xenon/lib/32/libc.a(lib_a-putchar.o)
                0x000000008001123c                putchar
                0x0000000080011288                _putchar_r
 *fill*         0x00000000800112ac        0x4 00
 .text          0x00000000800112b0      0x208 /usr/local/xenon/xenon/lib/32/libc.a(lib_a-putc.o)
                0x00000000800113d8                _putc_r
                0x00000000800112b4                putc
 .text          0x00000000800114b8      0x130 /usr/local/xenon/xenon/lib/32/libc.a(lib_a-puts.o)
                0x00000000800114bc                _puts_r
                0x00000000800115a4                puts
 .text          0x00000000800115e8       0xd4 /usr/local/xenon/xenon/lib/32/libc.a(lib_a-rand.o)
                0x000000008001163c                rand
                0x00000000800115ec                srand
 *fill*         0x00000000800116bc        0x4 00
 .text          0x00000000800116c0       0x94 /usr/local/xenon/xenon/lib/32/libc.a(lib_a-sbrkr.o)
                0x00000000800116c4                _sbrk_r
 *fill*         0x0000000080011754        0x4 00
 .text          0x0000000080011758      0x250 /usr/local/xenon/xenon/lib/32/libc.a(lib_a-snprintf.o)
                0x000000008001175c                snprintf
                0x0000000080011890                _snprintf_r
 .text          0x00000000800119a8      0x1a4 /usr/local/xenon/xenon/lib/32/libc.a(lib_a-sprintf.o)
                0x0000000080011a90                _sprintf_r
                0x00000000800119ac                sprintf
 *fill*         0x0000000080011b4c        0x4 00
 .text          0x0000000080011b50      0x108 /usr/local/xenon/xenon/lib/32/libc.a(lib_a-strcasecmp.o)
                0x0000000080011b54                strcasecmp
 .text          0x0000000080011c58       0x8c /usr/local/xenon/xenon/lib/32/libc.a(lib_a-strcat.o)
                0x0000000080011c58                strcat
 *fill*         0x0000000080011ce4        0x4 00
 .text          0x0000000080011ce8      0x1e4 /usr/local/xenon/xenon/lib/32/libc.a(lib_a-strchr.o)
                0x0000000080011ce8                strchr
 *fill*         0x0000000080011ecc        0x4 00
 .text          0x0000000080011ed0       0xe8 /usr/local/xenon/xenon/lib/32/libc.a(lib_a-strcmp.o)
                0x0000000080011ed0                strcmp
 .text          0x0000000080011fb8       0x90 /usr/local/xenon/xenon/lib/32/libc.a(lib_a-strcpy.o)
                0x0000000080011fb8                strcpy
 .text          0x0000000080012048       0x88 /usr/local/xenon/xenon/lib/32/libc.a(lib_a-strlcpy.o)
                0x0000000080012048                strlcpy
 .text          0x00000000800120d0       0xb4 /usr/local/xenon/xenon/lib/32/libc.a(lib_a-strlen.o)
                0x00000000800120d0                strlen
 *fill*         0x0000000080012184        0x4 00
 .text          0x0000000080012188       0xe8 /usr/local/xenon/xenon/lib/32/libc.a(lib_a-strncasecmp.o)
                0x000000008001218c                strncasecmp
 .text          0x0000000080012270      0x180 /usr/local/xenon/xenon/lib/32/libc.a(lib_a-strncmp.o)
                0x0000000080012270                strncmp
 .text          0x00000000800123f0      0x108 /usr/local/xenon/xenon/lib/32/libc.a(lib_a-strncpy.o)
                0x00000000800123f0                strncpy
 .text          0x00000000800124f8       0x98 /usr/local/xenon/xenon/lib/32/libc.a(lib_a-strrchr.o)
                0x00000000800124f8                strrchr
 .text          0x0000000080012590      0x12c /usr/local/xenon/xenon/lib/32/libc.a(lib_a-strtok_r.o)
                0x0000000080012698                strtok_r
                0x0000000080012590                __strtok_r
 *fill*         0x00000000800126bc        0x4 00
 .text          0x00000000800126c0      0x2a4 /usr/local/xenon/xenon/lib/32/libc.a(lib_a-strtol.o)
                0x0000000080012914                strtol
                0x00000000800126c4                _strtol_r
 *fill*         0x0000000080012964        0x4 00
 .text          0x0000000080012968     0x2144 /usr/local/xenon/xenon/lib/32/libc.a(lib_a-svfprintf.o)
                0x0000000080012c54                _svfprintf_r
 *fill*         0x0000000080014aac        0x4 00
 .text          0x0000000080014ab0     0x1224 /usr/local/xenon/xenon/lib/32/libc.a(lib_a-vfiprintf.o)
                0x0000000080015c84                vfiprintf
                0x0000000080014b1c                _vfiprintf_r
 *fill*         0x0000000080015cd4        0x4 00
 .text          0x0000000080015cd8     0x1ffc /usr/local/xenon/xenon/lib/32/libc.a(lib_a-vfprintf.o)
                0x0000000080015d44                _vfprintf_r
                0x0000000080017c84                vfprintf
 *fill*         0x0000000080017cd4        0x4 00
 .text          0x0000000080017cd8      0x1e4 /usr/local/xenon/xenon/lib/32/libc.a(lib_a-wbuf.o)
                0x0000000080017cd8                __swbuf_r
                0x0000000080017e74                __swbuf
 *fill*         0x0000000080017ebc        0x4 00
 .text          0x0000000080017ec0      0x1a8 /usr/local/xenon/xenon/lib/32/libc.a(lib_a-wsetup.o)
                0x0000000080017ec4                __swsetup_r
 .text          0x0000000080018068       0x1c /usr/local/xenon/xenon/lib/32/libc.a(lib_a-abort.o)
                0x0000000080018068                abort
 *fill*         0x0000000080018084        0x4 00
 .text          0x0000000080018088      0x1f4 /usr/local/xenon/xenon/lib/32/libc.a(lib_a-__call_atexit.o)
                0x000000008001808c                __call_exitprocs
 *fill*         0x000000008001827c        0x4 00
 .text          0x0000000080018280     0x144c /usr/local/xenon/xenon/lib/32/libc.a(lib_a-dtoa.o)
                0x00000000800184bc                _dtoa_r
 *fill*         0x00000000800196cc        0x4 00
 .text          0x00000000800196d0      0x2ec /usr/local/xenon/xenon/lib/32/libc.a(lib_a-fflush.o)
                0x000000008001994c                fflush
                0x00000000800196d0                _fflush_r
 *fill*         0x00000000800199bc        0x4 00
 .text          0x00000000800199c0      0x49c /usr/local/xenon/xenon/lib/32/libc.a(lib_a-findfp.o)
                0x0000000080019bbc                __sinit
                0x0000000080019c70                __sfmoreglue
                0x0000000080019ad4                _cleanup
                0x0000000080019a94                _cleanup_r
                0x0000000080019a44                __fp_lock_all
                0x00000000800199c0                __sfp_lock_acquire
                0x0000000080019cf4                __sfp
                0x00000000800199d8                __sinit_lock_release
                0x00000000800199f4                __fp_unlock_all
                0x00000000800199c8                __sfp_lock_release
                0x00000000800199d0                __sinit_lock_acquire
 *fill*         0x0000000080019e5c        0x4 00
 .text          0x0000000080019e60      0x428 /usr/local/xenon/xenon/lib/32/libc.a(lib_a-freer.o)
                0x0000000080019fc4                _free_r
                0x0000000080019e64                _malloc_trim_r
 .text          0x000000008001a288      0x58c /usr/local/xenon/xenon/lib/32/libc.a(lib_a-fvwrite.o)
                0x000000008001a288                __sfvwrite_r
 *fill*         0x000000008001a814        0x4 00
 .text          0x000000008001a818      0x18c /usr/local/xenon/xenon/lib/32/libc.a(lib_a-fwalk.o)
                0x000000008001a8e8                _fwalk
                0x000000008001a818                _fwalk_reent
 *fill*         0x000000008001a9a4        0x4 00
 .text          0x000000008001a9a8      0x1ec /usr/local/xenon/xenon/lib/32/libc.a(lib_a-locale.o)
                0x000000008001aa74                _setlocale_r
                0x000000008001a9ac                __locale_charset
                0x000000008001a9ec                _localeconv_r
                0x000000008001ab4c                setlocale
                0x000000008001aa2c                localeconv
 *fill*         0x000000008001ab94        0x4 00
 .text          0x000000008001ab98      0x22c /usr/local/xenon/xenon/lib/32/libc.a(lib_a-makebuf.o)
                0x000000008001ab9c                __smakebuf_r
 *fill*         0x000000008001adc4        0x4 00
 .text          0x000000008001adc8      0x16c /usr/local/xenon/xenon/lib/32/libc.a(lib_a-memmove.o)
                0x000000008001adc8                memmove
 *fill*         0x000000008001af34        0x4 00
 .text          0x000000008001af38     0x1334 /usr/local/xenon/xenon/lib/32/libc.a(lib_a-mprec.o)
                0x000000008001b484                _mprec_log10
                0x000000008001b590                __any_on
                0x000000008001b638                _Balloc
                0x000000008001b398                __ratio
                0x000000008001be68                __i2b
                0x000000008001b208                __b2d
                0x000000008001c138                __s2b
                0x000000008001b0c8                __mcmp
                0x000000008001af60                __hi0bits
                0x000000008001bfd4                __pow5mult
                0x000000008001ba80                __lshift
                0x000000008001bc10                __multiply
                0x000000008001b6f8                __d2b
                0x000000008001b500                __copybits
                0x000000008001b158                __ulp
                0x000000008001b8a8                __mdiff
                0x000000008001afd8                __lo0bits
                0x000000008001bea8                __multadd
                0x000000008001af38                _Bfree
 *fill*         0x000000008001c26c        0x4 00
 .text          0x000000008001c270      0x650 /usr/local/xenon/xenon/lib/32/libc.a(lib_a-reallocr.o)
                0x000000008001c274                _realloc_r
 .text          0x000000008001c8c0      0x3dc /usr/local/xenon/xenon/lib/32/libc.a(lib_a-signal.o)
                0x000000008001cbc0                _signal_r
                0x000000008001c8c0                _raise_r
                0x000000008001cab8                __sigtramp_r
                0x000000008001cc54                signal
                0x000000008001ca74                _init_signal
                0x000000008001c9f0                _init_signal_r
                0x000000008001cb7c                __sigtramp
                0x000000008001c9ac                raise
 *fill*         0x000000008001cc9c        0x4 00
 .text          0x000000008001cca0       0xbc /usr/local/xenon/xenon/lib/32/libc.a(lib_a-signalr.o)
                0x000000008001ccc4                _kill_r
                0x000000008001cca0                _getpid_r
 *fill*         0x000000008001cd5c        0x4 00
 .text          0x000000008001cd60       0x44 /usr/local/xenon/xenon/lib/32/libc.a(lib_a-s_isinfd.o)
                0x000000008001cd60                __isinfd
 *fill*         0x000000008001cda4        0x4 00
 .text          0x000000008001cda8       0x38 /usr/local/xenon/xenon/lib/32/libc.a(lib_a-s_isnand.o)
                0x000000008001cda8                __isnand
 .text          0x000000008001cde0      0x1a8 /usr/local/xenon/xenon/lib/32/libc.a(lib_a-stdio.o)
                0x000000008001ce08                __sseek
                0x000000008001cf20                __sread
                0x000000008001cde0                __sclose
                0x000000008001ce78                __swrite
 .text          0x000000008001cf88       0x9c /usr/local/xenon/xenon/lib/32/libc.a(lib_a-writer.o)
                0x000000008001cf8c                _write_r
 *fill*         0x000000008001d024        0x4 00
 .text          0x000000008001d028       0xd0 /usr/local/xenon/xenon/lib/32/libc.a(lib_a-callocr.o)
                0x000000008001d028                _calloc_r
 .text          0x000000008001d0f8       0x94 /usr/local/xenon/xenon/lib/32/libc.a(lib_a-closer.o)
                0x000000008001d0fc                _close_r
 *fill*         0x000000008001d18c        0x4 00
 .text          0x000000008001d190      0x1b8 /usr/local/xenon/xenon/lib/32/libc.a(lib_a-fclose.o)
                0x000000008001d190                _fclose_r
                0x000000008001d304                fclose
 .text          0x000000008001d348       0x9c /usr/local/xenon/xenon/lib/32/libc.a(lib_a-fstatr.o)
                0x000000008001d34c                _fstat_r
 *fill*         0x000000008001d3e4        0x4 00
 .text          0x000000008001d3e8       0x94 /usr/local/xenon/xenon/lib/32/libc.a(lib_a-isattyr.o)
                0x000000008001d3ec                _isatty_r
 *fill*         0x000000008001d47c        0x4 00
 .text          0x000000008001d480       0x9c /usr/local/xenon/xenon/lib/32/libc.a(lib_a-lseekr.o)
                0x000000008001d484                _lseek_r
 *fill*         0x000000008001d51c        0x4 00
 .text          0x000000008001d520       0x9c /usr/local/xenon/xenon/lib/32/libc.a(lib_a-readr.o)
                0x000000008001d524                _read_r
 *(.init*)

.elfldr         0x000000008001d5bc        0x0
                0x000000008001d5bc                elfldr_start = .
 *(.elfldr)
                0x000000008001d5bc                elfldr_end = .

.data           0x000000008001d5c0     0x575c
 *(.data*)
 .data.console_color
                0x000000008001d5c0        0x8 /usr/local/xenon/usr/lib/libxenon.a(console.o)
 .data.mounts   0x000000008001d5c8      0x480 /usr/local/xenon/usr/lib/libxenon.a(newlib.o)
 .data.vfs_console_ops
                0x000000008001da48       0x18 /usr/local/xenon/usr/lib/libxenon.a(newlib.o)
                0x000000008001da48                vfs_console_ops
 .data.vfs_console_mount_ops
                0x000000008001da60        0xc /usr/local/xenon/usr/lib/libxenon.a(newlib.o)
                0x000000008001da60                vfs_console_mount_ops
 .data.fd_array
                0x000000008001da6c      0xc00 /usr/local/xenon/usr/lib/libxenon.a(newlib.o)
 .data.ana_1360x768
                0x000000008001e66c      0x400 /usr/local/xenon/usr/lib/libxenon.a(xenos.o)
                0x000000008001e66c                ana_1360x768
 .data.xenos_modes
                0x000000008001ea6c      0x2d8 /usr/local/xenon/usr/lib/libxenon.a(xenos.o)
                0x000000008001ea6c                xenos_modes
 .data.ana_1280x720
                0x000000008001ed44      0x400 /usr/local/xenon/usr/lib/libxenon.a(xenos.o)
                0x000000008001ed44                ana_1280x720
 .data.ana_ntsc_480i
                0x000000008001f144      0x400 /usr/local/xenon/usr/lib/libxenon.a(xenos.o)
                0x000000008001f144                ana_ntsc_480i
 .data.ana_1024x768
                0x000000008001f544      0x400 /usr/local/xenon/usr/lib/libxenon.a(xenos.o)
                0x000000008001f544                ana_1024x768
 .data.ana_640x480p
                0x000000008001f944      0x400 /usr/local/xenon/usr/lib/libxenon.a(xenos.o)
                0x000000008001f944                ana_640x480p
 .data.ana_pal  0x000000008001fd44      0x400 /usr/local/xenon/usr/lib/libxenon.a(xenos.o)
                0x000000008001fd44                ana_pal
 .data.ana_yuv_480p
                0x0000000080020144      0x400 /usr/local/xenon/usr/lib/libxenon.a(xenos.o)
                0x0000000080020144                ana_yuv_480p
 .data.ana_hdmi_720p
                0x0000000080020544      0x400 /usr/local/xenon/usr/lib/libxenon.a(xenos.o)
                0x0000000080020544                ana_hdmi_720p
 .data.ana_yuv_720p
                0x0000000080020944      0x400 /usr/local/xenon/usr/lib/libxenon.a(xenos.o)
                0x0000000080020944                ana_yuv_720p
 .data.ana_1280x1024
                0x0000000080020d44      0x400 /usr/local/xenon/usr/lib/libxenon.a(xenos.o)
                0x0000000080020d44                ana_1280x1024
 .data.ana_640_480_composite
                0x0000000080021144      0x400 /usr/local/xenon/usr/lib/libxenon.a(xenos.o)
                0x0000000080021144                ana_640_480_composite
 .data.ana_1440x900
                0x0000000080021544      0x400 /usr/local/xenon/usr/lib/libxenon.a(xenos.o)
                0x0000000080021544                ana_1440x900
 .data.ana_1280x768
                0x0000000080021944      0x400 /usr/local/xenon/usr/lib/libxenon.a(xenos.o)
                0x0000000080021944                ana_1280x768
 .data.ohci_driver
                0x0000000080021d44       0x2c /usr/local/xenon/usr/lib/libxenon.a(ohci.o)
                0x0000000080021d44                ohci_driver
 .data.usb_drivers
                0x0000000080021d70       0x70 /usr/local/xenon/usr/lib/libxenon.a(usbdevs.o)
                0x0000000080021d70                usb_drivers
 .data.usbhid_driver
                0x0000000080021de0        0xc /usr/local/xenon/usr/lib/libxenon.a(usbhid.o)
                0x0000000080021de0                usbhid_driver
 .data.usbhid_scantable
                0x0000000080021dec      0x650 /usr/local/xenon/usr/lib/libxenon.a(usbhid.o)
 .data.usbhub_driver
                0x000000008002243c        0xc /usr/local/xenon/usr/lib/libxenon.a(usbhub.o)
                0x000000008002243c                usbhub_driver
 .data.usbroothub_driver
                0x0000000080022448        0xc /usr/local/xenon/usr/lib/libxenon.a(usbhub.o)
                0x0000000080022448                usbroothub_driver
 .data.usbmass_driver
                0x0000000080022454        0xc /usr/local/xenon/usr/lib/libxenon.a(usbmass.o)
                0x0000000080022454                usbmass_driver
 .data.vfs_fat_mount_ops
                0x0000000080022460        0xc /usr/local/xenon/usr/lib/libxenon.a(diskio.o)
                0x0000000080022460                vfs_fat_mount_ops
 .data.vfs_fat_file_ops
                0x000000008002246c       0x18 /usr/local/xenon/usr/lib/libxenon.a(diskio.o)
                0x000000008002246c                vfs_fat_file_ops
 .data.vfs_iso9660_mount_ops
                0x0000000080022484        0xc /usr/local/xenon/usr/lib/libxenon.a(iso9660.o)
                0x0000000080022484                vfs_iso9660_mount_ops
 .data.vfs_iso9660_file_ops
                0x0000000080022490       0x18 /usr/local/xenon/usr/lib/libxenon.a(iso9660.o)
                0x0000000080022490                vfs_iso9660_file_ops
 .data.usbctrl_driver
                0x00000000800224a8        0xc /usr/local/xenon/usr/lib/libxenon.a(usbctrl.o)
                0x00000000800224a8                usbctrl_driver
 *fill*         0x00000000800224b4        0x4 00
 .data.rel.local
                0x00000000800224b8      0x428 /usr/local/xenon/xenon/lib/32/libc.a(lib_a-impure.o)
 .data.rel      0x00000000800228e0      0x408 /usr/local/xenon/xenon/lib/32/libc.a(lib_a-mallocr.o)
                0x00000000800228e0                __malloc_av_
 .data.rel.ro.local
                0x0000000080022ce8       0x34 /usr/local/xenon/xenon/lib/32/libc.a(lib_a-locale.o)

.got2           0x0000000080022d1c      0x1e0
 .got2          0x0000000080022d1c       0x10 /usr/local/xenon/xenon/lib/32/libc.a(lib_a-assert.o)
 .got2          0x0000000080022d2c        0x4 /usr/local/xenon/xenon/lib/32/libc.a(lib_a-errno.o)
 .got2          0x0000000080022d30        0x4 /usr/local/xenon/xenon/lib/32/libc.a(lib_a-exit.o)
 .got2          0x0000000080022d34        0x4 /usr/local/xenon/xenon/lib/32/libc.a(lib_a-fiprintf.o)
 .got2          0x0000000080022d38        0x4 /usr/local/xenon/xenon/lib/32/libc.a(lib_a-malloc.o)
 .got2          0x0000000080022d3c       0x1c /usr/local/xenon/xenon/lib/32/libc.a(lib_a-mallocr.o)
 .got2          0x0000000080022d58        0x4 /usr/local/xenon/xenon/lib/32/libc.a(lib_a-printf.o)
 .got2          0x0000000080022d5c        0x4 /usr/local/xenon/xenon/lib/32/libc.a(lib_a-putchar.o)
 .got2          0x0000000080022d60        0x4 /usr/local/xenon/xenon/lib/32/libc.a(lib_a-putc.o)
 .got2          0x0000000080022d64        0x8 /usr/local/xenon/xenon/lib/32/libc.a(lib_a-puts.o)
 .got2          0x0000000080022d6c        0x4 /usr/local/xenon/xenon/lib/32/libc.a(lib_a-rand.o)
 .got2          0x0000000080022d70        0x4 /usr/local/xenon/xenon/lib/32/libc.a(lib_a-sbrkr.o)
 .got2          0x0000000080022d74        0x4 /usr/local/xenon/xenon/lib/32/libc.a(lib_a-snprintf.o)
 .got2          0x0000000080022d78        0x4 /usr/local/xenon/xenon/lib/32/libc.a(lib_a-sprintf.o)
 .got2          0x0000000080022d7c        0x4 /usr/local/xenon/xenon/lib/32/libc.a(lib_a-strcasecmp.o)
 .got2          0x0000000080022d80        0x4 /usr/local/xenon/xenon/lib/32/libc.a(lib_a-strncasecmp.o)
 .got2          0x0000000080022d84        0x8 /usr/local/xenon/xenon/lib/32/libc.a(lib_a-strtol.o)
 .got2          0x0000000080022d8c       0x30 /usr/local/xenon/xenon/lib/32/libc.a(lib_a-svfprintf.o)
 .got2          0x0000000080022dbc       0x1c /usr/local/xenon/xenon/lib/32/libc.a(lib_a-vfiprintf.o)
 .got2          0x0000000080022dd8       0x34 /usr/local/xenon/xenon/lib/32/libc.a(lib_a-vfprintf.o)
 .got2          0x0000000080022e0c        0x4 /usr/local/xenon/xenon/lib/32/libc.a(lib_a-wbuf.o)
 .got2          0x0000000080022e10        0x4 /usr/local/xenon/xenon/lib/32/libc.a(lib_a-wsetup.o)
 .got2          0x0000000080022e14        0x4 /usr/local/xenon/xenon/lib/32/libc.a(lib_a-__call_atexit.o)
 .got2          0x0000000080022e18       0x48 /usr/local/xenon/xenon/lib/32/libc.a(lib_a-dtoa.o)
 .got2          0x0000000080022e60        0xc /usr/local/xenon/xenon/lib/32/libc.a(lib_a-fflush.o)
 .got2          0x0000000080022e6c       0x28 /usr/local/xenon/xenon/lib/32/libc.a(lib_a-findfp.o)
 .got2          0x0000000080022e94       0x18 /usr/local/xenon/xenon/lib/32/libc.a(lib_a-freer.o)
 .got2          0x0000000080022eac       0x10 /usr/local/xenon/xenon/lib/32/libc.a(lib_a-locale.o)
 .got2          0x0000000080022ebc        0x8 /usr/local/xenon/xenon/lib/32/libc.a(lib_a-makebuf.o)
 .got2          0x0000000080022ec4       0x10 /usr/local/xenon/xenon/lib/32/libc.a(lib_a-mprec.o)
 .got2          0x0000000080022ed4        0x4 /usr/local/xenon/xenon/lib/32/libc.a(lib_a-reallocr.o)
 .got2          0x0000000080022ed8        0x4 /usr/local/xenon/xenon/lib/32/libc.a(lib_a-signal.o)
 .got2          0x0000000080022edc        0x4 /usr/local/xenon/xenon/lib/32/libc.a(lib_a-signalr.o)
 .got2          0x0000000080022ee0        0x4 /usr/local/xenon/xenon/lib/32/libc.a(lib_a-writer.o)
 .got2          0x0000000080022ee4        0x4 /usr/local/xenon/xenon/lib/32/libc.a(lib_a-closer.o)
 .got2          0x0000000080022ee8        0x4 /usr/local/xenon/xenon/lib/32/libc.a(lib_a-fclose.o)
 .got2          0x0000000080022eec        0x4 /usr/local/xenon/xenon/lib/32/libc.a(lib_a-fstatr.o)
 .got2          0x0000000080022ef0        0x4 /usr/local/xenon/xenon/lib/32/libc.a(lib_a-isattyr.o)
 .got2          0x0000000080022ef4        0x4 /usr/local/xenon/xenon/lib/32/libc.a(lib_a-lseekr.o)
 .got2          0x0000000080022ef8        0x4 /usr/local/xenon/xenon/lib/32/libc.a(lib_a-readr.o)

.sdata          0x0000000080022efc       0x1c
 *(.sdata*)
 .sdata.usbmass_ops
                0x0000000080022efc        0x4 /usr/local/xenon/usr/lib/libxenon.a(usbmass.o)
                0x0000000080022efc                usbmass_ops
 .sdata         0x0000000080022f00        0x8 /usr/local/xenon/xenon/lib/32/libc.a(lib_a-ctype_.o)
                0x0000000080022f00                __ctype_ptr
                0x0000000080022f04                __ctype_ptr__
 .sdata         0x0000000080022f08        0x8 /usr/local/xenon/xenon/lib/32/libc.a(lib_a-impure.o)
                0x0000000080022f0c                _global_impure_ptr
                0x0000000080022f08                _impure_ptr
 .sdata         0x0000000080022f10        0x8 /usr/local/xenon/xenon/lib/32/libc.a(lib_a-mallocr.o)
                0x0000000080022f14                __malloc_sbrk_base
                0x0000000080022f10                __malloc_trim_threshold

.rodata         0x0000000080022f18     0x38e8
 *(.rodata*)
 .rodata.cst4   0x0000000080022f18       0x10 main.o
 .rodata.str1.8
                0x0000000080022f28      0x2c8 main.o
                                        0x2c3 (size before relaxing)
 .rodata.str1.1
                0x00000000800231f0       0x33 /usr/local/xenon/usr/lib/libxenon.a(console.o)
 *fill*         0x0000000080023223        0x5 00
 .rodata.fontdata_8x16
                0x0000000080023228     0x1000 /usr/local/xenon/usr/lib/libxenon.a(console.o)
                0x0000000080023228                fontdata_8x16
 .rodata.str1.1
                0x0000000080024228       0x1d /usr/local/xenon/usr/lib/libxenon.a(newlib.o)
 .rodata.str1.1
                0x0000000080024245       0x4b /usr/local/xenon/usr/lib/libxenon.a(lib_malloc.o)
 .rodata.str1.1
                0x0000000080024290       0x97 /usr/local/xenon/usr/lib/libxenon.a(usbmain.o)
 .rodata.str1.1
                0x0000000080024327      0x10b /usr/local/xenon/usr/lib/libxenon.a(xenon_smc.o)
 *fill*         0x0000000080024432        0x2 00
 .rodata.C.12.3393
                0x0000000080024434       0x40 /usr/local/xenon/usr/lib/libxenon.a(xenos.o)
 .rodata.C.9.3384
                0x0000000080024474       0x44 /usr/local/xenon/usr/lib/libxenon.a(xenos.o)
 .rodata.CSWTCH.31
                0x00000000800244b8       0x10 /usr/local/xenon/usr/lib/libxenon.a(xenos.o)
 .rodata.C.13.3412
                0x00000000800244c8       0x5c /usr/local/xenon/usr/lib/libxenon.a(xenos.o)
 .rodata.str1.1
                0x0000000080024524      0x1e0 /usr/local/xenon/usr/lib/libxenon.a(xenos.o)
 *fill*         0x0000000080024704        0x4 00
 .rodata.__FUNCTION__.3423
                0x0000000080024708       0x12 /usr/local/xenon/usr/lib/libxenon.a(xenos.o)
 *fill*         0x000000008002471a        0x6 00
 .rodata.__FUNCTION__.3628
                0x0000000080024720       0x12 /usr/local/xenon/usr/lib/libxenon.a(xenos.o)
 *fill*         0x0000000080024732        0x2 00
 .rodata.C.6.3364
                0x0000000080024734       0x1c /usr/local/xenon/usr/lib/libxenon.a(xenos.o)
 .rodata.C.10.3385
                0x0000000080024750       0x44 /usr/local/xenon/usr/lib/libxenon.a(xenos.o)
 .rodata.ohci_xfer
                0x0000000080024794       0x50 /usr/local/xenon/usr/lib/libxenon.a(ohci.o)
 .rodata.ohci_root_ifdsc
                0x00000000800247e4        0x9 /usr/local/xenon/usr/lib/libxenon.a(ohci.o)
 *fill*         0x00000000800247ed        0x3 00
 .rodata.ohci_revbits
                0x00000000800247f0       0x80 /usr/local/xenon/usr/lib/libxenon.a(ohci.o)
 .rodata.ohci_root_cfgdsc
                0x0000000080024870        0x9 /usr/local/xenon/usr/lib/libxenon.a(ohci.o)
 .rodata.str1.1
                0x0000000080024879       0x11 /usr/local/xenon/usr/lib/libxenon.a(ohci.o)
 .rodata.ohci_root_devdsc
                0x000000008002488a       0x12 /usr/local/xenon/usr/lib/libxenon.a(ohci.o)
 .rodata.ohci_root_hubdsc
                0x000000008002489c       0x47 /usr/local/xenon/usr/lib/libxenon.a(ohci.o)
 .rodata.ohci_root_epdsc
                0x00000000800248e3        0x7 /usr/local/xenon/usr/lib/libxenon.a(ohci.o)
 .rodata.str1.1
                0x00000000800248ea      0x100 /usr/local/xenon/usr/lib/libxenon.a(usbd.o)
 .rodata.str1.1
                0x00000000800249ea       0x47 /usr/local/xenon/usr/lib/libxenon.a(usbdevs.o)
 .rodata.str1.1
                0x0000000080024a31       0x4a /usr/local/xenon/usr/lib/libxenon.a(usbhid.o)
 *fill*         0x0000000080024a7b        0x1 00
 .rodata.usbhid_devtypes
                0x0000000080024a7c        0xc /usr/local/xenon/usr/lib/libxenon.a(usbhid.o)
 .rodata.str1.1
                0x0000000080024a88      0x241 /usr/local/xenon/usr/lib/libxenon.a(usbhub.o)
                                        0x24a (size before relaxing)
 .rodata.str1.1
                0x0000000080024cc9       0x63 /usr/local/xenon/usr/lib/libxenon.a(usbmass.o)
 .rodata.str1.1
                0x0000000080024d2c       0x40 /usr/local/xenon/usr/lib/libxenon.a(xenon_config.o)
 .rodata.str1.1
                0x0000000080024d6c       0x78 /usr/local/xenon/usr/lib/libxenon.a(diskio.o)
                                         0x79 (size before relaxing)
 .rodata.str1.1
                0x0000000080024de4       0xb3 /usr/local/xenon/usr/lib/libxenon.a(disk_rb.o)
 *fill*         0x0000000080024e97        0x1 00
 .rodata.fat_partition_types
                0x0000000080024e98        0xa /usr/local/xenon/usr/lib/libxenon.a(disk_rb.o)
 *fill*         0x0000000080024ea2        0x6 00
 .rodata.invalid_chars.4665
                0x0000000080024ea8       0x11 /usr/local/xenon/usr/lib/libxenon.a(fat_rb.o)
 *fill*         0x0000000080024eb9        0x7 00
 .rodata.daysinmonth.4273
                0x0000000080024ec0        0xc /usr/local/xenon/usr/lib/libxenon.a(fat_rb.o)
 *fill*         0x0000000080024ecc        0x4 00
 .rodata.FATLONG_NAME_SIZE
                0x0000000080024ed0        0x3 /usr/local/xenon/usr/lib/libxenon.a(fat_rb.o)
 .rodata.str1.1
                0x0000000080024ed3      0x640 /usr/local/xenon/usr/lib/libxenon.a(fat_rb.o)
                                        0x642 (size before relaxing)
 *fill*         0x0000000080025513        0x5 00
 .rodata.invalid_chars.4530
                0x0000000080025518        0xa /usr/local/xenon/usr/lib/libxenon.a(fat_rb.o)
 *fill*         0x0000000080025522        0x6 00
 .rodata.FATLONG_NAME_POS
                0x0000000080025528        0x3 /usr/local/xenon/usr/lib/libxenon.a(fat_rb.o)
 .rodata.str1.1
                0x000000008002552b      0x1a4 /usr/local/xenon/usr/lib/libxenon.a(file_rb.o)
 .rodata.str1.1
                0x00000000800256cf      0x112 /usr/local/xenon/usr/lib/libxenon.a(dir_rb.o)
                                        0x141 (size before relaxing)
 .rodata.str1.1
                0x00000000800257e1       0xba /usr/local/xenon/usr/lib/libxenon.a(iso9660.o)
 .rodata.str1.1
                0x000000008002589b       0x73 /usr/local/xenon/usr/lib/libxenon.a(usbctrl.o)
 .rodata.str1.1
                0x000000008002590e      0x61a /usr/local/xenon/usr/lib/libxenon.a(usbdebug.o)
                                        0x672 (size before relaxing)
 .rodata.eptattribs.3320
                0x0000000080025f28       0x10 /usr/local/xenon/usr/lib/libxenon.a(usbdebug.o)
 .rodata.utf8comp
                0x0000000080025f38        0x6 /usr/local/xenon/usr/lib/libxenon.a(unicode_rb.o)
 .rodata.str1.1
                0x0000000080025f3e      0x11d /usr/local/xenon/usr/lib/libxenon.a(xenon_sfcx.o)
 *fill*         0x000000008002605b        0x1 00
 .rodata.str1.4
                0x000000008002605c       0x3f /usr/local/xenon/xenon/lib/32/libc.a(lib_a-assert.o)
                                         0x43 (size before relaxing)
 *fill*         0x000000008002609b        0x1 00
 .rodata        0x000000008002609c      0x101 /usr/local/xenon/xenon/lib/32/libc.a(lib_a-ctype_.o)
                0x000000008002609c                _ctype_
 *fill*         0x000000008002619d        0x3 00
 .rodata.str1.4
                0x00000000800261a0        0x2 /usr/local/xenon/xenon/lib/32/libc.a(lib_a-impure.o)
 *fill*         0x00000000800261a2        0x2 00
 .rodata.str1.4
                0x00000000800261a4        0x2 /usr/local/xenon/xenon/lib/32/libc.a(lib_a-puts.o)
 *fill*         0x00000000800261a6        0x2 00
 .rodata        0x00000000800261a8      0x184 /usr/local/xenon/xenon/lib/32/libc.a(lib_a-svfprintf.o)
 .rodata.cst4   0x000000008002632c        0x4 /usr/local/xenon/xenon/lib/32/libc.a(lib_a-svfprintf.o)
 .rodata.str1.4
                0x0000000080026330       0x42 /usr/local/xenon/xenon/lib/32/libc.a(lib_a-svfprintf.o)
 *fill*         0x0000000080026372        0x2 00
 .rodata        0x0000000080026374      0x184 /usr/local/xenon/xenon/lib/32/libc.a(lib_a-vfiprintf.o)
 .rodata.str1.4
                0x0000000000000000       0x2f /usr/local/xenon/xenon/lib/32/libc.a(lib_a-vfiprintf.o)
 .rodata        0x00000000800264f8      0x184 /usr/local/xenon/xenon/lib/32/libc.a(lib_a-vfprintf.o)
 .rodata.cst4   0x0000000000000000        0x4 /usr/local/xenon/xenon/lib/32/libc.a(lib_a-vfprintf.o)
 .rodata.str1.4
                0x0000000000000000       0x42 /usr/local/xenon/xenon/lib/32/libc.a(lib_a-vfprintf.o)
 .rodata.cst4   0x000000008002667c       0x20 /usr/local/xenon/xenon/lib/32/libc.a(lib_a-dtoa.o)
                                         0x24 (size before relaxing)
 *fill*         0x000000008002669c        0x4 00
 .rodata.cst8   0x00000000800266a0       0x18 /usr/local/xenon/xenon/lib/32/libc.a(lib_a-dtoa.o)
 .rodata.str1.4
                0x00000000800266b8       0x10 /usr/local/xenon/xenon/lib/32/libc.a(lib_a-dtoa.o)
                                         0x12 (size before relaxing)
 .rodata.str1.4
                0x00000000800266c8       0x10 /usr/local/xenon/xenon/lib/32/libc.a(lib_a-locale.o)
                                         0x17 (size before relaxing)
 .rodata        0x00000000800266d8      0x128 /usr/local/xenon/xenon/lib/32/libc.a(lib_a-mprec.o)
                0x00000000800267d8                __mprec_tinytens
                0x00000000800266e8                __mprec_tens
                0x00000000800267b0                __mprec_bigtens
 .rodata.cst4   0x0000000000000000        0x8 /usr/local/xenon/xenon/lib/32/libc.a(lib_a-mprec.o)

.ctors          0x0000000080026800        0x0
                0x0000000080026800                __CTOR_LIST__ = .
 *(.ctors)
                0x0000000080026800                __CTOR_END__ = .

.dtors          0x0000000080026800        0x0
                0x0000000080026800                __DTOR_LIST__ = .
 *(.dtors)
                0x0000000080026800                __DTOR_END__ = .

.eh_frame_hdr   0x0000000080026800      0xb4c
 *(.eh_frame_hdr)
 .eh_frame_hdr  0x0000000080026800      0xb4c /usr/local/xenon/lib/gcc/xenon/4.4.0/../../../../xenon/lib/../lib/crt1.o

.eh_frame       0x000000008002734c     0x2d90
 *(.eh_frame)
 .eh_frame      0x000000008002734c       0x38 /usr/local/xenon/lib/gcc/xenon/4.4.0/../../../../xenon/lib/../lib/crt1.o
 .eh_frame      0x0000000080027384        0x0 /usr/local/xenon/lib/gcc/xenon/4.4.0/32/crtbegin.o
 .eh_frame      0x0000000080027384      0x144 main.o
                                        0x158 (size before relaxing)
 .eh_frame      0x00000000800274c8       0xa4 /usr/local/xenon/usr/lib/libxenon.a(console.o)
                                         0xe0 (size before relaxing)
 .eh_frame      0x000000008002756c       0x3c /usr/local/xenon/usr/lib/libxenon.a(input.o)
                                         0x50 (size before relaxing)
 .eh_frame      0x00000000800275a8      0x180 /usr/local/xenon/usr/lib/libxenon.a(newlib.o)
                                        0x1f0 (size before relaxing)
 .eh_frame      0x0000000080027728       0x5c /usr/local/xenon/usr/lib/libxenon.a(lib_malloc.o)
                                         0xc0 (size before relaxing)
 .eh_frame      0x0000000080027784       0x5c /usr/local/xenon/usr/lib/libxenon.a(usbmain.o)
                                         0x70 (size before relaxing)
 .eh_frame      0x00000000800277e0      0x120 /usr/local/xenon/usr/lib/libxenon.a(xenon_smc.o)
                                        0x1a4 (size before relaxing)
 .eh_frame      0x0000000080027900       0x20 /usr/local/xenon/usr/lib/libxenon.a(xenon_uart.o)
                                         0x5c (size before relaxing)
 .eh_frame      0x0000000080027920      0x1a0 /usr/local/xenon/usr/lib/libxenon.a(xenos.o)
                                        0x1b4 (size before relaxing)
 .eh_frame      0x0000000080027ac0       0x50 /usr/local/xenon/usr/lib/libxenon.a(io.o)
                                         0x64 (size before relaxing)
 .eh_frame      0x0000000080027b10       0x3c /usr/local/xenon/usr/lib/libxenon.a(time.o)
                                         0x50 (size before relaxing)
 .eh_frame      0x0000000080027b4c      0x1d8 /usr/local/xenon/usr/lib/libxenon.a(ohci.o)
                                        0x1ec (size before relaxing)
 .eh_frame      0x0000000080027d24      0x374 /usr/local/xenon/usr/lib/libxenon.a(usbd.o)
                                        0x3bc (size before relaxing)
 .eh_frame      0x0000000080028098       0x24 /usr/local/xenon/usr/lib/libxenon.a(usbdevs.o)
                                         0x38 (size before relaxing)
 .eh_frame      0x00000000800280bc       0x7c /usr/local/xenon/usr/lib/libxenon.a(usbhid.o)
                                         0x90 (size before relaxing)
 .eh_frame      0x0000000080028138      0x144 /usr/local/xenon/usr/lib/libxenon.a(usbhub.o)
                                        0x190 (size before relaxing)
 .eh_frame      0x000000008002827c       0xe4 /usr/local/xenon/usr/lib/libxenon.a(usbmass.o)
                                        0x124 (size before relaxing)
 .eh_frame      0x0000000080028360       0x48 /usr/local/xenon/usr/lib/libxenon.a(xenon_gpio.o)
                                         0x7c (size before relaxing)
 .eh_frame      0x00000000800283a8       0x34 /usr/local/xenon/usr/lib/libxenon.a(xenon_config.o)
                                         0x70 (size before relaxing)
 .eh_frame      0x00000000800283dc      0x118 /usr/local/xenon/usr/lib/libxenon.a(diskio.o)
                                        0x18c (size before relaxing)
 .eh_frame      0x00000000800284f4       0x9c /usr/local/xenon/usr/lib/libxenon.a(disk_rb.o)
                                         0xf0 (size before relaxing)
 .eh_frame      0x0000000080028590      0x434 /usr/local/xenon/usr/lib/libxenon.a(fat_rb.o)
                                        0x564 (size before relaxing)
 .eh_frame      0x00000000800289c4      0x148 /usr/local/xenon/usr/lib/libxenon.a(file_rb.o)
                                        0x1d4 (size before relaxing)
 .eh_frame      0x0000000080028b0c       0x64 /usr/local/xenon/usr/lib/libxenon.a(dir_rb.o)
                                         0xd4 (size before relaxing)
 .eh_frame      0x0000000080028b70      0x1c0 /usr/local/xenon/usr/lib/libxenon.a(iso9660.o)
                                        0x1d4 (size before relaxing)
 .eh_frame      0x0000000080028d30       0x28 /usr/local/xenon/usr/lib/libxenon.a(lib_queue.o)
                                         0xa0 (size before relaxing)
 .eh_frame      0x0000000080028d58       0x60 /usr/local/xenon/usr/lib/libxenon.a(usbctrl.o)
                                         0x74 (size before relaxing)
 .eh_frame      0x0000000080028db8       0x94 /usr/local/xenon/usr/lib/libxenon.a(usbdebug.o)
                                        0x104 (size before relaxing)
 .eh_frame      0x0000000080028e4c       0x3c /usr/local/xenon/usr/lib/libxenon.a(unicode_rb.o)
                                         0xac (size before relaxing)
 .eh_frame      0x0000000080028e88       0x70 /usr/local/xenon/usr/lib/libxenon.a(xenon_sfcx.o)
                                        0x1e8 (size before relaxing)
 .eh_frame      0x0000000080028ef8       0x38 /usr/local/xenon/xenon/lib/32/libc.a(lib_a-assert.o)
                                         0x4c (size before relaxing)
 .eh_frame      0x0000000080028f30       0x30 /usr/local/xenon/xenon/lib/32/libc.a(lib_a-atoi.o)
                                         0x44 (size before relaxing)
 .eh_frame      0x0000000080028f60       0x20 /usr/local/xenon/xenon/lib/32/libc.a(lib_a-errno.o)
                                         0x34 (size before relaxing)
 .eh_frame      0x0000000080028f80       0x24 /usr/local/xenon/xenon/lib/32/libc.a(lib_a-exit.o)
                                         0x38 (size before relaxing)
 .eh_frame      0x0000000080028fa4       0x38 /usr/local/xenon/xenon/lib/32/libc.a(lib_a-fiprintf.o)
                                         0x4c (size before relaxing)
 .eh_frame      0x0000000080028fdc       0x40 /usr/local/xenon/xenon/lib/32/libc.a(lib_a-malloc.o)
                                         0x54 (size before relaxing)
 .eh_frame      0x000000008002901c       0x34 /usr/local/xenon/xenon/lib/32/libc.a(lib_a-mallocr.o)
                                         0x48 (size before relaxing)
 .eh_frame      0x0000000080029050       0x1c /usr/local/xenon/xenon/lib/32/libc.a(lib_a-memchr.o)
                                         0x30 (size before relaxing)
 .eh_frame      0x000000008002906c       0x1c /usr/local/xenon/xenon/lib/32/libc.a(lib_a-memcmp.o)
                                         0x30 (size before relaxing)
 .eh_frame      0x0000000080029088       0x1c /usr/local/xenon/xenon/lib/32/libc.a(lib_a-memcpy.o)
                                         0x30 (size before relaxing)
 .eh_frame      0x00000000800290a4       0x1c /usr/local/xenon/xenon/lib/32/libc.a(lib_a-memset.o)
                                         0x30 (size before relaxing)
 .eh_frame      0x00000000800290c0       0x28 /usr/local/xenon/xenon/lib/32/libc.a(lib_a-mlock.o)
                                         0x3c (size before relaxing)
 .eh_frame      0x00000000800290e8       0x38 /usr/local/xenon/xenon/lib/32/libc.a(lib_a-printf.o)
                                         0x4c (size before relaxing)
 .eh_frame      0x0000000080029120       0x38 /usr/local/xenon/xenon/lib/32/libc.a(lib_a-putchar.o)
                                         0x4c (size before relaxing)
 .eh_frame      0x0000000080029158       0x48 /usr/local/xenon/xenon/lib/32/libc.a(lib_a-putc.o)
                                         0x5c (size before relaxing)
 .eh_frame      0x00000000800291a0       0x44 /usr/local/xenon/xenon/lib/32/libc.a(lib_a-puts.o)
                                         0x58 (size before relaxing)
 .eh_frame      0x00000000800291e4       0x40 /usr/local/xenon/xenon/lib/32/libc.a(lib_a-rand.o)
                                         0x54 (size before relaxing)
 .eh_frame      0x0000000080029224       0x24 /usr/local/xenon/xenon/lib/32/libc.a(lib_a-sbrkr.o)
                                         0x38 (size before relaxing)
 .eh_frame      0x0000000080029248       0x50 /usr/local/xenon/xenon/lib/32/libc.a(lib_a-snprintf.o)
                                         0x64 (size before relaxing)
 .eh_frame      0x0000000080029298       0x40 /usr/local/xenon/xenon/lib/32/libc.a(lib_a-sprintf.o)
                                         0x54 (size before relaxing)
 .eh_frame      0x00000000800292d8       0x1c /usr/local/xenon/xenon/lib/32/libc.a(lib_a-strcasecmp.o)
                                         0x30 (size before relaxing)
 .eh_frame      0x00000000800292f4       0x20 /usr/local/xenon/xenon/lib/32/libc.a(lib_a-strcat.o)
                                         0x34 (size before relaxing)
 .eh_frame      0x0000000080029314       0x1c /usr/local/xenon/xenon/lib/32/libc.a(lib_a-strchr.o)
                                         0x30 (size before relaxing)
 .eh_frame      0x0000000080029330       0x1c /usr/local/xenon/xenon/lib/32/libc.a(lib_a-strcmp.o)
                                         0x30 (size before relaxing)
 .eh_frame      0x000000008002934c       0x1c /usr/local/xenon/xenon/lib/32/libc.a(lib_a-strcpy.o)
                                         0x30 (size before relaxing)
 .eh_frame      0x0000000080029368       0x1c /usr/local/xenon/xenon/lib/32/libc.a(lib_a-strlcpy.o)
                                         0x30 (size before relaxing)
 .eh_frame      0x0000000080029384       0x1c /usr/local/xenon/xenon/lib/32/libc.a(lib_a-strlen.o)
                                         0x30 (size before relaxing)
 .eh_frame      0x00000000800293a0       0x28 /usr/local/xenon/xenon/lib/32/libc.a(lib_a-strncasecmp.o)
                                         0x3c (size before relaxing)
 .eh_frame      0x00000000800293c8       0x1c /usr/local/xenon/xenon/lib/32/libc.a(lib_a-strncmp.o)
                                         0x30 (size before relaxing)
 .eh_frame      0x00000000800293e4       0x1c /usr/local/xenon/xenon/lib/32/libc.a(lib_a-strncpy.o)
                                         0x30 (size before relaxing)
 .eh_frame      0x0000000080029400       0x20 /usr/local/xenon/xenon/lib/32/libc.a(lib_a-strrchr.o)
                                         0x34 (size before relaxing)
 .eh_frame      0x0000000080029420       0x34 /usr/local/xenon/xenon/lib/32/libc.a(lib_a-strtok_r.o)
                                         0x48 (size before relaxing)
 .eh_frame      0x0000000080029454       0x50 /usr/local/xenon/xenon/lib/32/libc.a(lib_a-strtol.o)
                                         0x64 (size before relaxing)
 .eh_frame      0x00000000800294a4       0x84 /usr/local/xenon/xenon/lib/32/libc.a(lib_a-svfprintf.o)
                                         0x98 (size before relaxing)
 .eh_frame      0x0000000080029528       0x88 /usr/local/xenon/xenon/lib/32/libc.a(lib_a-vfiprintf.o)
                                         0x9c (size before relaxing)
 .eh_frame      0x00000000800295b0       0x8c /usr/local/xenon/xenon/lib/32/libc.a(lib_a-vfprintf.o)
                                         0xa0 (size before relaxing)
 .eh_frame      0x000000008002963c       0x48 /usr/local/xenon/xenon/lib/32/libc.a(lib_a-wbuf.o)
                                         0x5c (size before relaxing)
 .eh_frame      0x0000000080029684       0x24 /usr/local/xenon/xenon/lib/32/libc.a(lib_a-wsetup.o)
                                         0x38 (size before relaxing)
 .eh_frame      0x00000000800296a8       0x18 /usr/local/xenon/xenon/lib/32/libc.a(lib_a-abort.o)
                                         0x2c (size before relaxing)
 .eh_frame      0x00000000800296c0       0x40 /usr/local/xenon/xenon/lib/32/libc.a(lib_a-__call_atexit.o)
                                         0x54 (size before relaxing)
 .eh_frame      0x0000000080029700       0x80 /usr/local/xenon/xenon/lib/32/libc.a(lib_a-dtoa.o)
                                         0x94 (size before relaxing)
 .eh_frame      0x0000000080029780       0x48 /usr/local/xenon/xenon/lib/32/libc.a(lib_a-fflush.o)
                                         0x5c (size before relaxing)
 .eh_frame      0x00000000800297c8      0x190 /usr/local/xenon/xenon/lib/32/libc.a(lib_a-findfp.o)
                                        0x1a4 (size before relaxing)
 .eh_frame      0x0000000080029958       0x4c /usr/local/xenon/xenon/lib/32/libc.a(lib_a-freer.o)
                                         0x60 (size before relaxing)
 .eh_frame      0x00000000800299a4       0x34 /usr/local/xenon/xenon/lib/32/libc.a(lib_a-fvwrite.o)
                                         0x48 (size before relaxing)
 .eh_frame      0x00000000800299d8       0x54 /usr/local/xenon/xenon/lib/32/libc.a(lib_a-fwalk.o)
                                         0x68 (size before relaxing)
 .eh_frame      0x0000000080029a2c       0xa8 /usr/local/xenon/xenon/lib/32/libc.a(lib_a-locale.o)
                                         0xbc (size before relaxing)
 .eh_frame      0x0000000080029ad4       0x28 /usr/local/xenon/xenon/lib/32/libc.a(lib_a-makebuf.o)
                                         0x3c (size before relaxing)
 .eh_frame      0x0000000080029afc       0x1c /usr/local/xenon/xenon/lib/32/libc.a(lib_a-memmove.o)
                                         0x30 (size before relaxing)
 .eh_frame      0x0000000080029b18      0x270 /usr/local/xenon/xenon/lib/32/libc.a(lib_a-mprec.o)
                                        0x284 (size before relaxing)
 .eh_frame      0x0000000080029d88       0x38 /usr/local/xenon/xenon/lib/32/libc.a(lib_a-reallocr.o)
                                         0x4c (size before relaxing)
 .eh_frame      0x0000000080029dc0        0x0 /usr/local/xenon/xenon/lib/32/libc.a(lib_a-reent.o)
                                         0x84 (size before relaxing)
 .eh_frame      0x0000000080029dc0      0x104 /usr/local/xenon/xenon/lib/32/libc.a(lib_a-signal.o)
                                        0x118 (size before relaxing)
 .eh_frame      0x0000000080029ec4       0x3c /usr/local/xenon/xenon/lib/32/libc.a(lib_a-signalr.o)
                                         0x50 (size before relaxing)
 .eh_frame      0x0000000080029f00       0x14 /usr/local/xenon/xenon/lib/32/libc.a(lib_a-s_isinfd.o)
                                         0x28 (size before relaxing)
 .eh_frame      0x0000000080029f14       0x14 /usr/local/xenon/xenon/lib/32/libc.a(lib_a-s_isnand.o)
                                         0x28 (size before relaxing)
 .eh_frame      0x0000000080029f28       0x74 /usr/local/xenon/xenon/lib/32/libc.a(lib_a-stdio.o)
                                         0x88 (size before relaxing)
 .eh_frame      0x0000000080029f9c       0x24 /usr/local/xenon/xenon/lib/32/libc.a(lib_a-writer.o)
                                         0x38 (size before relaxing)
 .eh_frame      0x0000000080029fc0       0x1c /usr/local/xenon/xenon/lib/32/libc.a(lib_a-callocr.o)
                                         0x30 (size before relaxing)
 .eh_frame      0x0000000080029fdc       0x24 /usr/local/xenon/xenon/lib/32/libc.a(lib_a-closer.o)
                                         0x38 (size before relaxing)
 .eh_frame      0x000000008002a000       0x48 /usr/local/xenon/xenon/lib/32/libc.a(lib_a-fclose.o)
                                         0x5c (size before relaxing)
 .eh_frame      0x000000008002a048       0x24 /usr/local/xenon/xenon/lib/32/libc.a(lib_a-fstatr.o)
                                         0x38 (size before relaxing)
 .eh_frame      0x000000008002a06c       0x24 /usr/local/xenon/xenon/lib/32/libc.a(lib_a-isattyr.o)
                                         0x38 (size before relaxing)
 .eh_frame      0x000000008002a090       0x24 /usr/local/xenon/xenon/lib/32/libc.a(lib_a-lseekr.o)
                                         0x38 (size before relaxing)
 .eh_frame      0x000000008002a0b4       0x24 /usr/local/xenon/xenon/lib/32/libc.a(lib_a-readr.o)
                                         0x38 (size before relaxing)
 .eh_frame      0x000000008002a0d8        0x4 /usr/local/xenon/lib/gcc/xenon/4.4.0/32/crtend.o

.rela.dyn       0x000000008002a0dc        0x0
 .rela.text.call_ctors
                0x0000000000000000        0x0 /usr/local/xenon/lib/gcc/xenon/4.4.0/../../../../xenon/lib/../lib/crt1.o
 .rela.got2     0x0000000000000000        0x0 /usr/local/xenon/lib/gcc/xenon/4.4.0/../../../../xenon/lib/../lib/crt1.o
 .rela.text     0x0000000000000000        0x0 /usr/local/xenon/lib/gcc/xenon/4.4.0/../../../../xenon/lib/../lib/crt1.o
 .rela.text.console_close
                0x0000000000000000        0x0 /usr/local/xenon/lib/gcc/xenon/4.4.0/../../../../xenon/lib/../lib/crt1.o
 .rela.text.console_init
                0x0000000000000000        0x0 /usr/local/xenon/lib/gcc/xenon/4.4.0/../../../../xenon/lib/../lib/crt1.o
 .rela.text.sbrk
                0x0000000000000000        0x0 /usr/local/xenon/lib/gcc/xenon/4.4.0/../../../../xenon/lib/../lib/crt1.o
 .rela.text.kmem_init
                0x0000000000000000        0x0 /usr/local/xenon/lib/gcc/xenon/4.4.0/../../../../xenon/lib/../lib/crt1.o
 .rela.text.usb_do_poll
                0x0000000000000000        0x0 /usr/local/xenon/lib/gcc/xenon/4.4.0/../../../../xenon/lib/../lib/crt1.o
 .rela.text.usb_init_one_ohci
                0x0000000000000000        0x0 /usr/local/xenon/lib/gcc/xenon/4.4.0/../../../../xenon/lib/../lib/crt1.o
 .rela.text._ohci_dma_alloc
                0x0000000000000000        0x0 /usr/local/xenon/lib/gcc/xenon/4.4.0/../../../../xenon/lib/../lib/crt1.o
 .rela.text.ohci_create
                0x0000000000000000        0x0 /usr/local/xenon/lib/gcc/xenon/4.4.0/../../../../xenon/lib/../lib/crt1.o
 .rela.text.usb_create_pipe
                0x0000000000000000        0x0 /usr/local/xenon/lib/gcc/xenon/4.4.0/../../../../xenon/lib/../lib/crt1.o
 .rela.text.usb_free_request
                0x0000000000000000        0x0 /usr/local/xenon/lib/gcc/xenon/4.4.0/../../../../xenon/lib/../lib/crt1.o
 .rela.text.usb_destroy_all_pipes
                0x0000000000000000        0x0 /usr/local/xenon/lib/gcc/xenon/4.4.0/../../../../xenon/lib/../lib/crt1.o
 .rela.text.usb_destroy_device
                0x0000000000000000        0x0 /usr/local/xenon/lib/gcc/xenon/4.4.0/../../../../xenon/lib/../lib/crt1.o
 .rela.text.usb_destroy_pipe
                0x0000000000000000        0x0 /usr/local/xenon/lib/gcc/xenon/4.4.0/../../../../xenon/lib/../lib/crt1.o
 .rela.text.usb_make_request
                0x0000000000000000        0x0 /usr/local/xenon/lib/gcc/xenon/4.4.0/../../../../xenon/lib/../lib/crt1.o
 .rela.text.usb_clear_stall
                0x0000000000000000        0x0 /usr/local/xenon/lib/gcc/xenon/4.4.0/../../../../xenon/lib/../lib/crt1.o
 .rela.text.usb_std_request
                0x0000000000000000        0x0 /usr/local/xenon/lib/gcc/xenon/4.4.0/../../../../xenon/lib/../lib/crt1.o
 .rela.text.usb_get_string
                0x0000000000000000        0x0 /usr/local/xenon/lib/gcc/xenon/4.4.0/../../../../xenon/lib/../lib/crt1.o
 .rela.text.usb_get_config_descriptor
                0x0000000000000000        0x0 /usr/local/xenon/lib/gcc/xenon/4.4.0/../../../../xenon/lib/../lib/crt1.o
 .rela.text.usb_get_device_descriptor
                0x0000000000000000        0x0 /usr/local/xenon/lib/gcc/xenon/4.4.0/../../../../xenon/lib/../lib/crt1.o
 .rela.text.usb_create_device
                0x0000000000000000        0x0 /usr/local/xenon/lib/gcc/xenon/4.4.0/../../../../xenon/lib/../lib/crt1.o
 .rela.text.usb_initroot
                0x0000000000000000        0x0 /usr/local/xenon/lib/gcc/xenon/4.4.0/../../../../xenon/lib/../lib/crt1.o
 .rela.data.usb_drivers
                0x0000000000000000        0x0 /usr/local/xenon/lib/gcc/xenon/4.4.0/../../../../xenon/lib/../lib/crt1.o
 .rela.text.usbhid_attach
                0x0000000000000000        0x0 /usr/local/xenon/lib/gcc/xenon/4.4.0/../../../../xenon/lib/../lib/crt1.o
 .rela.text.usbhub_detach
                0x0000000000000000        0x0 /usr/local/xenon/lib/gcc/xenon/4.4.0/../../../../xenon/lib/../lib/crt1.o
 .rela.text.usbhub_scan1
                0x0000000000000000        0x0 /usr/local/xenon/lib/gcc/xenon/4.4.0/../../../../xenon/lib/../lib/crt1.o
 .rela.text.usbhub_attach
                0x0000000000000000        0x0 /usr/local/xenon/lib/gcc/xenon/4.4.0/../../../../xenon/lib/../lib/crt1.o
 .rela.text.usbmass_detach
                0x0000000000000000        0x0 /usr/local/xenon/lib/gcc/xenon/4.4.0/../../../../xenon/lib/../lib/crt1.o
 .rela.text.usbmass_attach
                0x0000000000000000        0x0 /usr/local/xenon/lib/gcc/xenon/4.4.0/../../../../xenon/lib/../lib/crt1.o
 .rela.text.usbmass_request_sense
                0x0000000000000000        0x0 /usr/local/xenon/lib/gcc/xenon/4.4.0/../../../../xenon/lib/../lib/crt1.o
 .rela.text.usbmass_read_capacity
                0x0000000000000000        0x0 /usr/local/xenon/lib/gcc/xenon/4.4.0/../../../../xenon/lib/../lib/crt1.o
 .rela.text.usbmass_read_sector
                0x0000000000000000        0x0 /usr/local/xenon/lib/gcc/xenon/4.4.0/../../../../xenon/lib/../lib/crt1.o
 .rela.text.xenon_config_init
                0x0000000000000000        0x0 /usr/local/xenon/lib/gcc/xenon/4.4.0/../../../../xenon/lib/../lib/crt1.o
 .rela.text.bdev_enum
                0x0000000000000000        0x0 /usr/local/xenon/lib/gcc/xenon/4.4.0/../../../../xenon/lib/../lib/crt1.o
 .rela.text.bdev_open
                0x0000000000000000        0x0 /usr/local/xenon/lib/gcc/xenon/4.4.0/../../../../xenon/lib/../lib/crt1.o
 .rela.text.determine_filesystem
                0x0000000000000000        0x0 /usr/local/xenon/lib/gcc/xenon/4.4.0/../../../../xenon/lib/../lib/crt1.o
 .rela.text.register_bdev
                0x0000000000000000        0x0 /usr/local/xenon/lib/gcc/xenon/4.4.0/../../../../xenon/lib/../lib/crt1.o
 .rela.text.storage_write_sectors
                0x0000000000000000        0x0 /usr/local/xenon/lib/gcc/xenon/4.4.0/../../../../xenon/lib/../lib/crt1.o
 .rela.text.storage_read_sectors
                0x0000000000000000        0x0 /usr/local/xenon/lib/gcc/xenon/4.4.0/../../../../xenon/lib/../lib/crt1.o
 .rela.text.fat_getnext
                0x0000000000000000        0x0 /usr/local/xenon/lib/gcc/xenon/4.4.0/../../../../xenon/lib/../lib/crt1.o
 .rela.text.char2dos
                0x0000000000000000        0x0 /usr/local/xenon/lib/gcc/xenon/4.4.0/../../../../xenon/lib/../lib/crt1.o
 .rela.text.find_object
                0x0000000000000000        0x0 /usr/local/xenon/lib/gcc/xenon/4.4.0/../../../../xenon/lib/../lib/crt1.o
 .rela.text.usbctrl_attach
                0x0000000000000000        0x0 /usr/local/xenon/lib/gcc/xenon/4.4.0/../../../../xenon/lib/../lib/crt1.o

.gcc_except_table
 *(.gcc_except_table .gcc_except_table.*)
                0x000000008002a0dc                bss_start = .

.bss            0x000000008002a0e0   0x211308
 *(.bss*)
 .bss.console_size
                0x000000008002a0e0        0x4 /usr/local/xenon/usr/lib/libxenon.a(console.o)
 .bss.offset_x  0x000000008002a0e4        0x4 /usr/local/xenon/usr/lib/libxenon.a(console.o)
 .bss.console_width
                0x000000008002a0e8        0x4 /usr/local/xenon/usr/lib/libxenon.a(console.o)
 .bss.offset_y  0x000000008002a0ec        0x4 /usr/local/xenon/usr/lib/libxenon.a(console.o)
 .bss.console_fb
                0x000000008002a0f0        0x4 /usr/local/xenon/usr/lib/libxenon.a(console.o)
 .bss.console_height
                0x000000008002a0f4        0x4 /usr/local/xenon/usr/lib/libxenon.a(console.o)
 .bss.max_x     0x000000008002a0f8        0x4 /usr/local/xenon/usr/lib/libxenon.a(console.o)
 .bss.max_y     0x000000008002a0fc        0x4 /usr/local/xenon/usr/lib/libxenon.a(console.o)
 .bss.cursor_x  0x000000008002a100        0x4 /usr/local/xenon/usr/lib/libxenon.a(console.o)
 .bss.cursor_y  0x000000008002a104        0x4 /usr/local/xenon/usr/lib/libxenon.a(console.o)
 .bss.valid     0x000000008002a108       0x10 /usr/local/xenon/usr/lib/libxenon.a(input.o)
 .bss.ctrl      0x000000008002a118      0x120 /usr/local/xenon/usr/lib/libxenon.a(input.o)
 .bss.kmem_init_done
                0x000000008002a238        0x4 /usr/local/xenon/usr/lib/libxenon.a(lib_malloc.o)
 *fill*         0x000000008002a23c        0x4 00
 .bss.heap      0x000000008002a240   0x100000 /usr/local/xenon/usr/lib/libxenon.a(lib_malloc.o)
 .bss.initdone.3283
                0x000000008012a240        0x4 /usr/local/xenon/usr/lib/libxenon.a(usbmain.o)
 .bss.in_poll.3249
                0x000000008012a244        0x4 /usr/local/xenon/usr/lib/libxenon.a(usbmain.o)
 .bss.xenos_current_mode
                0x000000008012a248        0x4 /usr/local/xenon/usr/lib/libxenon.a(xenos.o)
 .bss.num.3552  0x000000008012a24c        0x4 /usr/local/xenon/usr/lib/libxenon.a(usbmass.o)
 .bss.sfcx_page
                0x000000008012a250      0x210 /usr/local/xenon/usr/lib/libxenon.a(xenon_config.o)
 .bss.secured_settings
                0x000000008012a460      0x208 /usr/local/xenon/usr/lib/libxenon.a(xenon_config.o)
                0x000000008012a460                secured_settings
 .bss.xenon_config_initialized
                0x000000008012a668        0x4 /usr/local/xenon/usr/lib/libxenon.a(xenon_config.o)
 .bss.part      0x000000008012a66c      0x300 /usr/local/xenon/usr/lib/libxenon.a(disk_rb.o)
 *fill*         0x000000008012a96c        0x4 00
 .bss.block_cache_lba
                0x000000008012a970       0x80 /usr/local/xenon/usr/lib/libxenon.a(disk_rb.o)
 .bss.block_cache
                0x000000008012a9f0   0x100000 /usr/local/xenon/usr/lib/libxenon.a(disk_rb.o)
 .bss.vol_drive
                0x000000008022a9f0       0x40 /usr/local/xenon/usr/lib/libxenon.a(disk_rb.o)
 .bss.fat_cache_sectors
                0x000000008022aa30     0x4000 /usr/local/xenon/usr/lib/libxenon.a(fat_rb.o)
 .bss.fat_bpbs  0x000000008022ea30      0x640 /usr/local/xenon/usr/lib/libxenon.a(fat_rb.o)
 .bss.initialized
                0x000000008022f070        0x1 /usr/local/xenon/usr/lib/libxenon.a(fat_rb.o)
 *fill*         0x000000008022f071        0x3 00
 .bss.cache_mutex
                0x000000008022f074        0x4 /usr/local/xenon/usr/lib/libxenon.a(fat_rb.o)
 .bss.fat_cache
                0x000000008022f078      0x180 /usr/local/xenon/usr/lib/libxenon.a(fat_rb.o)
 .bss.openfiles
                0x000000008022f1f8     0x8f00 /usr/local/xenon/usr/lib/libxenon.a(file_rb.o)
 .bss.opendirs  0x00000000802380f8     0x2ae0 /usr/local/xenon/usr/lib/libxenon.a(dir_rb.o)
 .bss.fh_mutex  0x000000008023abd8        0x4 /usr/local/xenon/usr/lib/libxenon.a(iso9660.o)
 .bss.joliet    0x000000008023abdc        0x4 /usr/local/xenon/usr/lib/libxenon.a(iso9660.o)
 .bss.icache    0x000000008023abe0       0x40 /usr/local/xenon/usr/lib/libxenon.a(iso9660.o)
 .bss.percd_done
                0x000000008023ac20        0x4 /usr/local/xenon/usr/lib/libxenon.a(iso9660.o)
 .bss.dcache    0x000000008023ac24       0x40 /usr/local/xenon/usr/lib/libxenon.a(iso9660.o)
 .bss.iso9660_dev
                0x000000008023ac64        0x4 /usr/local/xenon/usr/lib/libxenon.a(iso9660.o)
 .bss.root_size
                0x000000008023ac68        0x4 /usr/local/xenon/usr/lib/libxenon.a(iso9660.o)
 .bss.root_dirent
                0x000000008023ac6c       0x22 /usr/local/xenon/usr/lib/libxenon.a(iso9660.o)
 *fill*         0x000000008023ac8e        0x2 00
 .bss.cache_mutex
                0x000000008023ac90        0x4 /usr/local/xenon/usr/lib/libxenon.a(iso9660.o)
 .bss.fh        0x000000008023ac94      0x240 /usr/local/xenon/usr/lib/libxenon.a(iso9660.o)
 .bss.root_extent
                0x000000008023aed4        0x4 /usr/local/xenon/usr/lib/libxenon.a(iso9660.o)
 .bss.controller_mask
                0x000000008023aed8        0x4 /usr/local/xenon/usr/lib/libxenon.a(usbctrl.o)
 *fill*         0x000000008023aedc        0x4 00
 .bss.buf.3303  0x000000008023aee0      0x100 /usr/local/xenon/usr/lib/libxenon.a(usbdebug.o)
 .bss.sfc       0x000000008023afe0       0x44 /usr/local/xenon/usr/lib/libxenon.a(xenon_sfcx.o)
                0x000000008023afe0                sfc
 .bss           0x000000008023b024       0x28 /usr/local/xenon/xenon/lib/32/libc.a(lib_a-mallocr.o)
                0x000000008023b024                __malloc_current_mallinfo
 COMMON         0x000000008023b04c        0xc /usr/local/xenon/usr/lib/libxenon.a(lib_malloc.o)
                0x000000008023b04c                kmempool
 COMMON         0x000000008023b058       0x10 /usr/local/xenon/usr/lib/libxenon.a(usbmain.o)
                0x000000008023b058                usb_buses
 COMMON         0x000000008023b068      0x380 /usr/local/xenon/usr/lib/libxenon.a(diskio.o)
                0x000000008023b068                devices

.sbss           0x000000008023b3e8       0x3c
 *(.sbss*)
 .sbss          0x0000000000000000        0x0 /usr/local/xenon/lib/gcc/xenon/4.4.0/../../../../xenon/lib/../lib/crt1.o
 .sbss.MEM_TMP  0x000000008023b3e8        0x4 main.o
                0x000000008023b3e8                MEM_TMP
 .sbss.MOBO_TMP
                0x000000008023b3ec        0x4 main.o
                0x000000008023b3ec                MOBO_TMP
 .sbss.CPU_TMP  0x000000008023b3f0        0x4 main.o
                0x000000008023b3f0                CPU_TMP
 .sbss.GPU_TMP  0x000000008023b3f4        0x4 main.o
                0x000000008023b3f4                GPU_TMP
 .sbss.stdout_hook
                0x000000008023b3f8        0x4 /usr/local/xenon/usr/lib/libxenon.a(newlib.o)
                0x000000008023b3f8                stdout_hook
 .sbss          0x000000008023b3fc        0x4 /usr/local/xenon/usr/lib/libxenon.a(newlib.o)
                0x000000008023b3fc                heap_ptr
 .sbss.usb_initialized
                0x000000008023b400        0x4 /usr/local/xenon/usr/lib/libxenon.a(usbmain.o)
                0x000000008023b400                usb_initialized
 .sbss.usb_buscnt
                0x000000008023b404        0x4 /usr/local/xenon/usr/lib/libxenon.a(usbmain.o)
                0x000000008023b404                usb_buscnt
 .sbss.xenos_id
                0x000000008023b408        0x4 /usr/local/xenon/usr/lib/libxenon.a(xenos.o)
                0x000000008023b408                xenos_id
 .sbss.usb_noisy
                0x000000008023b40c        0x4 /usr/local/xenon/usr/lib/libxenon.a(usbd.o)
                0x000000008023b40c                usb_noisy
 .sbss.usbmass_dev
                0x000000008023b410        0x4 /usr/local/xenon/usr/lib/libxenon.a(usbmass.o)
                0x000000008023b410                usbmass_dev
 .sbss          0x000000008023b414        0xc /usr/local/xenon/xenon/lib/32/libc.a(lib_a-mallocr.o)
                0x000000008023b414                __malloc_top_pad
                0x000000008023b418                __malloc_max_sbrked_mem
                0x000000008023b41c                __malloc_max_total_mem
 .sbss          0x000000008023b420        0x4 /usr/local/xenon/xenon/lib/32/libc.a(lib_a-reent.o)
                0x000000008023b420                errno
                0x000000008023b424                bss_end = .
                0x000000008023b424                heap_begin = .
                0x0000000090000000                . = 0x90000000
                0x0000000090000000                __libc_stack_end = .
                0x0000000090000000                heap_end = .
                0x00000000a0000000                . = 0xa0000000
OUTPUT(/home/tiffany/Xbox-360-Homebrew/XDash/xenon.elf elf32-powerpc)

.debug_abbrev   0x0000000000000000     0x983f
 .debug_abbrev  0x0000000000000000       0x7d /usr/local/xenon/lib/gcc/xenon/4.4.0/../../../../xenon/lib/../lib/crt1.o
 .debug_abbrev  0x000000000000007d      0x18b main.o
 .debug_abbrev  0x0000000000000208      0x1dd /usr/local/xenon/usr/lib/libxenon.a(console.o)
 .debug_abbrev  0x00000000000003e5       0xf2 /usr/local/xenon/usr/lib/libxenon.a(input.o)
 .debug_abbrev  0x00000000000004d7      0x247 /usr/local/xenon/usr/lib/libxenon.a(newlib.o)
 .debug_abbrev  0x000000000000071e      0x26c /usr/local/xenon/usr/lib/libxenon.a(lib_malloc.o)
 .debug_abbrev  0x000000000000098a       0x63 /usr/local/xenon/usr/lib/libxenon.a(vm.o)
 .debug_abbrev  0x00000000000009ed      0x1c3 /usr/local/xenon/usr/lib/libxenon.a(usbmain.o)
 .debug_abbrev  0x0000000000000bb0      0x10c /usr/local/xenon/usr/lib/libxenon.a(xenon_smc.o)
 .debug_abbrev  0x0000000000000cbc       0xc8 /usr/local/xenon/usr/lib/libxenon.a(xenon_uart.o)
 .debug_abbrev  0x0000000000000d84      0x205 /usr/local/xenon/usr/lib/libxenon.a(xenos.o)
 .debug_abbrev  0x0000000000000f89       0xad /usr/local/xenon/usr/lib/libxenon.a(io.o)
 .debug_abbrev  0x0000000000001036      0x11d /usr/local/xenon/usr/lib/libxenon.a(time.o)
 .debug_abbrev  0x0000000000001153      0x357 /usr/local/xenon/usr/lib/libxenon.a(ohci.o)
 .debug_abbrev  0x00000000000014aa      0x2ea /usr/local/xenon/usr/lib/libxenon.a(usbd.o)
 .debug_abbrev  0x0000000000001794      0x146 /usr/local/xenon/usr/lib/libxenon.a(usbdevs.o)
 .debug_abbrev  0x00000000000018da      0x20a /usr/local/xenon/usr/lib/libxenon.a(usbhid.o)
 .debug_abbrev  0x0000000000001ae4      0x308 /usr/local/xenon/usr/lib/libxenon.a(usbhub.o)
 .debug_abbrev  0x0000000000001dec      0x22d /usr/local/xenon/usr/lib/libxenon.a(usbmass.o)
 .debug_abbrev  0x0000000000002019       0xa5 /usr/local/xenon/usr/lib/libxenon.a(xenon_gpio.o)
 .debug_abbrev  0x00000000000020be      0x173 /usr/local/xenon/usr/lib/libxenon.a(xenon_config.o)
 .debug_abbrev  0x0000000000002231      0x18a /usr/local/xenon/usr/lib/libxenon.a(diskio.o)
 .debug_abbrev  0x00000000000023bb      0x191 /usr/local/xenon/usr/lib/libxenon.a(disk_rb.o)
 .debug_abbrev  0x000000000000254c      0x347 /usr/local/xenon/usr/lib/libxenon.a(fat_rb.o)
 .debug_abbrev  0x0000000000002893      0x20d /usr/local/xenon/usr/lib/libxenon.a(file_rb.o)
 .debug_abbrev  0x0000000000002aa0      0x1d0 /usr/local/xenon/usr/lib/libxenon.a(dir_rb.o)
 .debug_abbrev  0x0000000000002c70      0x421 /usr/local/xenon/usr/lib/libxenon.a(iso9660.o)
 .debug_abbrev  0x0000000000003091      0x13b /usr/local/xenon/usr/lib/libxenon.a(lib_queue.o)
 .debug_abbrev  0x00000000000031cc      0x218 /usr/local/xenon/usr/lib/libxenon.a(usbctrl.o)
 .debug_abbrev  0x00000000000033e4      0x1f2 /usr/local/xenon/usr/lib/libxenon.a(usbdebug.o)
 .debug_abbrev  0x00000000000035d6      0x101 /usr/local/xenon/usr/lib/libxenon.a(unicode_rb.o)
 .debug_abbrev  0x00000000000036d7      0x1f7 /usr/local/xenon/usr/lib/libxenon.a(xenon_sfcx.o)
 .debug_abbrev  0x00000000000038ce      0x177 /usr/local/xenon/xenon/lib/32/libc.a(lib_a-assert.o)
 .debug_abbrev  0x0000000000003a45      0x17f /usr/local/xenon/xenon/lib/32/libc.a(lib_a-atoi.o)
 .debug_abbrev  0x0000000000003bc4       0x5b /usr/local/xenon/xenon/lib/32/libc.a(lib_a-ctype_.o)
 .debug_abbrev  0x0000000000003c1f      0x168 /usr/local/xenon/xenon/lib/32/libc.a(lib_a-errno.o)
 .debug_abbrev  0x0000000000003d87      0x177 /usr/local/xenon/xenon/lib/32/libc.a(lib_a-exit.o)
 .debug_abbrev  0x0000000000003efe      0x1b3 /usr/local/xenon/xenon/lib/32/libc.a(lib_a-fiprintf.o)
 .debug_abbrev  0x00000000000040b1      0x160 /usr/local/xenon/xenon/lib/32/libc.a(lib_a-impure.o)
 .debug_abbrev  0x0000000000004211      0x190 /usr/local/xenon/xenon/lib/32/libc.a(lib_a-malloc.o)
 .debug_abbrev  0x00000000000043a1      0x221 /usr/local/xenon/xenon/lib/32/libc.a(lib_a-mallocr.o)
 .debug_abbrev  0x00000000000045c2       0xdc /usr/local/xenon/xenon/lib/32/libc.a(lib_a-memchr.o)
 .debug_abbrev  0x000000000000469e       0xa3 /usr/local/xenon/xenon/lib/32/libc.a(lib_a-memcmp.o)
 .debug_abbrev  0x0000000000004741       0xb1 /usr/local/xenon/xenon/lib/32/libc.a(lib_a-memcpy.o)
 .debug_abbrev  0x00000000000047f2       0xa3 /usr/local/xenon/xenon/lib/32/libc.a(lib_a-memset.o)
 .debug_abbrev  0x0000000000004895      0x173 /usr/local/xenon/xenon/lib/32/libc.a(lib_a-mlock.o)
 .debug_abbrev  0x0000000000004a08      0x1c2 /usr/local/xenon/xenon/lib/32/libc.a(lib_a-printf.o)
 .debug_abbrev  0x0000000000004bca      0x192 /usr/local/xenon/xenon/lib/32/libc.a(lib_a-putchar.o)
 .debug_abbrev  0x0000000000004d5c      0x1a1 /usr/local/xenon/xenon/lib/32/libc.a(lib_a-putc.o)
 .debug_abbrev  0x0000000000004efd      0x1b5 /usr/local/xenon/xenon/lib/32/libc.a(lib_a-puts.o)
 .debug_abbrev  0x00000000000050b2      0x18e /usr/local/xenon/xenon/lib/32/libc.a(lib_a-rand.o)
 .debug_abbrev  0x0000000000005240      0x197 /usr/local/xenon/xenon/lib/32/libc.a(lib_a-sbrkr.o)
 .debug_abbrev  0x00000000000053d7      0x1ab /usr/local/xenon/xenon/lib/32/libc.a(lib_a-snprintf.o)
 .debug_abbrev  0x0000000000005582      0x1b3 /usr/local/xenon/xenon/lib/32/libc.a(lib_a-sprintf.o)
 .debug_abbrev  0x0000000000005735       0xb7 /usr/local/xenon/xenon/lib/32/libc.a(lib_a-strcasecmp.o)
 .debug_abbrev  0x00000000000057ec       0x90 /usr/local/xenon/xenon/lib/32/libc.a(lib_a-strcat.o)
 .debug_abbrev  0x000000000000587c       0xa5 /usr/local/xenon/xenon/lib/32/libc.a(lib_a-strchr.o)
 .debug_abbrev  0x0000000000005921       0x89 /usr/local/xenon/xenon/lib/32/libc.a(lib_a-strcmp.o)
 .debug_abbrev  0x00000000000059aa       0x89 /usr/local/xenon/xenon/lib/32/libc.a(lib_a-strcpy.o)
 .debug_abbrev  0x0000000000005a33       0x94 /usr/local/xenon/xenon/lib/32/libc.a(lib_a-strlcpy.o)
 .debug_abbrev  0x0000000000005ac7       0x94 /usr/local/xenon/xenon/lib/32/libc.a(lib_a-strlen.o)
 .debug_abbrev  0x0000000000005b5b       0xc8 /usr/local/xenon/xenon/lib/32/libc.a(lib_a-strncasecmp.o)
 .debug_abbrev  0x0000000000005c23       0x96 /usr/local/xenon/xenon/lib/32/libc.a(lib_a-strncmp.o)
 .debug_abbrev  0x0000000000005cb9       0xa5 /usr/local/xenon/xenon/lib/32/libc.a(lib_a-strncpy.o)
 .debug_abbrev  0x0000000000005d5e       0x78 /usr/local/xenon/xenon/lib/32/libc.a(lib_a-strrchr.o)
 .debug_abbrev  0x0000000000005dd6       0xc9 /usr/local/xenon/xenon/lib/32/libc.a(lib_a-strtok_r.o)
 .debug_abbrev  0x0000000000005e9f      0x1d5 /usr/local/xenon/xenon/lib/32/libc.a(lib_a-strtol.o)
 .debug_abbrev  0x0000000000006074      0x30d /usr/local/xenon/xenon/lib/32/libc.a(lib_a-svfprintf.o)
 .debug_abbrev  0x0000000000006381      0x2a3 /usr/local/xenon/xenon/lib/32/libc.a(lib_a-vfiprintf.o)
 .debug_abbrev  0x0000000000006624      0x313 /usr/local/xenon/xenon/lib/32/libc.a(lib_a-vfprintf.o)
 .debug_abbrev  0x0000000000006937      0x1a1 /usr/local/xenon/xenon/lib/32/libc.a(lib_a-wbuf.o)
 .debug_abbrev  0x0000000000006ad8      0x179 /usr/local/xenon/xenon/lib/32/libc.a(lib_a-wsetup.o)
 .debug_abbrev  0x0000000000006c51       0x48 /usr/local/xenon/xenon/lib/32/libc.a(lib_a-abort.o)
 .debug_abbrev  0x0000000000006c99      0x1d0 /usr/local/xenon/xenon/lib/32/libc.a(lib_a-__call_atexit.o)
 .debug_abbrev  0x0000000000006e69      0x23b /usr/local/xenon/xenon/lib/32/libc.a(lib_a-dtoa.o)
 .debug_abbrev  0x00000000000070a4      0x1c4 /usr/local/xenon/xenon/lib/32/libc.a(lib_a-fflush.o)
 .debug_abbrev  0x0000000000007268      0x244 /usr/local/xenon/xenon/lib/32/libc.a(lib_a-findfp.o)
 .debug_abbrev  0x00000000000074ac      0x1e2 /usr/local/xenon/xenon/lib/32/libc.a(lib_a-freer.o)
 .debug_abbrev  0x000000000000768e      0x1ac /usr/local/xenon/xenon/lib/32/libc.a(lib_a-fvwrite.o)
 .debug_abbrev  0x000000000000783a      0x1ee /usr/local/xenon/xenon/lib/32/libc.a(lib_a-fwalk.o)
 .debug_abbrev  0x0000000000007a28      0x1ee /usr/local/xenon/xenon/lib/32/libc.a(lib_a-locale.o)
 .debug_abbrev  0x0000000000007c16      0x193 /usr/local/xenon/xenon/lib/32/libc.a(lib_a-makebuf.o)
 .debug_abbrev  0x0000000000007da9       0xb1 /usr/local/xenon/xenon/lib/32/libc.a(lib_a-memmove.o)
 .debug_abbrev  0x0000000000007e5a      0x2ad /usr/local/xenon/xenon/lib/32/libc.a(lib_a-mprec.o)
 .debug_abbrev  0x0000000000008107      0x1d5 /usr/local/xenon/xenon/lib/32/libc.a(lib_a-reallocr.o)
 .debug_abbrev  0x00000000000082dc      0x1fa /usr/local/xenon/xenon/lib/32/libc.a(lib_a-reent.o)
 .debug_abbrev  0x00000000000084d6      0x1bb /usr/local/xenon/xenon/lib/32/libc.a(lib_a-signal.o)
 .debug_abbrev  0x0000000000008691      0x195 /usr/local/xenon/xenon/lib/32/libc.a(lib_a-signalr.o)
 .debug_abbrev  0x0000000000008826       0xdd /usr/local/xenon/xenon/lib/32/libc.a(lib_a-s_isinfd.o)
 .debug_abbrev  0x0000000000008903       0xce /usr/local/xenon/xenon/lib/32/libc.a(lib_a-s_isnand.o)
 .debug_abbrev  0x00000000000089d1      0x1aa /usr/local/xenon/xenon/lib/32/libc.a(lib_a-stdio.o)
 .debug_abbrev  0x0000000000008b7b      0x18d /usr/local/xenon/xenon/lib/32/libc.a(lib_a-writer.o)
 .debug_abbrev  0x0000000000008d08      0x1c1 /usr/local/xenon/xenon/lib/32/libc.a(lib_a-callocr.o)
 .debug_abbrev  0x0000000000008ec9      0x188 /usr/local/xenon/xenon/lib/32/libc.a(lib_a-closer.o)
 .debug_abbrev  0x0000000000009051      0x1b0 /usr/local/xenon/xenon/lib/32/libc.a(lib_a-fclose.o)
 .debug_abbrev  0x0000000000009201      0x197 /usr/local/xenon/xenon/lib/32/libc.a(lib_a-fstatr.o)
 .debug_abbrev  0x0000000000009398      0x188 /usr/local/xenon/xenon/lib/32/libc.a(lib_a-isattyr.o)
 .debug_abbrev  0x0000000000009520      0x197 /usr/local/xenon/xenon/lib/32/libc.a(lib_a-lseekr.o)
 .debug_abbrev  0x00000000000096b7      0x188 /usr/local/xenon/xenon/lib/32/libc.a(lib_a-readr.o)

.debug_info     0x0000000000000000    0x337ea
 .debug_info    0x0000000000000000       0x94 /usr/local/xenon/lib/gcc/xenon/4.4.0/../../../../xenon/lib/../lib/crt1.o
 .debug_info    0x0000000000000094      0x676 main.o
 .debug_info    0x000000000000070a      0x537 /usr/local/xenon/usr/lib/libxenon.a(console.o)
 .debug_info    0x0000000000000c41      0x23c /usr/local/xenon/usr/lib/libxenon.a(input.o)
 .debug_info    0x0000000000000e7d      0xbeb /usr/local/xenon/usr/lib/libxenon.a(newlib.o)
 .debug_info    0x0000000000001a68      0x4f4 /usr/local/xenon/usr/lib/libxenon.a(lib_malloc.o)
 .debug_info    0x0000000000001f5c       0x9c /usr/local/xenon/usr/lib/libxenon.a(vm.o)
 .debug_info    0x0000000000001ff8      0x8a5 /usr/local/xenon/usr/lib/libxenon.a(usbmain.o)
 .debug_info    0x000000000000289d      0x435 /usr/local/xenon/usr/lib/libxenon.a(xenon_smc.o)
 .debug_info    0x0000000000002cd2      0x118 /usr/local/xenon/usr/lib/libxenon.a(xenon_uart.o)
 .debug_info    0x0000000000002dea      0x70e /usr/local/xenon/usr/lib/libxenon.a(xenos.o)
 .debug_info    0x00000000000034f8      0x131 /usr/local/xenon/usr/lib/libxenon.a(io.o)
 .debug_info    0x0000000000003629      0x2cd /usr/local/xenon/usr/lib/libxenon.a(time.o)
 .debug_info    0x00000000000038f6     0x242c /usr/local/xenon/usr/lib/libxenon.a(ohci.o)
 .debug_info    0x0000000000005d22     0x160b /usr/local/xenon/usr/lib/libxenon.a(usbd.o)
 .debug_info    0x000000000000732d      0x927 /usr/local/xenon/usr/lib/libxenon.a(usbdevs.o)
 .debug_info    0x0000000000007c54      0xd1b /usr/local/xenon/usr/lib/libxenon.a(usbhid.o)
 .debug_info    0x000000000000896f     0x12b9 /usr/local/xenon/usr/lib/libxenon.a(usbhub.o)
 .debug_info    0x0000000000009c28     0x1097 /usr/local/xenon/usr/lib/libxenon.a(usbmass.o)
 .debug_info    0x000000000000acbf      0x15b /usr/local/xenon/usr/lib/libxenon.a(xenon_gpio.o)
 .debug_info    0x000000000000ae1a      0x4ee /usr/local/xenon/usr/lib/libxenon.a(xenon_config.o)
 .debug_info    0x000000000000b308      0x972 /usr/local/xenon/usr/lib/libxenon.a(diskio.o)
 .debug_info    0x000000000000bc7a      0x486 /usr/local/xenon/usr/lib/libxenon.a(disk_rb.o)
 .debug_info    0x000000000000c100     0x1ed1 /usr/local/xenon/usr/lib/libxenon.a(fat_rb.o)
 .debug_info    0x000000000000dfd1      0x9d5 /usr/local/xenon/usr/lib/libxenon.a(file_rb.o)
 .debug_info    0x000000000000e9a6      0x650 /usr/local/xenon/usr/lib/libxenon.a(dir_rb.o)
 .debug_info    0x000000000000eff6     0x14e3 /usr/local/xenon/usr/lib/libxenon.a(iso9660.o)
 .debug_info    0x00000000000104d9      0x26c /usr/local/xenon/usr/lib/libxenon.a(lib_queue.o)
 .debug_info    0x0000000000010745      0xcbc /usr/local/xenon/usr/lib/libxenon.a(usbctrl.o)
 .debug_info    0x0000000000011401      0xcac /usr/local/xenon/usr/lib/libxenon.a(usbdebug.o)
 .debug_info    0x00000000000120ad      0x290 /usr/local/xenon/usr/lib/libxenon.a(unicode_rb.o)
 .debug_info    0x000000000001233d      0x672 /usr/local/xenon/usr/lib/libxenon.a(xenon_sfcx.o)
 .debug_info    0x00000000000129af      0x9d7 /usr/local/xenon/xenon/lib/32/libc.a(lib_a-assert.o)
 .debug_info    0x0000000000013386      0x98d /usr/local/xenon/xenon/lib/32/libc.a(lib_a-atoi.o)
 .debug_info    0x0000000000013d13       0x87 /usr/local/xenon/xenon/lib/32/libc.a(lib_a-ctype_.o)
 .debug_info    0x0000000000013d9a      0x959 /usr/local/xenon/xenon/lib/32/libc.a(lib_a-errno.o)
 .debug_info    0x00000000000146f3      0x968 /usr/local/xenon/xenon/lib/32/libc.a(lib_a-exit.o)
 .debug_info    0x000000000001505b      0xa7e /usr/local/xenon/xenon/lib/32/libc.a(lib_a-fiprintf.o)
 .debug_info    0x0000000000015ad9      0x968 /usr/local/xenon/xenon/lib/32/libc.a(lib_a-impure.o)
 .debug_info    0x0000000000016441      0x99b /usr/local/xenon/xenon/lib/32/libc.a(lib_a-malloc.o)
 .debug_info    0x0000000000016ddc      0xcfd /usr/local/xenon/xenon/lib/32/libc.a(lib_a-mallocr.o)
 .debug_info    0x0000000000017ad9      0x123 /usr/local/xenon/xenon/lib/32/libc.a(lib_a-memchr.o)
 .debug_info    0x0000000000017bfc      0x10b /usr/local/xenon/xenon/lib/32/libc.a(lib_a-memcmp.o)
 .debug_info    0x0000000000017d07      0x140 /usr/local/xenon/xenon/lib/32/libc.a(lib_a-memcpy.o)
 .debug_info    0x0000000000017e47      0x115 /usr/local/xenon/xenon/lib/32/libc.a(lib_a-memset.o)
 .debug_info    0x0000000000017f5c      0x980 /usr/local/xenon/xenon/lib/32/libc.a(lib_a-mlock.o)
 .debug_info    0x00000000000188dc      0xa60 /usr/local/xenon/xenon/lib/32/libc.a(lib_a-printf.o)
 .debug_info    0x000000000001933c      0x9a0 /usr/local/xenon/xenon/lib/32/libc.a(lib_a-putchar.o)
 .debug_info    0x0000000000019cdc      0x9eb /usr/local/xenon/xenon/lib/32/libc.a(lib_a-putc.o)
 .debug_info    0x000000000001a6c7      0xa51 /usr/local/xenon/xenon/lib/32/libc.a(lib_a-puts.o)
 .debug_info    0x000000000001b118      0x97a /usr/local/xenon/xenon/lib/32/libc.a(lib_a-rand.o)
 .debug_info    0x000000000001ba92      0x98f /usr/local/xenon/xenon/lib/32/libc.a(lib_a-sbrkr.o)
 .debug_info    0x000000000001c421      0xad5 /usr/local/xenon/xenon/lib/32/libc.a(lib_a-snprintf.o)
 .debug_info    0x000000000001cef6      0xa9f /usr/local/xenon/xenon/lib/32/libc.a(lib_a-sprintf.o)
 .debug_info    0x000000000001d995      0x132 /usr/local/xenon/xenon/lib/32/libc.a(lib_a-strcasecmp.o)
 .debug_info    0x000000000001dac7       0xe9 /usr/local/xenon/xenon/lib/32/libc.a(lib_a-strcat.o)
 .debug_info    0x000000000001dbb0      0x110 /usr/local/xenon/xenon/lib/32/libc.a(lib_a-strchr.o)
 .debug_info    0x000000000001dcc0       0xdb /usr/local/xenon/xenon/lib/32/libc.a(lib_a-strcmp.o)
 .debug_info    0x000000000001dd9b      0x108 /usr/local/xenon/xenon/lib/32/libc.a(lib_a-strcpy.o)
 .debug_info    0x000000000001dea3       0xfe /usr/local/xenon/xenon/lib/32/libc.a(lib_a-strlcpy.o)
 .debug_info    0x000000000001dfa1       0xd7 /usr/local/xenon/xenon/lib/32/libc.a(lib_a-strlen.o)
 .debug_info    0x000000000001e078      0x146 /usr/local/xenon/xenon/lib/32/libc.a(lib_a-strncasecmp.o)
 .debug_info    0x000000000001e1be       0xf3 /usr/local/xenon/xenon/lib/32/libc.a(lib_a-strncmp.o)
 .debug_info    0x000000000001e2b1      0x128 /usr/local/xenon/xenon/lib/32/libc.a(lib_a-strncpy.o)
 .debug_info    0x000000000001e3d9       0xca /usr/local/xenon/xenon/lib/32/libc.a(lib_a-strrchr.o)
 .debug_info    0x000000000001e4a3      0x164 /usr/local/xenon/xenon/lib/32/libc.a(lib_a-strtok_r.o)
 .debug_info    0x000000000001e607      0xa4d /usr/local/xenon/xenon/lib/32/libc.a(lib_a-strtol.o)
 .debug_info    0x000000000001f054     0x107e /usr/local/xenon/xenon/lib/32/libc.a(lib_a-svfprintf.o)
 .debug_info    0x00000000000200d2      0xe55 /usr/local/xenon/xenon/lib/32/libc.a(lib_a-vfiprintf.o)
 .debug_info    0x0000000000020f27     0x113d /usr/local/xenon/xenon/lib/32/libc.a(lib_a-vfprintf.o)
 .debug_info    0x0000000000022064      0x9da /usr/local/xenon/xenon/lib/32/libc.a(lib_a-wbuf.o)
 .debug_info    0x0000000000022a3e      0x986 /usr/local/xenon/xenon/lib/32/libc.a(lib_a-wsetup.o)
 .debug_info    0x00000000000233c4       0x8b /usr/local/xenon/xenon/lib/32/libc.a(lib_a-abort.o)
 .debug_info    0x000000000002344f      0x9e8 /usr/local/xenon/xenon/lib/32/libc.a(lib_a-__call_atexit.o)
 .debug_info    0x0000000000023e37      0xd9e /usr/local/xenon/xenon/lib/32/libc.a(lib_a-dtoa.o)
 .debug_info    0x0000000000024bd5      0xa22 /usr/local/xenon/xenon/lib/32/libc.a(lib_a-fflush.o)
 .debug_info    0x00000000000255f7      0xbb0 /usr/local/xenon/xenon/lib/32/libc.a(lib_a-findfp.o)
 .debug_info    0x00000000000261a7      0xbf2 /usr/local/xenon/xenon/lib/32/libc.a(lib_a-freer.o)
 .debug_info    0x0000000000026d99      0xaad /usr/local/xenon/xenon/lib/32/libc.a(lib_a-fvwrite.o)
 .debug_info    0x0000000000027846      0xb1e /usr/local/xenon/xenon/lib/32/libc.a(lib_a-fwalk.o)
 .debug_info    0x0000000000028364      0xbcb /usr/local/xenon/xenon/lib/32/libc.a(lib_a-locale.o)
 .debug_info    0x0000000000028f2f      0xb47 /usr/local/xenon/xenon/lib/32/libc.a(lib_a-makebuf.o)
 .debug_info    0x0000000000029a76      0x140 /usr/local/xenon/xenon/lib/32/libc.a(lib_a-memmove.o)
 .debug_info    0x0000000000029bb6     0x145d /usr/local/xenon/xenon/lib/32/libc.a(lib_a-mprec.o)
 .debug_info    0x000000000002b013      0xbde /usr/local/xenon/xenon/lib/32/libc.a(lib_a-reallocr.o)
 .debug_info    0x000000000002bbf1      0xa4c /usr/local/xenon/xenon/lib/32/libc.a(lib_a-reent.o)
 .debug_info    0x000000000002c63d      0xb1a /usr/local/xenon/xenon/lib/32/libc.a(lib_a-signal.o)
 .debug_info    0x000000000002d157      0x9cb /usr/local/xenon/xenon/lib/32/libc.a(lib_a-signalr.o)
 .debug_info    0x000000000002db22      0x14f /usr/local/xenon/xenon/lib/32/libc.a(lib_a-s_isinfd.o)
 .debug_info    0x000000000002dc71      0x14e /usr/local/xenon/xenon/lib/32/libc.a(lib_a-s_isnand.o)
 .debug_info    0x000000000002ddbf      0xad9 /usr/local/xenon/xenon/lib/32/libc.a(lib_a-stdio.o)
 .debug_info    0x000000000002e898      0x9be /usr/local/xenon/xenon/lib/32/libc.a(lib_a-writer.o)
 .debug_info    0x000000000002f256      0xa44 /usr/local/xenon/xenon/lib/32/libc.a(lib_a-callocr.o)
 .debug_info    0x000000000002fc9a      0x983 /usr/local/xenon/xenon/lib/32/libc.a(lib_a-closer.o)
 .debug_info    0x000000000003061d      0x9c0 /usr/local/xenon/xenon/lib/32/libc.a(lib_a-fclose.o)
 .debug_info    0x0000000000030fdd      0xb27 /usr/local/xenon/xenon/lib/32/libc.a(lib_a-fstatr.o)
 .debug_info    0x0000000000031b04      0x983 /usr/local/xenon/xenon/lib/32/libc.a(lib_a-isattyr.o)
 .debug_info    0x0000000000032487      0x9ac /usr/local/xenon/xenon/lib/32/libc.a(lib_a-lseekr.o)
 .debug_info    0x0000000000032e33      0x9b7 /usr/local/xenon/xenon/lib/32/libc.a(lib_a-readr.o)

.debug_line     0x0000000000000000     0xbd4c
 .debug_line    0x0000000000000000       0x56 /usr/local/xenon/lib/gcc/xenon/4.4.0/../../../../xenon/lib/../lib/crt1.o
 .debug_line    0x0000000000000056      0x29c main.o
 .debug_line    0x00000000000002f2      0x238 /usr/local/xenon/usr/lib/libxenon.a(console.o)
 .debug_line    0x000000000000052a       0x75 /usr/local/xenon/usr/lib/libxenon.a(input.o)
 .debug_line    0x000000000000059f      0x306 /usr/local/xenon/usr/lib/libxenon.a(newlib.o)
 .debug_line    0x00000000000008a5      0x1d1 /usr/local/xenon/usr/lib/libxenon.a(lib_malloc.o)
 .debug_line    0x0000000000000a76       0x82 /usr/local/xenon/usr/lib/libxenon.a(vm.o)
 .debug_line    0x0000000000000af8      0x18b /usr/local/xenon/usr/lib/libxenon.a(usbmain.o)
 .debug_line    0x0000000000000c83      0x267 /usr/local/xenon/usr/lib/libxenon.a(xenon_smc.o)
 .debug_line    0x0000000000000eea       0xcf /usr/local/xenon/usr/lib/libxenon.a(xenon_uart.o)
 .debug_line    0x0000000000000fb9      0x310 /usr/local/xenon/usr/lib/libxenon.a(xenos.o)
 .debug_line    0x00000000000012c9       0xc1 /usr/local/xenon/usr/lib/libxenon.a(io.o)
 .debug_line    0x000000000000138a      0x13d /usr/local/xenon/usr/lib/libxenon.a(time.o)
 .debug_line    0x00000000000014c7      0x8c8 /usr/local/xenon/usr/lib/libxenon.a(ohci.o)
 .debug_line    0x0000000000001d8f      0x514 /usr/local/xenon/usr/lib/libxenon.a(usbd.o)
 .debug_line    0x00000000000022a3      0x101 /usr/local/xenon/usr/lib/libxenon.a(usbdevs.o)
 .debug_line    0x00000000000023a4      0x1ae /usr/local/xenon/usr/lib/libxenon.a(usbhid.o)
 .debug_line    0x0000000000002552      0x378 /usr/local/xenon/usr/lib/libxenon.a(usbhub.o)
 .debug_line    0x00000000000028ca      0x36d /usr/local/xenon/usr/lib/libxenon.a(usbmass.o)
 .debug_line    0x0000000000002c37       0xdb /usr/local/xenon/usr/lib/libxenon.a(xenon_gpio.o)
 .debug_line    0x0000000000002d12      0x13b /usr/local/xenon/usr/lib/libxenon.a(xenon_config.o)
 .debug_line    0x0000000000002e4d      0x24f /usr/local/xenon/usr/lib/libxenon.a(diskio.o)
 .debug_line    0x000000000000309c      0x14a /usr/local/xenon/usr/lib/libxenon.a(disk_rb.o)
 .debug_line    0x00000000000031e6      0xb44 /usr/local/xenon/usr/lib/libxenon.a(fat_rb.o)
 .debug_line    0x0000000000003d2a      0x3fa /usr/local/xenon/usr/lib/libxenon.a(file_rb.o)
 .debug_line    0x0000000000004124      0x16f /usr/local/xenon/usr/lib/libxenon.a(dir_rb.o)
 .debug_line    0x0000000000004293      0x511 /usr/local/xenon/usr/lib/libxenon.a(iso9660.o)
 .debug_line    0x00000000000047a4       0xd9 /usr/local/xenon/usr/lib/libxenon.a(lib_queue.o)
 .debug_line    0x000000000000487d      0x1d3 /usr/local/xenon/usr/lib/libxenon.a(usbctrl.o)
 .debug_line    0x0000000000004a50      0x28b /usr/local/xenon/usr/lib/libxenon.a(usbdebug.o)
 .debug_line    0x0000000000004cdb      0x10b /usr/local/xenon/usr/lib/libxenon.a(unicode_rb.o)
 .debug_line    0x0000000000004de6      0x2c1 /usr/local/xenon/usr/lib/libxenon.a(xenon_sfcx.o)
 .debug_line    0x00000000000050a7      0x163 /usr/local/xenon/xenon/lib/32/libc.a(lib_a-assert.o)
 .debug_line    0x000000000000520a      0x165 /usr/local/xenon/xenon/lib/32/libc.a(lib_a-atoi.o)
 .debug_line    0x000000000000536f       0xa7 /usr/local/xenon/xenon/lib/32/libc.a(lib_a-ctype_.o)
 .debug_line    0x0000000000005416      0x114 /usr/local/xenon/xenon/lib/32/libc.a(lib_a-errno.o)
 .debug_line    0x000000000000552a      0x15c /usr/local/xenon/xenon/lib/32/libc.a(lib_a-exit.o)
 .debug_line    0x0000000000005686      0x182 /usr/local/xenon/xenon/lib/32/libc.a(lib_a-fiprintf.o)
 .debug_line    0x0000000000005808       0xfa /usr/local/xenon/xenon/lib/32/libc.a(lib_a-impure.o)
 .debug_line    0x0000000000005902      0x15f /usr/local/xenon/xenon/lib/32/libc.a(lib_a-malloc.o)
 .debug_line    0x0000000000005a61      0x294 /usr/local/xenon/xenon/lib/32/libc.a(lib_a-mallocr.o)
 .debug_line    0x0000000000005cf5      0x127 /usr/local/xenon/xenon/lib/32/libc.a(lib_a-memchr.o)
 .debug_line    0x0000000000005e1c      0x125 /usr/local/xenon/xenon/lib/32/libc.a(lib_a-memcmp.o)
 .debug_line    0x0000000000005f41      0x155 /usr/local/xenon/xenon/lib/32/libc.a(lib_a-memcpy.o)
 .debug_line    0x0000000000006096      0x147 /usr/local/xenon/xenon/lib/32/libc.a(lib_a-memset.o)
 .debug_line    0x00000000000061dd      0x10c /usr/local/xenon/xenon/lib/32/libc.a(lib_a-mlock.o)
 .debug_line    0x00000000000062e9      0x18b /usr/local/xenon/xenon/lib/32/libc.a(lib_a-printf.o)
 .debug_line    0x0000000000006474      0x15e /usr/local/xenon/xenon/lib/32/libc.a(lib_a-putchar.o)
 .debug_line    0x00000000000065d2      0x17a /usr/local/xenon/xenon/lib/32/libc.a(lib_a-putc.o)
 .debug_line    0x000000000000674c      0x180 /usr/local/xenon/xenon/lib/32/libc.a(lib_a-puts.o)
 .debug_line    0x00000000000068cc      0x162 /usr/local/xenon/xenon/lib/32/libc.a(lib_a-rand.o)
 .debug_line    0x0000000000006a2e      0x15d /usr/local/xenon/xenon/lib/32/libc.a(lib_a-sbrkr.o)
 .debug_line    0x0000000000006b8b      0x1c5 /usr/local/xenon/xenon/lib/32/libc.a(lib_a-snprintf.o)
 .debug_line    0x0000000000006d50      0x1ae /usr/local/xenon/xenon/lib/32/libc.a(lib_a-sprintf.o)
 .debug_line    0x0000000000006efe       0xd3 /usr/local/xenon/xenon/lib/32/libc.a(lib_a-strcasecmp.o)
 .debug_line    0x0000000000006fd1       0xc8 /usr/local/xenon/xenon/lib/32/libc.a(lib_a-strcat.o)
 .debug_line    0x0000000000007099       0xef /usr/local/xenon/xenon/lib/32/libc.a(lib_a-strchr.o)
 .debug_line    0x0000000000007188       0xd5 /usr/local/xenon/xenon/lib/32/libc.a(lib_a-strcmp.o)
 .debug_line    0x000000000000725d       0xc7 /usr/local/xenon/xenon/lib/32/libc.a(lib_a-strcpy.o)
 .debug_line    0x0000000000007324      0x105 /usr/local/xenon/xenon/lib/32/libc.a(lib_a-strlcpy.o)
 .debug_line    0x0000000000007429      0x102 /usr/local/xenon/xenon/lib/32/libc.a(lib_a-strlen.o)
 .debug_line    0x000000000000752b      0x10f /usr/local/xenon/xenon/lib/32/libc.a(lib_a-strncasecmp.o)
 .debug_line    0x000000000000763a      0x137 /usr/local/xenon/xenon/lib/32/libc.a(lib_a-strncmp.o)
 .debug_line    0x0000000000007771      0x119 /usr/local/xenon/xenon/lib/32/libc.a(lib_a-strncpy.o)
 .debug_line    0x000000000000788a       0xc9 /usr/local/xenon/xenon/lib/32/libc.a(lib_a-strrchr.o)
 .debug_line    0x0000000000007953       0xf9 /usr/local/xenon/xenon/lib/32/libc.a(lib_a-strtok_r.o)
 .debug_line    0x0000000000007a4c      0x1b7 /usr/local/xenon/xenon/lib/32/libc.a(lib_a-strtol.o)
 .debug_line    0x0000000000007c03      0x5a5 /usr/local/xenon/xenon/lib/32/libc.a(lib_a-svfprintf.o)
 .debug_line    0x00000000000081a8      0x39f /usr/local/xenon/xenon/lib/32/libc.a(lib_a-vfiprintf.o)
 .debug_line    0x0000000000008547      0x559 /usr/local/xenon/xenon/lib/32/libc.a(lib_a-vfprintf.o)
 .debug_line    0x0000000000008aa0      0x191 /usr/local/xenon/xenon/lib/32/libc.a(lib_a-wbuf.o)
 .debug_line    0x0000000000008c31      0x183 /usr/local/xenon/xenon/lib/32/libc.a(lib_a-wsetup.o)
 .debug_line    0x0000000000008db4       0xbd /usr/local/xenon/xenon/lib/32/libc.a(lib_a-abort.o)
 .debug_line    0x0000000000008e71      0x164 /usr/local/xenon/xenon/lib/32/libc.a(lib_a-__call_atexit.o)
 .debug_line    0x0000000000008fd5      0x517 /usr/local/xenon/xenon/lib/32/libc.a(lib_a-dtoa.o)
 .debug_line    0x00000000000094ec      0x1f9 /usr/local/xenon/xenon/lib/32/libc.a(lib_a-fflush.o)
 .debug_line    0x00000000000096e5      0x201 /usr/local/xenon/xenon/lib/32/libc.a(lib_a-findfp.o)
 .debug_line    0x00000000000098e6      0x198 /usr/local/xenon/xenon/lib/32/libc.a(lib_a-freer.o)
 .debug_line    0x0000000000009a7e      0x23c /usr/local/xenon/xenon/lib/32/libc.a(lib_a-fvwrite.o)
 .debug_line    0x0000000000009cba      0x186 /usr/local/xenon/xenon/lib/32/libc.a(lib_a-fwalk.o)
 .debug_line    0x0000000000009e40      0x182 /usr/local/xenon/xenon/lib/32/libc.a(lib_a-locale.o)
 .debug_line    0x0000000000009fc2      0x1d7 /usr/local/xenon/xenon/lib/32/libc.a(lib_a-makebuf.o)
 .debug_line    0x000000000000a199      0x164 /usr/local/xenon/xenon/lib/32/libc.a(lib_a-memmove.o)
 .debug_line    0x000000000000a2fd      0x515 /usr/local/xenon/xenon/lib/32/libc.a(lib_a-mprec.o)
 .debug_line    0x000000000000a812      0x1e4 /usr/local/xenon/xenon/lib/32/libc.a(lib_a-reallocr.o)
 .debug_line    0x000000000000a9f6      0x149 /usr/local/xenon/xenon/lib/32/libc.a(lib_a-reent.o)
 .debug_line    0x000000000000ab3f      0x1de /usr/local/xenon/xenon/lib/32/libc.a(lib_a-signal.o)
 .debug_line    0x000000000000ad1d      0x165 /usr/local/xenon/xenon/lib/32/libc.a(lib_a-signalr.o)
 .debug_line    0x000000000000ae82      0x128 /usr/local/xenon/xenon/lib/32/libc.a(lib_a-s_isinfd.o)
 .debug_line    0x000000000000afaa      0x126 /usr/local/xenon/xenon/lib/32/libc.a(lib_a-s_isnand.o)
 .debug_line    0x000000000000b0d0      0x18f /usr/local/xenon/xenon/lib/32/libc.a(lib_a-stdio.o)
 .debug_line    0x000000000000b25f      0x160 /usr/local/xenon/xenon/lib/32/libc.a(lib_a-writer.o)
 .debug_line    0x000000000000b3bf      0x11d /usr/local/xenon/xenon/lib/32/libc.a(lib_a-callocr.o)
 .debug_line    0x000000000000b4dc      0x15e /usr/local/xenon/xenon/lib/32/libc.a(lib_a-closer.o)
 .debug_line    0x000000000000b63a      0x181 /usr/local/xenon/xenon/lib/32/libc.a(lib_a-fclose.o)
 .debug_line    0x000000000000b7bb      0x173 /usr/local/xenon/xenon/lib/32/libc.a(lib_a-fstatr.o)
 .debug_line    0x000000000000b92e      0x15f /usr/local/xenon/xenon/lib/32/libc.a(lib_a-isattyr.o)
 .debug_line    0x000000000000ba8d      0x160 /usr/local/xenon/xenon/lib/32/libc.a(lib_a-lseekr.o)
 .debug_line    0x000000000000bbed      0x15f /usr/local/xenon/xenon/lib/32/libc.a(lib_a-readr.o)

.debug_loc      0x0000000000000000    0x14573
 .debug_loc     0x0000000000000000       0x27 /usr/local/xenon/lib/gcc/xenon/4.4.0/../../../../xenon/lib/../lib/crt1.o
 .debug_loc     0x0000000000000027      0x13d main.o
 .debug_loc     0x0000000000000164      0x194 /usr/local/xenon/usr/lib/libxenon.a(console.o)
 .debug_loc     0x00000000000002f8       0xea /usr/local/xenon/usr/lib/libxenon.a(input.o)
 .debug_loc     0x00000000000003e2      0x5c2 /usr/local/xenon/usr/lib/libxenon.a(newlib.o)
 .debug_loc     0x00000000000009a4      0x214 /usr/local/xenon/usr/lib/libxenon.a(lib_malloc.o)
 .debug_loc     0x0000000000000bb8       0x80 /usr/local/xenon/usr/lib/libxenon.a(usbmain.o)
 .debug_loc     0x0000000000000c38      0x3af /usr/local/xenon/usr/lib/libxenon.a(xenon_smc.o)
 .debug_loc     0x0000000000000fe7       0x63 /usr/local/xenon/usr/lib/libxenon.a(xenon_uart.o)
 .debug_loc     0x000000000000104a      0x369 /usr/local/xenon/usr/lib/libxenon.a(xenos.o)
 .debug_loc     0x00000000000013b3       0x26 /usr/local/xenon/usr/lib/libxenon.a(io.o)
 .debug_loc     0x00000000000013d9      0x136 /usr/local/xenon/usr/lib/libxenon.a(time.o)
 .debug_loc     0x000000000000150f      0xece /usr/local/xenon/usr/lib/libxenon.a(ohci.o)
 .debug_loc     0x00000000000023dd      0xe0e /usr/local/xenon/usr/lib/libxenon.a(usbd.o)
 .debug_loc     0x00000000000031eb       0x7e /usr/local/xenon/usr/lib/libxenon.a(usbdevs.o)
 .debug_loc     0x0000000000003269      0x1b7 /usr/local/xenon/usr/lib/libxenon.a(usbhid.o)
 .debug_loc     0x0000000000003420      0x62b /usr/local/xenon/usr/lib/libxenon.a(usbhub.o)
 .debug_loc     0x0000000000003a4b      0x440 /usr/local/xenon/usr/lib/libxenon.a(usbmass.o)
 .debug_loc     0x0000000000003e8b      0x104 /usr/local/xenon/usr/lib/libxenon.a(xenon_gpio.o)
 .debug_loc     0x0000000000003f8f       0x6d /usr/local/xenon/usr/lib/libxenon.a(xenon_config.o)
 .debug_loc     0x0000000000003ffc      0x44b /usr/local/xenon/usr/lib/libxenon.a(diskio.o)
 .debug_loc     0x0000000000004447      0x354 /usr/local/xenon/usr/lib/libxenon.a(disk_rb.o)
 .debug_loc     0x000000000000479b     0x2660 /usr/local/xenon/usr/lib/libxenon.a(fat_rb.o)
 .debug_loc     0x0000000000006dfb      0xcb4 /usr/local/xenon/usr/lib/libxenon.a(file_rb.o)
 .debug_loc     0x0000000000007aaf      0x2ab /usr/local/xenon/usr/lib/libxenon.a(dir_rb.o)
 .debug_loc     0x0000000000007d5a      0x987 /usr/local/xenon/usr/lib/libxenon.a(iso9660.o)
 .debug_loc     0x00000000000086e1      0x1a5 /usr/local/xenon/usr/lib/libxenon.a(lib_queue.o)
 .debug_loc     0x0000000000008886      0x132 /usr/local/xenon/usr/lib/libxenon.a(usbctrl.o)
 .debug_loc     0x00000000000089b8      0x2ee /usr/local/xenon/usr/lib/libxenon.a(usbdebug.o)
 .debug_loc     0x0000000000008ca6      0x2a2 /usr/local/xenon/usr/lib/libxenon.a(unicode_rb.o)
 .debug_loc     0x0000000000008f48      0x53e /usr/local/xenon/usr/lib/libxenon.a(xenon_sfcx.o)
 .debug_loc     0x0000000000009486       0xfa /usr/local/xenon/xenon/lib/32/libc.a(lib_a-assert.o)
 .debug_loc     0x0000000000009580       0x61 /usr/local/xenon/xenon/lib/32/libc.a(lib_a-atoi.o)
 .debug_loc     0x00000000000095e1       0x14 /usr/local/xenon/xenon/lib/32/libc.a(lib_a-errno.o)
 .debug_loc     0x00000000000095f5       0x32 /usr/local/xenon/xenon/lib/32/libc.a(lib_a-exit.o)
 .debug_loc     0x0000000000009627       0x94 /usr/local/xenon/xenon/lib/32/libc.a(lib_a-fiprintf.o)
 .debug_loc     0x00000000000096bb       0x64 /usr/local/xenon/xenon/lib/32/libc.a(lib_a-malloc.o)
 .debug_loc     0x000000000000971f      0x88f /usr/local/xenon/xenon/lib/32/libc.a(lib_a-mallocr.o)
 .debug_loc     0x0000000000009fae       0xd6 /usr/local/xenon/xenon/lib/32/libc.a(lib_a-memchr.o)
 .debug_loc     0x000000000000a084       0x79 /usr/local/xenon/xenon/lib/32/libc.a(lib_a-memcmp.o)
 .debug_loc     0x000000000000a0fd       0xf2 /usr/local/xenon/xenon/lib/32/libc.a(lib_a-memcpy.o)
 .debug_loc     0x000000000000a1ef      0x108 /usr/local/xenon/xenon/lib/32/libc.a(lib_a-memset.o)
 .debug_loc     0x000000000000a2f7       0x8c /usr/local/xenon/xenon/lib/32/libc.a(lib_a-printf.o)
 .debug_loc     0x000000000000a383       0x6c /usr/local/xenon/xenon/lib/32/libc.a(lib_a-putchar.o)
 .debug_loc     0x000000000000a3ef      0x15d /usr/local/xenon/xenon/lib/32/libc.a(lib_a-putc.o)
 .debug_loc     0x000000000000a54c       0x96 /usr/local/xenon/xenon/lib/32/libc.a(lib_a-puts.o)
 .debug_loc     0x000000000000a5e2       0x28 /usr/local/xenon/xenon/lib/32/libc.a(lib_a-rand.o)
 .debug_loc     0x000000000000a60a       0x6e /usr/local/xenon/xenon/lib/32/libc.a(lib_a-sbrkr.o)
 .debug_loc     0x000000000000a678      0x211 /usr/local/xenon/xenon/lib/32/libc.a(lib_a-snprintf.o)
 .debug_loc     0x000000000000a889       0xaa /usr/local/xenon/xenon/lib/32/libc.a(lib_a-sprintf.o)
 .debug_loc     0x000000000000a933       0xd6 /usr/local/xenon/xenon/lib/32/libc.a(lib_a-strcasecmp.o)
 .debug_loc     0x000000000000aa09       0x6e /usr/local/xenon/xenon/lib/32/libc.a(lib_a-strcat.o)
 .debug_loc     0x000000000000aa77       0xc0 /usr/local/xenon/xenon/lib/32/libc.a(lib_a-strchr.o)
 .debug_loc     0x000000000000ab37       0x6e /usr/local/xenon/xenon/lib/32/libc.a(lib_a-strcmp.o)
 .debug_loc     0x000000000000aba5       0x5b /usr/local/xenon/xenon/lib/32/libc.a(lib_a-strcpy.o)
 .debug_loc     0x000000000000ac00       0xcd /usr/local/xenon/xenon/lib/32/libc.a(lib_a-strlcpy.o)
 .debug_loc     0x000000000000accd       0x3d /usr/local/xenon/xenon/lib/32/libc.a(lib_a-strlen.o)
 .debug_loc     0x000000000000ad0a       0xa2 /usr/local/xenon/xenon/lib/32/libc.a(lib_a-strncasecmp.o)
 .debug_loc     0x000000000000adac      0x110 /usr/local/xenon/xenon/lib/32/libc.a(lib_a-strncmp.o)
 .debug_loc     0x000000000000aebc      0x10b /usr/local/xenon/xenon/lib/32/libc.a(lib_a-strncpy.o)
 .debug_loc     0x000000000000afc7       0xb0 /usr/local/xenon/xenon/lib/32/libc.a(lib_a-strrchr.o)
 .debug_loc     0x000000000000b077      0x15a /usr/local/xenon/xenon/lib/32/libc.a(lib_a-strtok_r.o)
 .debug_loc     0x000000000000b1d1      0x25c /usr/local/xenon/xenon/lib/32/libc.a(lib_a-strtol.o)
 .debug_loc     0x000000000000b42d     0x1916 /usr/local/xenon/xenon/lib/32/libc.a(lib_a-svfprintf.o)
 .debug_loc     0x000000000000cd43      0xf7a /usr/local/xenon/xenon/lib/32/libc.a(lib_a-vfiprintf.o)
 .debug_loc     0x000000000000dcbd     0x18e3 /usr/local/xenon/xenon/lib/32/libc.a(lib_a-vfprintf.o)
 .debug_loc     0x000000000000f5a0      0x108 /usr/local/xenon/xenon/lib/32/libc.a(lib_a-wbuf.o)
 .debug_loc     0x000000000000f6a8       0x71 /usr/local/xenon/xenon/lib/32/libc.a(lib_a-wsetup.o)
 .debug_loc     0x000000000000f719       0x14 /usr/local/xenon/xenon/lib/32/libc.a(lib_a-abort.o)
 .debug_loc     0x000000000000f72d      0x181 /usr/local/xenon/xenon/lib/32/libc.a(lib_a-__call_atexit.o)
 .debug_loc     0x000000000000f8ae     0x1544 /usr/local/xenon/xenon/lib/32/libc.a(lib_a-dtoa.o)
 .debug_loc     0x0000000000010df2      0x1c8 /usr/local/xenon/xenon/lib/32/libc.a(lib_a-fflush.o)
 .debug_loc     0x0000000000010fba      0x280 /usr/local/xenon/xenon/lib/32/libc.a(lib_a-findfp.o)
 .debug_loc     0x000000000001123a      0x3aa /usr/local/xenon/xenon/lib/32/libc.a(lib_a-freer.o)
 .debug_loc     0x00000000000115e4      0x3a3 /usr/local/xenon/xenon/lib/32/libc.a(lib_a-fvwrite.o)
 .debug_loc     0x0000000000011987      0x122 /usr/local/xenon/xenon/lib/32/libc.a(lib_a-fwalk.o)
 .debug_loc     0x0000000000011aa9      0x15a /usr/local/xenon/xenon/lib/32/libc.a(lib_a-locale.o)
 .debug_loc     0x0000000000011c03      0x13a /usr/local/xenon/xenon/lib/32/libc.a(lib_a-makebuf.o)
 .debug_loc     0x0000000000011d3d      0x155 /usr/local/xenon/xenon/lib/32/libc.a(lib_a-memmove.o)
 .debug_loc     0x0000000000011e92     0x12ec /usr/local/xenon/xenon/lib/32/libc.a(lib_a-mprec.o)
 .debug_loc     0x000000000001317e      0x7ac /usr/local/xenon/xenon/lib/32/libc.a(lib_a-reallocr.o)
 .debug_loc     0x000000000001392a      0x137 /usr/local/xenon/xenon/lib/32/libc.a(lib_a-reent.o)
 .debug_loc     0x0000000000013a61      0x31d /usr/local/xenon/xenon/lib/32/libc.a(lib_a-signal.o)
 .debug_loc     0x0000000000013d7e       0xa8 /usr/local/xenon/xenon/lib/32/libc.a(lib_a-signalr.o)
 .debug_loc     0x0000000000013e26       0x53 /usr/local/xenon/xenon/lib/32/libc.a(lib_a-s_isinfd.o)
 .debug_loc     0x0000000000013e79       0x28 /usr/local/xenon/xenon/lib/32/libc.a(lib_a-s_isnand.o)
 .debug_loc     0x0000000000013ea1      0x1ee /usr/local/xenon/xenon/lib/32/libc.a(lib_a-stdio.o)
 .debug_loc     0x000000000001408f       0x94 /usr/local/xenon/xenon/lib/32/libc.a(lib_a-writer.o)
 .debug_loc     0x0000000000014123       0xe9 /usr/local/xenon/xenon/lib/32/libc.a(lib_a-callocr.o)
 .debug_loc     0x000000000001420c       0x6e /usr/local/xenon/xenon/lib/32/libc.a(lib_a-closer.o)
 .debug_loc     0x000000000001427a       0xe2 /usr/local/xenon/xenon/lib/32/libc.a(lib_a-fclose.o)
 .debug_loc     0x000000000001435c       0x81 /usr/local/xenon/xenon/lib/32/libc.a(lib_a-fstatr.o)
 .debug_loc     0x00000000000143dd       0x6e /usr/local/xenon/xenon/lib/32/libc.a(lib_a-isattyr.o)
 .debug_loc     0x000000000001444b       0x94 /usr/local/xenon/xenon/lib/32/libc.a(lib_a-lseekr.o)
 .debug_loc     0x00000000000144df       0x94 /usr/local/xenon/xenon/lib/32/libc.a(lib_a-readr.o)

.debug_pubnames
                0x0000000000000000     0x23a1
 .debug_pubnames
                0x0000000000000000       0x21 /usr/local/xenon/lib/gcc/xenon/4.4.0/../../../../xenon/lib/../lib/crt1.o
 .debug_pubnames
                0x0000000000000021      0x10e main.o
 .debug_pubnames
                0x000000000000012f       0x95 /usr/local/xenon/usr/lib/libxenon.a(console.o)
 .debug_pubnames
                0x00000000000001c4       0x42 /usr/local/xenon/usr/lib/libxenon.a(input.o)
 .debug_pubnames
                0x0000000000000206      0x14f /usr/local/xenon/usr/lib/libxenon.a(newlib.o)
 .debug_pubnames
                0x0000000000000355       0x94 /usr/local/xenon/usr/lib/libxenon.a(lib_malloc.o)
 .debug_pubnames
                0x00000000000003e9       0x20 /usr/local/xenon/usr/lib/libxenon.a(vm.o)
 .debug_pubnames
                0x0000000000000409       0x60 /usr/local/xenon/usr/lib/libxenon.a(usbmain.o)
 .debug_pubnames
                0x0000000000000469      0x184 /usr/local/xenon/usr/lib/libxenon.a(xenon_smc.o)
 .debug_pubnames
                0x00000000000005ed       0x30 /usr/local/xenon/usr/lib/libxenon.a(xenon_uart.o)
 .debug_pubnames
                0x000000000000061d      0x20a /usr/local/xenon/usr/lib/libxenon.a(xenos.o)
 .debug_pubnames
                0x0000000000000827       0x42 /usr/local/xenon/usr/lib/libxenon.a(io.o)
 .debug_pubnames
                0x0000000000000869       0x32 /usr/local/xenon/usr/lib/libxenon.a(time.o)
 .debug_pubnames
                0x000000000000089b       0x30 /usr/local/xenon/usr/lib/libxenon.a(ohci.o)
 .debug_pubnames
                0x00000000000008cb      0x2bf /usr/local/xenon/usr/lib/libxenon.a(usbd.o)
 .debug_pubnames
                0x0000000000000b8a       0x36 /usr/local/xenon/usr/lib/libxenon.a(usbdevs.o)
 .debug_pubnames
                0x0000000000000bc0       0x24 /usr/local/xenon/usr/lib/libxenon.a(usbhid.o)
 .debug_pubnames
                0x0000000000000be4       0x89 /usr/local/xenon/usr/lib/libxenon.a(usbhub.o)
 .debug_pubnames
                0x0000000000000c6d       0xa2 /usr/local/xenon/usr/lib/libxenon.a(usbmass.o)
 .debug_pubnames
                0x0000000000000d0f       0x52 /usr/local/xenon/usr/lib/libxenon.a(xenon_gpio.o)
 .debug_pubnames
                0x0000000000000d61       0x98 /usr/local/xenon/usr/lib/libxenon.a(xenon_config.o)
 .debug_pubnames
                0x0000000000000df9      0x124 /usr/local/xenon/usr/lib/libxenon.a(diskio.o)
 .debug_pubnames
                0x0000000000000f1d       0x85 /usr/local/xenon/usr/lib/libxenon.a(disk_rb.o)
 .debug_pubnames
                0x0000000000000fa2      0x15a /usr/local/xenon/usr/lib/libxenon.a(fat_rb.o)
 .debug_pubnames
                0x00000000000010fc       0xad /usr/local/xenon/usr/lib/libxenon.a(file_rb.o)
 .debug_pubnames
                0x00000000000011a9       0x6b /usr/local/xenon/usr/lib/libxenon.a(dir_rb.o)
 .debug_pubnames
                0x0000000000001214      0x103 /usr/local/xenon/usr/lib/libxenon.a(iso9660.o)
 .debug_pubnames
                0x0000000000001317       0x5d /usr/local/xenon/usr/lib/libxenon.a(lib_queue.o)
 .debug_pubnames
                0x0000000000001374       0x25 /usr/local/xenon/usr/lib/libxenon.a(usbctrl.o)
 .debug_pubnames
                0x0000000000001399       0x90 /usr/local/xenon/usr/lib/libxenon.a(usbdebug.o)
 .debug_pubnames
                0x0000000000001429       0x70 /usr/local/xenon/usr/lib/libxenon.a(unicode_rb.o)
 .debug_pubnames
                0x0000000000001499      0x1a1 /usr/local/xenon/usr/lib/libxenon.a(xenon_sfcx.o)
 .debug_pubnames
                0x000000000000163a       0x31 /usr/local/xenon/xenon/lib/32/libc.a(lib_a-assert.o)
 .debug_pubnames
                0x000000000000166b       0x27 /usr/local/xenon/xenon/lib/32/libc.a(lib_a-atoi.o)
 .debug_pubnames
                0x0000000000001692       0x40 /usr/local/xenon/xenon/lib/32/libc.a(lib_a-ctype_.o)
 .debug_pubnames
                0x00000000000016d2       0x1e /usr/local/xenon/xenon/lib/32/libc.a(lib_a-errno.o)
 .debug_pubnames
                0x00000000000016f0       0x1b /usr/local/xenon/xenon/lib/32/libc.a(lib_a-exit.o)
 .debug_pubnames
                0x000000000000170b       0x2f /usr/local/xenon/xenon/lib/32/libc.a(lib_a-fiprintf.o)
 .debug_pubnames
                0x000000000000173a       0x39 /usr/local/xenon/xenon/lib/32/libc.a(lib_a-impure.o)
 .debug_pubnames
                0x0000000000001773       0x26 /usr/local/xenon/xenon/lib/32/libc.a(lib_a-malloc.o)
 .debug_pubnames
                0x0000000000001799       0xce /usr/local/xenon/xenon/lib/32/libc.a(lib_a-mallocr.o)
 .debug_pubnames
                0x0000000000001867       0x1d /usr/local/xenon/xenon/lib/32/libc.a(lib_a-memchr.o)
 .debug_pubnames
                0x0000000000001884       0x1d /usr/local/xenon/xenon/lib/32/libc.a(lib_a-memcmp.o)
 .debug_pubnames
                0x00000000000018a1       0x1d /usr/local/xenon/xenon/lib/32/libc.a(lib_a-memcpy.o)
 .debug_pubnames
                0x00000000000018be       0x1d /usr/local/xenon/xenon/lib/32/libc.a(lib_a-memset.o)
 .debug_pubnames
                0x00000000000018db       0x38 /usr/local/xenon/xenon/lib/32/libc.a(lib_a-mlock.o)
 .debug_pubnames
                0x0000000000001913       0x2b /usr/local/xenon/xenon/lib/32/libc.a(lib_a-printf.o)
 .debug_pubnames
                0x000000000000193e       0x2d /usr/local/xenon/xenon/lib/32/libc.a(lib_a-putchar.o)
 .debug_pubnames
                0x000000000000196b       0x27 /usr/local/xenon/xenon/lib/32/libc.a(lib_a-putc.o)
 .debug_pubnames
                0x0000000000001992       0x27 /usr/local/xenon/xenon/lib/32/libc.a(lib_a-puts.o)
 .debug_pubnames
                0x00000000000019b9       0x25 /usr/local/xenon/xenon/lib/32/libc.a(lib_a-rand.o)
 .debug_pubnames
                0x00000000000019de       0x1e /usr/local/xenon/xenon/lib/32/libc.a(lib_a-sbrkr.o)
 .debug_pubnames
                0x00000000000019fc       0x2f /usr/local/xenon/xenon/lib/32/libc.a(lib_a-snprintf.o)
 .debug_pubnames
                0x0000000000001a2b       0x2d /usr/local/xenon/xenon/lib/32/libc.a(lib_a-sprintf.o)
 .debug_pubnames
                0x0000000000001a58       0x21 /usr/local/xenon/xenon/lib/32/libc.a(lib_a-strcasecmp.o)
 .debug_pubnames
                0x0000000000001a79       0x1d /usr/local/xenon/xenon/lib/32/libc.a(lib_a-strcat.o)
 .debug_pubnames
                0x0000000000001a96       0x1d /usr/local/xenon/xenon/lib/32/libc.a(lib_a-strchr.o)
 .debug_pubnames
                0x0000000000001ab3       0x1d /usr/local/xenon/xenon/lib/32/libc.a(lib_a-strcmp.o)
 .debug_pubnames
                0x0000000000001ad0       0x1d /usr/local/xenon/xenon/lib/32/libc.a(lib_a-strcpy.o)
 .debug_pubnames
                0x0000000000001aed       0x1e /usr/local/xenon/xenon/lib/32/libc.a(lib_a-strlcpy.o)
 .debug_pubnames
                0x0000000000001b0b       0x1d /usr/local/xenon/xenon/lib/32/libc.a(lib_a-strlen.o)
 .debug_pubnames
                0x0000000000001b28       0x22 /usr/local/xenon/xenon/lib/32/libc.a(lib_a-strncasecmp.o)
 .debug_pubnames
                0x0000000000001b4a       0x1e /usr/local/xenon/xenon/lib/32/libc.a(lib_a-strncmp.o)
 .debug_pubnames
                0x0000000000001b68       0x1e /usr/local/xenon/xenon/lib/32/libc.a(lib_a-strncpy.o)
 .debug_pubnames
                0x0000000000001b86       0x1e /usr/local/xenon/xenon/lib/32/libc.a(lib_a-strrchr.o)
 .debug_pubnames
                0x0000000000001ba4       0x2e /usr/local/xenon/xenon/lib/32/libc.a(lib_a-strtok_r.o)
 .debug_pubnames
                0x0000000000001bd2       0x2b /usr/local/xenon/xenon/lib/32/libc.a(lib_a-strtol.o)
 .debug_pubnames
                0x0000000000001bfd       0x23 /usr/local/xenon/xenon/lib/32/libc.a(lib_a-svfprintf.o)
 .debug_pubnames
                0x0000000000001c20       0x31 /usr/local/xenon/xenon/lib/32/libc.a(lib_a-vfiprintf.o)
 .debug_pubnames
                0x0000000000001c51       0x2f /usr/local/xenon/xenon/lib/32/libc.a(lib_a-vfprintf.o)
 .debug_pubnames
                0x0000000000001c80       0x2c /usr/local/xenon/xenon/lib/32/libc.a(lib_a-wbuf.o)
 .debug_pubnames
                0x0000000000001cac       0x22 /usr/local/xenon/xenon/lib/32/libc.a(lib_a-wsetup.o)
 .debug_pubnames
                0x0000000000001cce       0x1c /usr/local/xenon/xenon/lib/32/libc.a(lib_a-abort.o)
 .debug_pubnames
                0x0000000000001cea       0x27 /usr/local/xenon/xenon/lib/32/libc.a(lib_a-__call_atexit.o)
 .debug_pubnames
                0x0000000000001d11       0x1e /usr/local/xenon/xenon/lib/32/libc.a(lib_a-dtoa.o)
 .debug_pubnames
                0x0000000000001d2f       0x2b /usr/local/xenon/xenon/lib/32/libc.a(lib_a-fflush.o)
 .debug_pubnames
                0x0000000000001d5a       0xdb /usr/local/xenon/xenon/lib/32/libc.a(lib_a-findfp.o)
 .debug_pubnames
                0x0000000000001e35       0x31 /usr/local/xenon/xenon/lib/32/libc.a(lib_a-freer.o)
 .debug_pubnames
                0x0000000000001e66       0x23 /usr/local/xenon/xenon/lib/32/libc.a(lib_a-fvwrite.o)
 .debug_pubnames
                0x0000000000001e89       0x2e /usr/local/xenon/xenon/lib/32/libc.a(lib_a-fwalk.o)
 .debug_pubnames
                0x0000000000001eb7       0xc3 /usr/local/xenon/xenon/lib/32/libc.a(lib_a-locale.o)
 .debug_pubnames
                0x0000000000001f7a       0x23 /usr/local/xenon/xenon/lib/32/libc.a(lib_a-makebuf.o)
 .debug_pubnames
                0x0000000000001f9d       0x1e /usr/local/xenon/xenon/lib/32/libc.a(lib_a-memmove.o)
 .debug_pubnames
                0x0000000000001fbb      0x13a /usr/local/xenon/xenon/lib/32/libc.a(lib_a-mprec.o)
 .debug_pubnames
                0x00000000000020f5       0x21 /usr/local/xenon/xenon/lib/32/libc.a(lib_a-reallocr.o)
 .debug_pubnames
                0x0000000000002116       0x52 /usr/local/xenon/xenon/lib/32/libc.a(lib_a-reent.o)
 .debug_pubnames
                0x0000000000002168       0x86 /usr/local/xenon/xenon/lib/32/libc.a(lib_a-signal.o)
 .debug_pubnames
                0x00000000000021ee       0x2c /usr/local/xenon/xenon/lib/32/libc.a(lib_a-signalr.o)
 .debug_pubnames
                0x000000000000221a       0x1f /usr/local/xenon/xenon/lib/32/libc.a(lib_a-s_isinfd.o)
 .debug_pubnames
                0x0000000000002239       0x1f /usr/local/xenon/xenon/lib/32/libc.a(lib_a-s_isnand.o)
 .debug_pubnames
                0x0000000000002258       0x44 /usr/local/xenon/xenon/lib/32/libc.a(lib_a-stdio.o)
 .debug_pubnames
                0x000000000000229c       0x1f /usr/local/xenon/xenon/lib/32/libc.a(lib_a-writer.o)
 .debug_pubnames
                0x00000000000022bb       0x20 /usr/local/xenon/xenon/lib/32/libc.a(lib_a-callocr.o)
 .debug_pubnames
                0x00000000000022db       0x1f /usr/local/xenon/xenon/lib/32/libc.a(lib_a-closer.o)
 .debug_pubnames
                0x00000000000022fa       0x2b /usr/local/xenon/xenon/lib/32/libc.a(lib_a-fclose.o)
 .debug_pubnames
                0x0000000000002325       0x1f /usr/local/xenon/xenon/lib/32/libc.a(lib_a-fstatr.o)
 .debug_pubnames
                0x0000000000002344       0x20 /usr/local/xenon/xenon/lib/32/libc.a(lib_a-isattyr.o)
 .debug_pubnames
                0x0000000000002364       0x1f /usr/local/xenon/xenon/lib/32/libc.a(lib_a-lseekr.o)
 .debug_pubnames
                0x0000000000002383       0x1e /usr/local/xenon/xenon/lib/32/libc.a(lib_a-readr.o)

.debug_aranges  0x0000000000000000     0x1430
 .debug_aranges
                0x0000000000000000       0x20 /usr/local/xenon/lib/gcc/xenon/4.4.0/../../../../xenon/lib/../lib/crt1.o
 .debug_aranges
                0x0000000000000020       0x70 main.o
 .debug_aranges
                0x0000000000000090       0x50 /usr/local/xenon/usr/lib/libxenon.a(console.o)
 .debug_aranges
                0x00000000000000e0       0x28 /usr/local/xenon/usr/lib/libxenon.a(input.o)
 .debug_aranges
                0x0000000000000108       0xa8 /usr/local/xenon/usr/lib/libxenon.a(newlib.o)
 .debug_aranges
                0x00000000000001b0       0x58 /usr/local/xenon/usr/lib/libxenon.a(lib_malloc.o)
 .debug_aranges
                0x0000000000000208       0x30 /usr/local/xenon/usr/lib/libxenon.a(usbmain.o)
 .debug_aranges
                0x0000000000000238       0x88 /usr/local/xenon/usr/lib/libxenon.a(xenon_smc.o)
 .debug_aranges
                0x00000000000002c0       0x30 /usr/local/xenon/usr/lib/libxenon.a(xenon_uart.o)
 .debug_aranges
                0x00000000000002f0       0x80 /usr/local/xenon/usr/lib/libxenon.a(xenos.o)
 .debug_aranges
                0x0000000000000370       0x38 /usr/local/xenon/usr/lib/libxenon.a(io.o)
 .debug_aranges
                0x00000000000003a8       0x30 /usr/local/xenon/usr/lib/libxenon.a(time.o)
 .debug_aranges
                0x00000000000003d8       0x98 /usr/local/xenon/usr/lib/libxenon.a(ohci.o)
 .debug_aranges
                0x0000000000000470      0x110 /usr/local/xenon/usr/lib/libxenon.a(usbd.o)
 .debug_aranges
                0x0000000000000580       0x20 /usr/local/xenon/usr/lib/libxenon.a(usbdevs.o)
 .debug_aranges
                0x00000000000005a0       0x38 /usr/local/xenon/usr/lib/libxenon.a(usbhid.o)
 .debug_aranges
                0x00000000000005d8       0x78 /usr/local/xenon/usr/lib/libxenon.a(usbhub.o)
 .debug_aranges
                0x0000000000000650       0x50 /usr/local/xenon/usr/lib/libxenon.a(usbmass.o)
 .debug_aranges
                0x00000000000006a0       0x30 /usr/local/xenon/usr/lib/libxenon.a(xenon_gpio.o)
 .debug_aranges
                0x00000000000006d0       0x38 /usr/local/xenon/usr/lib/libxenon.a(xenon_config.o)
 .debug_aranges
                0x0000000000000708       0x80 /usr/local/xenon/usr/lib/libxenon.a(diskio.o)
 .debug_aranges
                0x0000000000000788       0x48 /usr/local/xenon/usr/lib/libxenon.a(disk_rb.o)
 .debug_aranges
                0x00000000000007d0      0x138 /usr/local/xenon/usr/lib/libxenon.a(fat_rb.o)
 .debug_aranges
                0x0000000000000908       0x88 /usr/local/xenon/usr/lib/libxenon.a(file_rb.o)
 .debug_aranges
                0x0000000000000990       0x48 /usr/local/xenon/usr/lib/libxenon.a(dir_rb.o)
 .debug_aranges
                0x00000000000009d8       0x88 /usr/local/xenon/usr/lib/libxenon.a(iso9660.o)
 .debug_aranges
                0x0000000000000a60       0x48 /usr/local/xenon/usr/lib/libxenon.a(lib_queue.o)
 .debug_aranges
                0x0000000000000aa8       0x30 /usr/local/xenon/usr/lib/libxenon.a(usbctrl.o)
 .debug_aranges
                0x0000000000000ad8       0x48 /usr/local/xenon/usr/lib/libxenon.a(usbdebug.o)
 .debug_aranges
                0x0000000000000b20       0x48 /usr/local/xenon/usr/lib/libxenon.a(unicode_rb.o)
 .debug_aranges
                0x0000000000000b68       0xa8 /usr/local/xenon/usr/lib/libxenon.a(xenon_sfcx.o)
 .debug_aranges
                0x0000000000000c10       0x20 /usr/local/xenon/xenon/lib/32/libc.a(lib_a-assert.o)
 .debug_aranges
                0x0000000000000c30       0x20 /usr/local/xenon/xenon/lib/32/libc.a(lib_a-atoi.o)
 .debug_aranges
                0x0000000000000c50       0x20 /usr/local/xenon/xenon/lib/32/libc.a(lib_a-errno.o)
 .debug_aranges
                0x0000000000000c70       0x20 /usr/local/xenon/xenon/lib/32/libc.a(lib_a-exit.o)
 .debug_aranges
                0x0000000000000c90       0x20 /usr/local/xenon/xenon/lib/32/libc.a(lib_a-fiprintf.o)
 .debug_aranges
                0x0000000000000cb0       0x20 /usr/local/xenon/xenon/lib/32/libc.a(lib_a-malloc.o)
 .debug_aranges
                0x0000000000000cd0       0x20 /usr/local/xenon/xenon/lib/32/libc.a(lib_a-mallocr.o)
 .debug_aranges
                0x0000000000000cf0       0x20 /usr/local/xenon/xenon/lib/32/libc.a(lib_a-memchr.o)
 .debug_aranges
                0x0000000000000d10       0x20 /usr/local/xenon/xenon/lib/32/libc.a(lib_a-memcmp.o)
 .debug_aranges
                0x0000000000000d30       0x20 /usr/local/xenon/xenon/lib/32/libc.a(lib_a-memcpy.o)
 .debug_aranges
                0x0000000000000d50       0x20 /usr/local/xenon/xenon/lib/32/libc.a(lib_a-memset.o)
 .debug_aranges
                0x0000000000000d70       0x20 /usr/local/xenon/xenon/lib/32/libc.a(lib_a-mlock.o)
 .debug_aranges
                0x0000000000000d90       0x20 /usr/local/xenon/xenon/lib/32/libc.a(lib_a-printf.o)
 .debug_aranges
                0x0000000000000db0       0x20 /usr/local/xenon/xenon/lib/32/libc.a(lib_a-putchar.o)
 .debug_aranges
                0x0000000000000dd0       0x20 /usr/local/xenon/xenon/lib/32/libc.a(lib_a-putc.o)
 .debug_aranges
                0x0000000000000df0       0x20 /usr/local/xenon/xenon/lib/32/libc.a(lib_a-puts.o)
 .debug_aranges
                0x0000000000000e10       0x20 /usr/local/xenon/xenon/lib/32/libc.a(lib_a-rand.o)
 .debug_aranges
                0x0000000000000e30       0x20 /usr/local/xenon/xenon/lib/32/libc.a(lib_a-sbrkr.o)
 .debug_aranges
                0x0000000000000e50       0x20 /usr/local/xenon/xenon/lib/32/libc.a(lib_a-snprintf.o)
 .debug_aranges
                0x0000000000000e70       0x20 /usr/local/xenon/xenon/lib/32/libc.a(lib_a-sprintf.o)
 .debug_aranges
                0x0000000000000e90       0x20 /usr/local/xenon/xenon/lib/32/libc.a(lib_a-strcasecmp.o)
 .debug_aranges
                0x0000000000000eb0       0x20 /usr/local/xenon/xenon/lib/32/libc.a(lib_a-strcat.o)
 .debug_aranges
                0x0000000000000ed0       0x20 /usr/local/xenon/xenon/lib/32/libc.a(lib_a-strchr.o)
 .debug_aranges
                0x0000000000000ef0       0x20 /usr/local/xenon/xenon/lib/32/libc.a(lib_a-strcmp.o)
 .debug_aranges
                0x0000000000000f10       0x20 /usr/local/xenon/xenon/lib/32/libc.a(lib_a-strcpy.o)
 .debug_aranges
                0x0000000000000f30       0x20 /usr/local/xenon/xenon/lib/32/libc.a(lib_a-strlcpy.o)
 .debug_aranges
                0x0000000000000f50       0x20 /usr/local/xenon/xenon/lib/32/libc.a(lib_a-strlen.o)
 .debug_aranges
                0x0000000000000f70       0x20 /usr/local/xenon/xenon/lib/32/libc.a(lib_a-strncasecmp.o)
 .debug_aranges
                0x0000000000000f90       0x20 /usr/local/xenon/xenon/lib/32/libc.a(lib_a-strncmp.o)
 .debug_aranges
                0x0000000000000fb0       0x20 /usr/local/xenon/xenon/lib/32/libc.a(lib_a-strncpy.o)
 .debug_aranges
                0x0000000000000fd0       0x20 /usr/local/xenon/xenon/lib/32/libc.a(lib_a-strrchr.o)
 .debug_aranges
                0x0000000000000ff0       0x20 /usr/local/xenon/xenon/lib/32/libc.a(lib_a-strtok_r.o)
 .debug_aranges
                0x0000000000001010       0x20 /usr/local/xenon/xenon/lib/32/libc.a(lib_a-strtol.o)
 .debug_aranges
                0x0000000000001030       0x20 /usr/local/xenon/xenon/lib/32/libc.a(lib_a-svfprintf.o)
 .debug_aranges
                0x0000000000001050       0x20 /usr/local/xenon/xenon/lib/32/libc.a(lib_a-vfiprintf.o)
 .debug_aranges
                0x0000000000001070       0x20 /usr/local/xenon/xenon/lib/32/libc.a(lib_a-vfprintf.o)
 .debug_aranges
                0x0000000000001090       0x20 /usr/local/xenon/xenon/lib/32/libc.a(lib_a-wbuf.o)
 .debug_aranges
                0x00000000000010b0       0x20 /usr/local/xenon/xenon/lib/32/libc.a(lib_a-wsetup.o)
 .debug_aranges
                0x00000000000010d0       0x20 /usr/local/xenon/xenon/lib/32/libc.a(lib_a-abort.o)
 .debug_aranges
                0x00000000000010f0       0x20 /usr/local/xenon/xenon/lib/32/libc.a(lib_a-__call_atexit.o)
 .debug_aranges
                0x0000000000001110       0x20 /usr/local/xenon/xenon/lib/32/libc.a(lib_a-dtoa.o)
 .debug_aranges
                0x0000000000001130       0x20 /usr/local/xenon/xenon/lib/32/libc.a(lib_a-fflush.o)
 .debug_aranges
                0x0000000000001150       0x20 /usr/local/xenon/xenon/lib/32/libc.a(lib_a-findfp.o)
 .debug_aranges
                0x0000000000001170       0x20 /usr/local/xenon/xenon/lib/32/libc.a(lib_a-freer.o)
 .debug_aranges
                0x0000000000001190       0x20 /usr/local/xenon/xenon/lib/32/libc.a(lib_a-fvwrite.o)
 .debug_aranges
                0x00000000000011b0       0x20 /usr/local/xenon/xenon/lib/32/libc.a(lib_a-fwalk.o)
 .debug_aranges
                0x00000000000011d0       0x20 /usr/local/xenon/xenon/lib/32/libc.a(lib_a-locale.o)
 .debug_aranges
                0x00000000000011f0       0x20 /usr/local/xenon/xenon/lib/32/libc.a(lib_a-makebuf.o)
 .debug_aranges
                0x0000000000001210       0x20 /usr/local/xenon/xenon/lib/32/libc.a(lib_a-memmove.o)
 .debug_aranges
                0x0000000000001230       0x20 /usr/local/xenon/xenon/lib/32/libc.a(lib_a-mprec.o)
 .debug_aranges
                0x0000000000001250       0x20 /usr/local/xenon/xenon/lib/32/libc.a(lib_a-reallocr.o)
 .debug_aranges
                0x0000000000001270       0x20 /usr/local/xenon/xenon/lib/32/libc.a(lib_a-reent.o)
 .debug_aranges
                0x0000000000001290       0x20 /usr/local/xenon/xenon/lib/32/libc.a(lib_a-signal.o)
 .debug_aranges
                0x00000000000012b0       0x20 /usr/local/xenon/xenon/lib/32/libc.a(lib_a-signalr.o)
 .debug_aranges
                0x00000000000012d0       0x20 /usr/local/xenon/xenon/lib/32/libc.a(lib_a-s_isinfd.o)
 .debug_aranges
                0x00000000000012f0       0x20 /usr/local/xenon/xenon/lib/32/libc.a(lib_a-s_isnand.o)
 .debug_aranges
                0x0000000000001310       0x20 /usr/local/xenon/xenon/lib/32/libc.a(lib_a-stdio.o)
 .debug_aranges
                0x0000000000001330       0x20 /usr/local/xenon/xenon/lib/32/libc.a(lib_a-writer.o)
 .debug_aranges
                0x0000000000001350       0x20 /usr/local/xenon/xenon/lib/32/libc.a(lib_a-callocr.o)
 .debug_aranges
                0x0000000000001370       0x20 /usr/local/xenon/xenon/lib/32/libc.a(lib_a-closer.o)
 .debug_aranges
                0x0000000000001390       0x20 /usr/local/xenon/xenon/lib/32/libc.a(lib_a-fclose.o)
 .debug_aranges
                0x00000000000013b0       0x20 /usr/local/xenon/xenon/lib/32/libc.a(lib_a-fstatr.o)
 .debug_aranges
                0x00000000000013d0       0x20 /usr/local/xenon/xenon/lib/32/libc.a(lib_a-isattyr.o)
 .debug_aranges
                0x00000000000013f0       0x20 /usr/local/xenon/xenon/lib/32/libc.a(lib_a-lseekr.o)
 .debug_aranges
                0x0000000000001410       0x20 /usr/local/xenon/xenon/lib/32/libc.a(lib_a-readr.o)

.debug_ranges   0x0000000000000000     0x21a0
 .debug_ranges  0x0000000000000000       0x18 /usr/local/xenon/lib/gcc/xenon/4.4.0/../../../../xenon/lib/../lib/crt1.o
 .debug_ranges  0x0000000000000018       0x98 main.o
 .debug_ranges  0x00000000000000b0      0x1e8 /usr/local/xenon/usr/lib/libxenon.a(console.o)
 .debug_ranges  0x0000000000000298       0x20 /usr/local/xenon/usr/lib/libxenon.a(input.o)
 .debug_ranges  0x00000000000002b8      0x148 /usr/local/xenon/usr/lib/libxenon.a(newlib.o)
 .debug_ranges  0x0000000000000400       0xa0 /usr/local/xenon/usr/lib/libxenon.a(lib_malloc.o)
 .debug_ranges  0x00000000000004a0       0x28 /usr/local/xenon/usr/lib/libxenon.a(usbmain.o)
 .debug_ranges  0x00000000000004c8       0x80 /usr/local/xenon/usr/lib/libxenon.a(xenon_smc.o)
 .debug_ranges  0x0000000000000548       0x28 /usr/local/xenon/usr/lib/libxenon.a(xenon_uart.o)
 .debug_ranges  0x0000000000000570       0xc8 /usr/local/xenon/usr/lib/libxenon.a(xenos.o)
 .debug_ranges  0x0000000000000638       0x30 /usr/local/xenon/usr/lib/libxenon.a(io.o)
 .debug_ranges  0x0000000000000668       0xe8 /usr/local/xenon/usr/lib/libxenon.a(time.o)
 .debug_ranges  0x0000000000000750      0x5a0 /usr/local/xenon/usr/lib/libxenon.a(ohci.o)
 .debug_ranges  0x0000000000000cf0      0x120 /usr/local/xenon/usr/lib/libxenon.a(usbd.o)
 .debug_ranges  0x0000000000000e10       0x18 /usr/local/xenon/usr/lib/libxenon.a(usbdevs.o)
 .debug_ranges  0x0000000000000e28       0x30 /usr/local/xenon/usr/lib/libxenon.a(usbhid.o)
 .debug_ranges  0x0000000000000e58       0xb0 /usr/local/xenon/usr/lib/libxenon.a(usbhub.o)
 .debug_ranges  0x0000000000000f08       0x60 /usr/local/xenon/usr/lib/libxenon.a(usbmass.o)
 .debug_ranges  0x0000000000000f68       0x28 /usr/local/xenon/usr/lib/libxenon.a(xenon_gpio.o)
 .debug_ranges  0x0000000000000f90       0x30 /usr/local/xenon/usr/lib/libxenon.a(xenon_config.o)
 .debug_ranges  0x0000000000000fc0       0x78 /usr/local/xenon/usr/lib/libxenon.a(diskio.o)
 .debug_ranges  0x0000000000001038       0x68 /usr/local/xenon/usr/lib/libxenon.a(disk_rb.o)
 .debug_ranges  0x00000000000010a0      0x4e0 /usr/local/xenon/usr/lib/libxenon.a(fat_rb.o)
 .debug_ranges  0x0000000000001580       0x80 /usr/local/xenon/usr/lib/libxenon.a(file_rb.o)
 .debug_ranges  0x0000000000001600       0x58 /usr/local/xenon/usr/lib/libxenon.a(dir_rb.o)
 .debug_ranges  0x0000000000001658      0x3f0 /usr/local/xenon/usr/lib/libxenon.a(iso9660.o)
 .debug_ranges  0x0000000000001a48       0x40 /usr/local/xenon/usr/lib/libxenon.a(lib_queue.o)
 .debug_ranges  0x0000000000001a88       0x98 /usr/local/xenon/usr/lib/libxenon.a(usbctrl.o)
 .debug_ranges  0x0000000000001b20       0x40 /usr/local/xenon/usr/lib/libxenon.a(usbdebug.o)
 .debug_ranges  0x0000000000001b60       0x40 /usr/local/xenon/usr/lib/libxenon.a(unicode_rb.o)
 .debug_ranges  0x0000000000001ba0       0xa0 /usr/local/xenon/usr/lib/libxenon.a(xenon_sfcx.o)
 .debug_ranges  0x0000000000001c40       0x50 /usr/local/xenon/xenon/lib/32/libc.a(lib_a-mallocr.o)
 .debug_ranges  0x0000000000001c90       0x18 /usr/local/xenon/xenon/lib/32/libc.a(lib_a-strcasecmp.o)
 .debug_ranges  0x0000000000001ca8       0x18 /usr/local/xenon/xenon/lib/32/libc.a(lib_a-strncasecmp.o)
 .debug_ranges  0x0000000000001cc0      0x188 /usr/local/xenon/xenon/lib/32/libc.a(lib_a-svfprintf.o)
 .debug_ranges  0x0000000000001e48       0x30 /usr/local/xenon/xenon/lib/32/libc.a(lib_a-vfiprintf.o)
 .debug_ranges  0x0000000000001e78      0x190 /usr/local/xenon/xenon/lib/32/libc.a(lib_a-vfprintf.o)
 .debug_ranges  0x0000000000002008       0x30 /usr/local/xenon/xenon/lib/32/libc.a(lib_a-__call_atexit.o)
 .debug_ranges  0x0000000000002038       0x50 /usr/local/xenon/xenon/lib/32/libc.a(lib_a-fflush.o)
 .debug_ranges  0x0000000000002088       0x20 /usr/local/xenon/xenon/lib/32/libc.a(lib_a-fvwrite.o)
 .debug_ranges  0x00000000000020a8       0x60 /usr/local/xenon/xenon/lib/32/libc.a(lib_a-fwalk.o)
 .debug_ranges  0x0000000000002108       0x80 /usr/local/xenon/xenon/lib/32/libc.a(lib_a-reallocr.o)
 .debug_ranges  0x0000000000002188       0x18 /usr/local/xenon/xenon/lib/32/libc.a(lib_a-callocr.o)

.debug_str      0x0000000000000000     0x5c2b
 .debug_str     0x0000000000000000       0x7d /usr/local/xenon/lib/gcc/xenon/4.4.0/../../../../xenon/lib/../lib/crt1.o
 .debug_str     0x000000000000007d      0x340 main.o
                                        0x3dc (size before relaxing)
 .debug_str     0x00000000000003bd      0x18b /usr/local/xenon/usr/lib/libxenon.a(console.o)
                                        0x27d (size before relaxing)
 .debug_str     0x0000000000000548       0x44 /usr/local/xenon/usr/lib/libxenon.a(input.o)
                                         0xf4 (size before relaxing)
 .debug_str     0x000000000000058c      0x264 /usr/local/xenon/usr/lib/libxenon.a(newlib.o)
                                        0x3db (size before relaxing)
 .debug_str     0x00000000000007f0      0x1aa /usr/local/xenon/usr/lib/libxenon.a(lib_malloc.o)
                                        0x2a8 (size before relaxing)
 .debug_str     0x000000000000099a       0x21 /usr/local/xenon/usr/lib/libxenon.a(vm.o)
                                         0xe4 (size before relaxing)
 .debug_str     0x00000000000009bb      0x4fd /usr/local/xenon/usr/lib/libxenon.a(usbmain.o)
                                        0x5e6 (size before relaxing)
 .debug_str     0x0000000000000eb8      0x16c /usr/local/xenon/usr/lib/libxenon.a(xenon_smc.o)
                                        0x265 (size before relaxing)
 .debug_str     0x0000000000001024       0x32 /usr/local/xenon/usr/lib/libxenon.a(xenon_uart.o)
                                        0x102 (size before relaxing)
 .debug_str     0x0000000000001056      0x2e7 /usr/local/xenon/usr/lib/libxenon.a(xenos.o)
                                        0x3ea (size before relaxing)
 .debug_str     0x000000000000133d       0x28 /usr/local/xenon/usr/lib/libxenon.a(io.o)
                                         0xff (size before relaxing)
 .debug_str     0x0000000000001365       0x3d /usr/local/xenon/usr/lib/libxenon.a(time.o)
                                        0x106 (size before relaxing)
 .debug_str     0x00000000000013a2      0x847 /usr/local/xenon/usr/lib/libxenon.a(ohci.o)
                                        0xea3 (size before relaxing)
 .debug_str     0x0000000000001be9      0x378 /usr/local/xenon/usr/lib/libxenon.a(usbd.o)
                                        0xa8b (size before relaxing)
 .debug_str     0x0000000000001f61       0xc7 /usr/local/xenon/usr/lib/libxenon.a(usbdevs.o)
                                        0x6c7 (size before relaxing)
 .debug_str     0x0000000000002028      0x172 /usr/local/xenon/usr/lib/libxenon.a(usbhid.o)
                                        0x885 (size before relaxing)
 .debug_str     0x000000000000219a      0x26c /usr/local/xenon/usr/lib/libxenon.a(usbhub.o)
                                        0xb37 (size before relaxing)
 .debug_str     0x0000000000002406      0x30d /usr/local/xenon/usr/lib/libxenon.a(usbmass.o)
                                        0xa68 (size before relaxing)
 .debug_str     0x0000000000002713       0x59 /usr/local/xenon/usr/lib/libxenon.a(xenon_gpio.o)
                                        0x122 (size before relaxing)
 .debug_str     0x000000000000276c      0x2b8 /usr/local/xenon/usr/lib/libxenon.a(xenon_config.o)
                                        0x3bc (size before relaxing)
 .debug_str     0x0000000000002a24       0xf8 /usr/local/xenon/usr/lib/libxenon.a(diskio.o)
                                        0x3b1 (size before relaxing)
 .debug_str     0x0000000000002b1c       0xda /usr/local/xenon/usr/lib/libxenon.a(disk_rb.o)
                                        0x20c (size before relaxing)
 .debug_str     0x0000000000002bf6      0x712 /usr/local/xenon/usr/lib/libxenon.a(fat_rb.o)
                                        0x8db (size before relaxing)
 .debug_str     0x0000000000003308      0x187 /usr/local/xenon/usr/lib/libxenon.a(file_rb.o)
                                        0x39e (size before relaxing)
 .debug_str     0x000000000000348f       0x73 /usr/local/xenon/usr/lib/libxenon.a(dir_rb.o)
                                        0x2aa (size before relaxing)
 .debug_str     0x0000000000003502      0x30d /usr/local/xenon/usr/lib/libxenon.a(iso9660.o)
                                        0x64e (size before relaxing)
 .debug_str     0x000000000000380f       0x5e /usr/local/xenon/usr/lib/libxenon.a(lib_queue.o)
                                        0x140 (size before relaxing)
 .debug_str     0x000000000000386d       0xa8 /usr/local/xenon/usr/lib/libxenon.a(usbctrl.o)
                                        0x862 (size before relaxing)
 .debug_str     0x0000000000003915      0x146 /usr/local/xenon/usr/lib/libxenon.a(usbdebug.o)
                                        0x8f0 (size before relaxing)
 .debug_str     0x0000000000003a5b       0x7a /usr/local/xenon/usr/lib/libxenon.a(unicode_rb.o)
                                        0x151 (size before relaxing)
 .debug_str     0x0000000000003ad5      0x165 /usr/local/xenon/usr/lib/libxenon.a(xenon_sfcx.o)
                                        0x33f (size before relaxing)
 .debug_str     0x0000000000003c3a      0x3c7 /usr/local/xenon/xenon/lib/32/libc.a(lib_a-assert.o)
                                        0x4fe (size before relaxing)
 .debug_str     0x0000000000004001       0x47 /usr/local/xenon/xenon/lib/32/libc.a(lib_a-atoi.o)
                                        0x4cc (size before relaxing)
 .debug_str     0x0000000000004048       0x8f /usr/local/xenon/xenon/lib/32/libc.a(lib_a-ctype_.o)
                                         0xae (size before relaxing)
 .debug_str     0x00000000000040d7       0x82 /usr/local/xenon/xenon/lib/32/libc.a(lib_a-errno.o)
                                        0x4d2 (size before relaxing)
 .debug_str     0x0000000000004159       0x4d /usr/local/xenon/xenon/lib/32/libc.a(lib_a-exit.o)
                                        0x4dc (size before relaxing)
 .debug_str     0x00000000000041a6       0xc6 /usr/local/xenon/xenon/lib/32/libc.a(lib_a-fiprintf.o)
                                        0x535 (size before relaxing)
 .debug_str     0x000000000000426c       0x87 /usr/local/xenon/xenon/lib/32/libc.a(lib_a-impure.o)
                                        0x4ea (size before relaxing)
 .debug_str     0x00000000000042f3       0x48 /usr/local/xenon/xenon/lib/32/libc.a(lib_a-malloc.o)
                                        0x4ec (size before relaxing)
 .debug_str     0x000000000000433b      0x203 /usr/local/xenon/xenon/lib/32/libc.a(lib_a-mallocr.o)
                                        0x6c1 (size before relaxing)
 .debug_str     0x000000000000453e       0x92 /usr/local/xenon/xenon/lib/32/libc.a(lib_a-memchr.o)
                                        0x13a (size before relaxing)
 .debug_str     0x00000000000045d0       0x43 /usr/local/xenon/xenon/lib/32/libc.a(lib_a-memcmp.o)
                                        0x120 (size before relaxing)
 .debug_str     0x0000000000004613       0x6a /usr/local/xenon/xenon/lib/32/libc.a(lib_a-memcpy.o)
                                        0x147 (size before relaxing)
 .debug_str     0x000000000000467d       0x50 /usr/local/xenon/xenon/lib/32/libc.a(lib_a-memset.o)
                                        0x134 (size before relaxing)
 .debug_str     0x00000000000046cd       0x6e /usr/local/xenon/xenon/lib/32/libc.a(lib_a-mlock.o)
                                        0x4f3 (size before relaxing)
 .debug_str     0x000000000000473b       0x45 /usr/local/xenon/xenon/lib/32/libc.a(lib_a-printf.o)
                                        0x52a (size before relaxing)
 .debug_str     0x0000000000004780       0x4f /usr/local/xenon/xenon/lib/32/libc.a(lib_a-putchar.o)
                                        0x4df (size before relaxing)
 .debug_str     0x00000000000047cf       0x46 /usr/local/xenon/xenon/lib/32/libc.a(lib_a-putc.o)
                                        0x4e2 (size before relaxing)
 .debug_str     0x0000000000004815       0x82 /usr/local/xenon/xenon/lib/32/libc.a(lib_a-puts.o)
                                        0x519 (size before relaxing)
 .debug_str     0x0000000000004897       0x40 /usr/local/xenon/xenon/lib/32/libc.a(lib_a-rand.o)
                                        0x4db (size before relaxing)
 .debug_str     0x00000000000048d7       0x42 /usr/local/xenon/xenon/lib/32/libc.a(lib_a-sbrkr.o)
                                        0x4db (size before relaxing)
 .debug_str     0x0000000000004919       0x52 /usr/local/xenon/xenon/lib/32/libc.a(lib_a-snprintf.o)
                                        0x541 (size before relaxing)
 .debug_str     0x000000000000496b       0x4f /usr/local/xenon/xenon/lib/32/libc.a(lib_a-sprintf.o)
                                        0x532 (size before relaxing)
 .debug_str     0x00000000000049ba       0x4b /usr/local/xenon/xenon/lib/32/libc.a(lib_a-strcasecmp.o)
                                        0x12f (size before relaxing)
 .debug_str     0x0000000000004a05       0x4e /usr/local/xenon/xenon/lib/32/libc.a(lib_a-strcat.o)
                                        0x124 (size before relaxing)
 .debug_str     0x0000000000004a53       0x43 /usr/local/xenon/xenon/lib/32/libc.a(lib_a-strchr.o)
                                        0x12b (size before relaxing)
 .debug_str     0x0000000000004a96       0x43 /usr/local/xenon/xenon/lib/32/libc.a(lib_a-strcmp.o)
                                        0x119 (size before relaxing)
 .debug_str     0x0000000000004ad9       0x43 /usr/local/xenon/xenon/lib/32/libc.a(lib_a-strcpy.o)
                                        0x13b (size before relaxing)
 .debug_str     0x0000000000004b1c       0x45 /usr/local/xenon/xenon/lib/32/libc.a(lib_a-strlcpy.o)
                                        0x122 (size before relaxing)
 .debug_str     0x0000000000004b61       0x43 /usr/local/xenon/xenon/lib/32/libc.a(lib_a-strlen.o)
                                        0x133 (size before relaxing)
 .debug_str     0x0000000000004ba4       0x4d /usr/local/xenon/xenon/lib/32/libc.a(lib_a-strncasecmp.o)
                                        0x138 (size before relaxing)
 .debug_str     0x0000000000004bf1       0x45 /usr/local/xenon/xenon/lib/32/libc.a(lib_a-strncmp.o)
                                        0x122 (size before relaxing)
 .debug_str     0x0000000000004c36       0x45 /usr/local/xenon/xenon/lib/32/libc.a(lib_a-strncpy.o)
                                        0x14a (size before relaxing)
 .debug_str     0x0000000000004c7b       0x45 /usr/local/xenon/xenon/lib/32/libc.a(lib_a-strrchr.o)
                                        0x120 (size before relaxing)
 .debug_str     0x0000000000004cc0       0x6d /usr/local/xenon/xenon/lib/32/libc.a(lib_a-strtok_r.o)
                                        0x152 (size before relaxing)
 .debug_str     0x0000000000004d2d       0x5b /usr/local/xenon/xenon/lib/32/libc.a(lib_a-strtol.o)
                                        0x510 (size before relaxing)
 .debug_str     0x0000000000004d88      0x143 /usr/local/xenon/xenon/lib/32/libc.a(lib_a-svfprintf.o)
                                        0x6b1 (size before relaxing)
 .debug_str     0x0000000000004ecb       0x27 /usr/local/xenon/xenon/lib/32/libc.a(lib_a-vfiprintf.o)
                                        0x641 (size before relaxing)
 .debug_str     0x0000000000004ef2       0x15 /usr/local/xenon/xenon/lib/32/libc.a(lib_a-vfprintf.o)
                                        0x6d2 (size before relaxing)
 .debug_str     0x0000000000004f07       0x4b /usr/local/xenon/xenon/lib/32/libc.a(lib_a-wbuf.o)
                                        0x4e0 (size before relaxing)
 .debug_str     0x0000000000004f52       0x47 /usr/local/xenon/xenon/lib/32/libc.a(lib_a-wsetup.o)
                                        0x4dc (size before relaxing)
 .debug_str     0x0000000000004f99       0x41 /usr/local/xenon/xenon/lib/32/libc.a(lib_a-abort.o)
                                        0x117 (size before relaxing)
 .debug_str     0x0000000000004fda       0x5a /usr/local/xenon/xenon/lib/32/libc.a(lib_a-__call_atexit.o)
                                        0x504 (size before relaxing)
 .debug_str     0x0000000000005034       0xfd /usr/local/xenon/xenon/lib/32/libc.a(lib_a-dtoa.o)
                                        0x5d1 (size before relaxing)
 .debug_str     0x0000000000005131       0x53 /usr/local/xenon/xenon/lib/32/libc.a(lib_a-fflush.o)
                                        0x502 (size before relaxing)
 .debug_str     0x0000000000005184       0xfd /usr/local/xenon/xenon/lib/32/libc.a(lib_a-findfp.o)
                                        0x5c4 (size before relaxing)
 .debug_str     0x0000000000005281       0x36 /usr/local/xenon/xenon/lib/32/libc.a(lib_a-freer.o)
                                        0x613 (size before relaxing)
 .debug_str     0x00000000000052b7       0x58 /usr/local/xenon/xenon/lib/32/libc.a(lib_a-fvwrite.o)
                                        0x533 (size before relaxing)
 .debug_str     0x000000000000530f       0x5f /usr/local/xenon/xenon/lib/32/libc.a(lib_a-fwalk.o)
                                        0x505 (size before relaxing)
 .debug_str     0x000000000000536e      0x1db /usr/local/xenon/xenon/lib/32/libc.a(lib_a-locale.o)
                                        0x679 (size before relaxing)
 .debug_str     0x0000000000005549       0x54 /usr/local/xenon/xenon/lib/32/libc.a(lib_a-makebuf.o)
                                        0x5d6 (size before relaxing)
 .debug_str     0x000000000000559d       0x4e /usr/local/xenon/xenon/lib/32/libc.a(lib_a-memmove.o)
                                        0x153 (size before relaxing)
 .debug_str     0x00000000000055eb       0xf9 /usr/local/xenon/xenon/lib/32/libc.a(lib_a-mprec.o)
                                        0x5de (size before relaxing)
 .debug_str     0x00000000000056e4       0x54 /usr/local/xenon/xenon/lib/32/libc.a(lib_a-reallocr.o)
                                        0x593 (size before relaxing)
 .debug_str     0x0000000000005738       0x74 /usr/local/xenon/xenon/lib/32/libc.a(lib_a-reent.o)
                                        0x50f (size before relaxing)
 .debug_str     0x00000000000057ac       0xd7 /usr/local/xenon/xenon/lib/32/libc.a(lib_a-signal.o)
                                        0x53d (size before relaxing)
 .debug_str     0x0000000000005883       0x4e /usr/local/xenon/xenon/lib/32/libc.a(lib_a-signalr.o)
                                        0x4d8 (size before relaxing)
 .debug_str     0x00000000000058d1       0xb4 /usr/local/xenon/xenon/lib/32/libc.a(lib_a-s_isinfd.o)
                                        0x173 (size before relaxing)
 .debug_str     0x0000000000005985       0x47 /usr/local/xenon/xenon/lib/32/libc.a(lib_a-s_isnand.o)
                                        0x173 (size before relaxing)
 .debug_str     0x00000000000059cc       0x5c /usr/local/xenon/xenon/lib/32/libc.a(lib_a-stdio.o)
                                        0x501 (size before relaxing)
 .debug_str     0x0000000000005a28       0x44 /usr/local/xenon/xenon/lib/32/libc.a(lib_a-writer.o)
                                        0x4de (size before relaxing)
 .debug_str     0x0000000000005a6c       0x19 /usr/local/xenon/xenon/lib/32/libc.a(lib_a-callocr.o)
                                        0x512 (size before relaxing)
 .debug_str     0x0000000000005a85       0x44 /usr/local/xenon/xenon/lib/32/libc.a(lib_a-closer.o)
                                        0x4ce (size before relaxing)
 .debug_str     0x0000000000005ac9       0x4c /usr/local/xenon/xenon/lib/32/libc.a(lib_a-fclose.o)
                                        0x4e6 (size before relaxing)
 .debug_str     0x0000000000005b15       0x4a /usr/local/xenon/xenon/lib/32/libc.a(lib_a-fstatr.o)
                                        0x5c1 (size before relaxing)
 .debug_str     0x0000000000005b5f       0x46 /usr/local/xenon/xenon/lib/32/libc.a(lib_a-isattyr.o)
                                        0x4d0 (size before relaxing)
 .debug_str     0x0000000000005ba5       0x44 /usr/local/xenon/xenon/lib/32/libc.a(lib_a-lseekr.o)
                                        0x4dc (size before relaxing)
 .debug_str     0x0000000000005be9       0x42 /usr/local/xenon/xenon/lib/32/libc.a(lib_a-readr.o)
                                        0x4dc (size before relaxing)

.comment        0x0000000000000000      0x71a
 .comment       0x0000000000000000       0x12 /usr/local/xenon/lib/gcc/xenon/4.4.0/../../../../xenon/lib/../lib/crt1.o
 .comment       0x0000000000000012       0x12 /usr/local/xenon/lib/gcc/xenon/4.4.0/32/crtbegin.o
 .comment       0x0000000000000024       0x12 main.o
 .comment       0x0000000000000036       0x12 /usr/local/xenon/usr/lib/libxenon.a(console.o)
 .comment       0x0000000000000048       0x12 /usr/local/xenon/usr/lib/libxenon.a(input.o)
 .comment       0x000000000000005a       0x12 /usr/local/xenon/usr/lib/libxenon.a(newlib.o)
 .comment       0x000000000000006c       0x12 /usr/local/xenon/usr/lib/libxenon.a(lib_malloc.o)
 .comment       0x000000000000007e       0x12 /usr/local/xenon/usr/lib/libxenon.a(vm.o)
 .comment       0x0000000000000090       0x12 /usr/local/xenon/usr/lib/libxenon.a(usbmain.o)
 .comment       0x00000000000000a2       0x12 /usr/local/xenon/usr/lib/libxenon.a(xenon_smc.o)
 .comment       0x00000000000000b4       0x12 /usr/local/xenon/usr/lib/libxenon.a(xenon_uart.o)
 .comment       0x00000000000000c6       0x12 /usr/local/xenon/usr/lib/libxenon.a(xenos.o)
 .comment       0x00000000000000d8       0x12 /usr/local/xenon/usr/lib/libxenon.a(io.o)
 .comment       0x00000000000000ea       0x12 /usr/local/xenon/usr/lib/libxenon.a(time.o)
 .comment       0x00000000000000fc       0x12 /usr/local/xenon/usr/lib/libxenon.a(ohci.o)
 .comment       0x000000000000010e       0x12 /usr/local/xenon/usr/lib/libxenon.a(usbd.o)
 .comment       0x0000000000000120       0x12 /usr/local/xenon/usr/lib/libxenon.a(usbdevs.o)
 .comment       0x0000000000000132       0x12 /usr/local/xenon/usr/lib/libxenon.a(usbhid.o)
 .comment       0x0000000000000144       0x12 /usr/local/xenon/usr/lib/libxenon.a(usbhub.o)
 .comment       0x0000000000000156       0x12 /usr/local/xenon/usr/lib/libxenon.a(usbmass.o)
 .comment       0x0000000000000168       0x12 /usr/local/xenon/usr/lib/libxenon.a(xenon_gpio.o)
 .comment       0x000000000000017a       0x12 /usr/local/xenon/usr/lib/libxenon.a(xenon_config.o)
 .comment       0x000000000000018c       0x12 /usr/local/xenon/usr/lib/libxenon.a(diskio.o)
 .comment       0x000000000000019e       0x12 /usr/local/xenon/usr/lib/libxenon.a(disk_rb.o)
 .comment       0x00000000000001b0       0x12 /usr/local/xenon/usr/lib/libxenon.a(fat_rb.o)
 .comment       0x00000000000001c2       0x12 /usr/local/xenon/usr/lib/libxenon.a(file_rb.o)
 .comment       0x00000000000001d4       0x12 /usr/local/xenon/usr/lib/libxenon.a(dir_rb.o)
 .comment       0x00000000000001e6       0x12 /usr/local/xenon/usr/lib/libxenon.a(iso9660.o)
 .comment       0x00000000000001f8       0x12 /usr/local/xenon/usr/lib/libxenon.a(lib_queue.o)
 .comment       0x000000000000020a       0x12 /usr/local/xenon/usr/lib/libxenon.a(usbctrl.o)
 .comment       0x000000000000021c       0x12 /usr/local/xenon/usr/lib/libxenon.a(usbdebug.o)
 .comment       0x000000000000022e       0x12 /usr/local/xenon/usr/lib/libxenon.a(unicode_rb.o)
 .comment       0x0000000000000240       0x12 /usr/local/xenon/usr/lib/libxenon.a(xenon_sfcx.o)
 .comment       0x0000000000000252       0x12 /usr/local/xenon/xenon/lib/32/libc.a(lib_a-assert.o)
 .comment       0x0000000000000264       0x12 /usr/local/xenon/xenon/lib/32/libc.a(lib_a-atoi.o)
 .comment       0x0000000000000276       0x12 /usr/local/xenon/xenon/lib/32/libc.a(lib_a-ctype_.o)
 .comment       0x0000000000000288       0x12 /usr/local/xenon/xenon/lib/32/libc.a(lib_a-errno.o)
 .comment       0x000000000000029a       0x12 /usr/local/xenon/xenon/lib/32/libc.a(lib_a-exit.o)
 .comment       0x00000000000002ac       0x12 /usr/local/xenon/xenon/lib/32/libc.a(lib_a-fiprintf.o)
 .comment       0x00000000000002be       0x12 /usr/local/xenon/xenon/lib/32/libc.a(lib_a-impure.o)
 .comment       0x00000000000002d0       0x12 /usr/local/xenon/xenon/lib/32/libc.a(lib_a-malloc.o)
 .comment       0x00000000000002e2       0x12 /usr/local/xenon/xenon/lib/32/libc.a(lib_a-mallocr.o)
 .comment       0x00000000000002f4       0x12 /usr/local/xenon/xenon/lib/32/libc.a(lib_a-memchr.o)
 .comment       0x0000000000000306       0x12 /usr/local/xenon/xenon/lib/32/libc.a(lib_a-memcmp.o)
 .comment       0x0000000000000318       0x12 /usr/local/xenon/xenon/lib/32/libc.a(lib_a-memcpy.o)
 .comment       0x000000000000032a       0x12 /usr/local/xenon/xenon/lib/32/libc.a(lib_a-memset.o)
 .comment       0x000000000000033c       0x12 /usr/local/xenon/xenon/lib/32/libc.a(lib_a-mlock.o)
 .comment       0x000000000000034e       0x12 /usr/local/xenon/xenon/lib/32/libc.a(lib_a-printf.o)
 .comment       0x0000000000000360       0x12 /usr/local/xenon/xenon/lib/32/libc.a(lib_a-putchar.o)
 .comment       0x0000000000000372       0x12 /usr/local/xenon/xenon/lib/32/libc.a(lib_a-putc.o)
 .comment       0x0000000000000384       0x12 /usr/local/xenon/xenon/lib/32/libc.a(lib_a-puts.o)
 .comment       0x0000000000000396       0x12 /usr/local/xenon/xenon/lib/32/libc.a(lib_a-rand.o)
 .comment       0x00000000000003a8       0x12 /usr/local/xenon/xenon/lib/32/libc.a(lib_a-sbrkr.o)
 .comment       0x00000000000003ba       0x12 /usr/local/xenon/xenon/lib/32/libc.a(lib_a-snprintf.o)
 .comment       0x00000000000003cc       0x12 /usr/local/xenon/xenon/lib/32/libc.a(lib_a-sprintf.o)
 .comment       0x00000000000003de       0x12 /usr/local/xenon/xenon/lib/32/libc.a(lib_a-strcasecmp.o)
 .comment       0x00000000000003f0       0x12 /usr/local/xenon/xenon/lib/32/libc.a(lib_a-strcat.o)
 .comment       0x0000000000000402       0x12 /usr/local/xenon/xenon/lib/32/libc.a(lib_a-strchr.o)
 .comment       0x0000000000000414       0x12 /usr/local/xenon/xenon/lib/32/libc.a(lib_a-strcmp.o)
 .comment       0x0000000000000426       0x12 /usr/local/xenon/xenon/lib/32/libc.a(lib_a-strcpy.o)
 .comment       0x0000000000000438       0x12 /usr/local/xenon/xenon/lib/32/libc.a(lib_a-strlcpy.o)
 .comment       0x000000000000044a       0x12 /usr/local/xenon/xenon/lib/32/libc.a(lib_a-strlen.o)
 .comment       0x000000000000045c       0x12 /usr/local/xenon/xenon/lib/32/libc.a(lib_a-strncasecmp.o)
 .comment       0x000000000000046e       0x12 /usr/local/xenon/xenon/lib/32/libc.a(lib_a-strncmp.o)
 .comment       0x0000000000000480       0x12 /usr/local/xenon/xenon/lib/32/libc.a(lib_a-strncpy.o)
 .comment       0x0000000000000492       0x12 /usr/local/xenon/xenon/lib/32/libc.a(lib_a-strrchr.o)
 .comment       0x00000000000004a4       0x12 /usr/local/xenon/xenon/lib/32/libc.a(lib_a-strtok_r.o)
 .comment       0x00000000000004b6       0x12 /usr/local/xenon/xenon/lib/32/libc.a(lib_a-strtol.o)
 .comment       0x00000000000004c8       0x12 /usr/local/xenon/xenon/lib/32/libc.a(lib_a-svfprintf.o)
 .comment       0x00000000000004da       0x12 /usr/local/xenon/xenon/lib/32/libc.a(lib_a-vfiprintf.o)
 .comment       0x00000000000004ec       0x12 /usr/local/xenon/xenon/lib/32/libc.a(lib_a-vfprintf.o)
 .comment       0x00000000000004fe       0x12 /usr/local/xenon/xenon/lib/32/libc.a(lib_a-wbuf.o)
 .comment       0x0000000000000510       0x12 /usr/local/xenon/xenon/lib/32/libc.a(lib_a-wsetup.o)
 .comment       0x0000000000000522       0x12 /usr/local/xenon/xenon/lib/32/libc.a(lib_a-abort.o)
 .comment       0x0000000000000534       0x12 /usr/local/xenon/xenon/lib/32/libc.a(lib_a-__call_atexit.o)
 .comment       0x0000000000000546       0x12 /usr/local/xenon/xenon/lib/32/libc.a(lib_a-dtoa.o)
 .comment       0x0000000000000558       0x12 /usr/local/xenon/xenon/lib/32/libc.a(lib_a-fflush.o)
 .comment       0x000000000000056a       0x12 /usr/local/xenon/xenon/lib/32/libc.a(lib_a-findfp.o)
 .comment       0x000000000000057c       0x12 /usr/local/xenon/xenon/lib/32/libc.a(lib_a-freer.o)
 .comment       0x000000000000058e       0x12 /usr/local/xenon/xenon/lib/32/libc.a(lib_a-fvwrite.o)
 .comment       0x00000000000005a0       0x12 /usr/local/xenon/xenon/lib/32/libc.a(lib_a-fwalk.o)
 .comment       0x00000000000005b2       0x12 /usr/local/xenon/xenon/lib/32/libc.a(lib_a-locale.o)
 .comment       0x00000000000005c4       0x12 /usr/local/xenon/xenon/lib/32/libc.a(lib_a-makebuf.o)
 .comment       0x00000000000005d6       0x12 /usr/local/xenon/xenon/lib/32/libc.a(lib_a-memmove.o)
 .comment       0x00000000000005e8       0x12 /usr/local/xenon/xenon/lib/32/libc.a(lib_a-mprec.o)
 .comment       0x00000000000005fa       0x12 /usr/local/xenon/xenon/lib/32/libc.a(lib_a-reallocr.o)
 .comment       0x000000000000060c       0x12 /usr/local/xenon/xenon/lib/32/libc.a(lib_a-reent.o)
 .comment       0x000000000000061e       0x12 /usr/local/xenon/xenon/lib/32/libc.a(lib_a-signal.o)
 .comment       0x0000000000000630       0x12 /usr/local/xenon/xenon/lib/32/libc.a(lib_a-signalr.o)
 .comment       0x0000000000000642       0x12 /usr/local/xenon/xenon/lib/32/libc.a(lib_a-s_isinfd.o)
 .comment       0x0000000000000654       0x12 /usr/local/xenon/xenon/lib/32/libc.a(lib_a-s_isnand.o)
 .comment       0x0000000000000666       0x12 /usr/local/xenon/xenon/lib/32/libc.a(lib_a-stdio.o)
 .comment       0x0000000000000678       0x12 /usr/local/xenon/xenon/lib/32/libc.a(lib_a-writer.o)
 .comment       0x000000000000068a       0x12 /usr/local/xenon/xenon/lib/32/libc.a(lib_a-callocr.o)
 .comment       0x000000000000069c       0x12 /usr/local/xenon/xenon/lib/32/libc.a(lib_a-closer.o)
 .comment       0x00000000000006ae       0x12 /usr/local/xenon/xenon/lib/32/libc.a(lib_a-fclose.o)
 .comment       0x00000000000006c0       0x12 /usr/local/xenon/xenon/lib/32/libc.a(lib_a-fstatr.o)
 .comment       0x00000000000006d2       0x12 /usr/local/xenon/xenon/lib/32/libc.a(lib_a-isattyr.o)
 .comment       0x00000000000006e4       0x12 /usr/local/xenon/xenon/lib/32/libc.a(lib_a-lseekr.o)
 .comment       0x00000000000006f6       0x12 /usr/local/xenon/xenon/lib/32/libc.a(lib_a-readr.o)
 .comment       0x0000000000000708       0x12 /usr/local/xenon/lib/gcc/xenon/4.4.0/32/crtend.o

.note.GNU-stack
                0x0000000000000000        0x0
 .note.GNU-stack
                0x0000000000000000        0x0 /usr/local/xenon/lib/gcc/xenon/4.4.0/../../../../xenon/lib/../lib/crt1.o
 .note.GNU-stack
                0x0000000000000000        0x0 /usr/local/xenon/lib/gcc/xenon/4.4.0/32/crtbegin.o
 .note.GNU-stack
                0x0000000000000000        0x0 main.o
 .note.GNU-stack
                0x0000000000000000        0x0 /usr/local/xenon/usr/lib/libxenon.a(console.o)
 .note.GNU-stack
                0x0000000000000000        0x0 /usr/local/xenon/usr/lib/libxenon.a(input.o)
 .note.GNU-stack
                0x0000000000000000        0x0 /usr/local/xenon/usr/lib/libxenon.a(newlib.o)
 .note.GNU-stack
                0x0000000000000000        0x0 /usr/local/xenon/usr/lib/libxenon.a(lib_malloc.o)
 .note.GNU-stack
                0x0000000000000000        0x0 /usr/local/xenon/usr/lib/libxenon.a(vm.o)
 .note.GNU-stack
                0x0000000000000000        0x0 /usr/local/xenon/usr/lib/libxenon.a(usbmain.o)
 .note.GNU-stack
                0x0000000000000000        0x0 /usr/local/xenon/usr/lib/libxenon.a(xenon_smc.o)
 .note.GNU-stack
                0x0000000000000000        0x0 /usr/local/xenon/usr/lib/libxenon.a(xenon_uart.o)
 .note.GNU-stack
                0x0000000000000000        0x0 /usr/local/xenon/usr/lib/libxenon.a(xenos.o)
 .note.GNU-stack
                0x0000000000000000        0x0 /usr/local/xenon/usr/lib/libxenon.a(io.o)
 .note.GNU-stack
                0x0000000000000000        0x0 /usr/local/xenon/usr/lib/libxenon.a(time.o)
 .note.GNU-stack
                0x0000000000000000        0x0 /usr/local/xenon/usr/lib/libxenon.a(ohci.o)
 .note.GNU-stack
                0x0000000000000000        0x0 /usr/local/xenon/usr/lib/libxenon.a(usbd.o)
 .note.GNU-stack
                0x0000000000000000        0x0 /usr/local/xenon/usr/lib/libxenon.a(usbdevs.o)
 .note.GNU-stack
                0x0000000000000000        0x0 /usr/local/xenon/usr/lib/libxenon.a(usbhid.o)
 .note.GNU-stack
                0x0000000000000000        0x0 /usr/local/xenon/usr/lib/libxenon.a(usbhub.o)
 .note.GNU-stack
                0x0000000000000000        0x0 /usr/local/xenon/usr/lib/libxenon.a(usbmass.o)
 .note.GNU-stack
                0x0000000000000000        0x0 /usr/local/xenon/usr/lib/libxenon.a(xenon_gpio.o)
 .note.GNU-stack
                0x0000000000000000        0x0 /usr/local/xenon/usr/lib/libxenon.a(xenon_config.o)
 .note.GNU-stack
                0x0000000000000000        0x0 /usr/local/xenon/usr/lib/libxenon.a(diskio.o)
 .note.GNU-stack
                0x0000000000000000        0x0 /usr/local/xenon/usr/lib/libxenon.a(disk_rb.o)
 .note.GNU-stack
                0x0000000000000000        0x0 /usr/local/xenon/usr/lib/libxenon.a(fat_rb.o)
 .note.GNU-stack
                0x0000000000000000        0x0 /usr/local/xenon/usr/lib/libxenon.a(file_rb.o)
 .note.GNU-stack
                0x0000000000000000        0x0 /usr/local/xenon/usr/lib/libxenon.a(dir_rb.o)
 .note.GNU-stack
                0x0000000000000000        0x0 /usr/local/xenon/usr/lib/libxenon.a(iso9660.o)
 .note.GNU-stack
                0x0000000000000000        0x0 /usr/local/xenon/usr/lib/libxenon.a(lib_queue.o)
 .note.GNU-stack
                0x0000000000000000        0x0 /usr/local/xenon/usr/lib/libxenon.a(usbctrl.o)
 .note.GNU-stack
                0x0000000000000000        0x0 /usr/local/xenon/usr/lib/libxenon.a(usbdebug.o)
 .note.GNU-stack
                0x0000000000000000        0x0 /usr/local/xenon/usr/lib/libxenon.a(unicode_rb.o)
 .note.GNU-stack
                0x0000000000000000        0x0 /usr/local/xenon/usr/lib/libxenon.a(xenon_sfcx.o)
 .note.GNU-stack
                0x0000000000000000        0x0 /usr/local/xenon/xenon/lib/32/libc.a(lib_a-assert.o)
 .note.GNU-stack
                0x0000000000000000        0x0 /usr/local/xenon/xenon/lib/32/libc.a(lib_a-atoi.o)
 .note.GNU-stack
                0x0000000000000000        0x0 /usr/local/xenon/xenon/lib/32/libc.a(lib_a-ctype_.o)
 .note.GNU-stack
                0x0000000000000000        0x0 /usr/local/xenon/xenon/lib/32/libc.a(lib_a-errno.o)
 .note.GNU-stack
                0x0000000000000000        0x0 /usr/local/xenon/xenon/lib/32/libc.a(lib_a-exit.o)
 .note.GNU-stack
                0x0000000000000000        0x0 /usr/local/xenon/xenon/lib/32/libc.a(lib_a-fiprintf.o)
 .note.GNU-stack
                0x0000000000000000        0x0 /usr/local/xenon/xenon/lib/32/libc.a(lib_a-impure.o)
 .note.GNU-stack
                0x0000000000000000        0x0 /usr/local/xenon/xenon/lib/32/libc.a(lib_a-malloc.o)
 .note.GNU-stack
                0x0000000000000000        0x0 /usr/local/xenon/xenon/lib/32/libc.a(lib_a-mallocr.o)
 .note.GNU-stack
                0x0000000000000000        0x0 /usr/local/xenon/xenon/lib/32/libc.a(lib_a-memchr.o)
 .note.GNU-stack
                0x0000000000000000        0x0 /usr/local/xenon/xenon/lib/32/libc.a(lib_a-memcmp.o)
 .note.GNU-stack
                0x0000000000000000        0x0 /usr/local/xenon/xenon/lib/32/libc.a(lib_a-memcpy.o)
 .note.GNU-stack
                0x0000000000000000        0x0 /usr/local/xenon/xenon/lib/32/libc.a(lib_a-memset.o)
 .note.GNU-stack
                0x0000000000000000        0x0 /usr/local/xenon/xenon/lib/32/libc.a(lib_a-mlock.o)
 .note.GNU-stack
                0x0000000000000000        0x0 /usr/local/xenon/xenon/lib/32/libc.a(lib_a-printf.o)
 .note.GNU-stack
                0x0000000000000000        0x0 /usr/local/xenon/xenon/lib/32/libc.a(lib_a-putchar.o)
 .note.GNU-stack
                0x0000000000000000        0x0 /usr/local/xenon/xenon/lib/32/libc.a(lib_a-putc.o)
 .note.GNU-stack
                0x0000000000000000        0x0 /usr/local/xenon/xenon/lib/32/libc.a(lib_a-puts.o)
 .note.GNU-stack
                0x0000000000000000        0x0 /usr/local/xenon/xenon/lib/32/libc.a(lib_a-rand.o)
 .note.GNU-stack
                0x0000000000000000        0x0 /usr/local/xenon/xenon/lib/32/libc.a(lib_a-sbrkr.o)
 .note.GNU-stack
                0x0000000000000000        0x0 /usr/local/xenon/xenon/lib/32/libc.a(lib_a-snprintf.o)
 .note.GNU-stack
                0x0000000000000000        0x0 /usr/local/xenon/xenon/lib/32/libc.a(lib_a-sprintf.o)
 .note.GNU-stack
                0x0000000000000000        0x0 /usr/local/xenon/xenon/lib/32/libc.a(lib_a-strcasecmp.o)
 .note.GNU-stack
                0x0000000000000000        0x0 /usr/local/xenon/xenon/lib/32/libc.a(lib_a-strcat.o)
 .note.GNU-stack
                0x0000000000000000        0x0 /usr/local/xenon/xenon/lib/32/libc.a(lib_a-strchr.o)
 .note.GNU-stack
                0x0000000000000000        0x0 /usr/local/xenon/xenon/lib/32/libc.a(lib_a-strcmp.o)
 .note.GNU-stack
                0x0000000000000000        0x0 /usr/local/xenon/xenon/lib/32/libc.a(lib_a-strcpy.o)
 .note.GNU-stack
                0x0000000000000000        0x0 /usr/local/xenon/xenon/lib/32/libc.a(lib_a-strlcpy.o)
 .note.GNU-stack
                0x0000000000000000        0x0 /usr/local/xenon/xenon/lib/32/libc.a(lib_a-strlen.o)
 .note.GNU-stack
                0x0000000000000000        0x0 /usr/local/xenon/xenon/lib/32/libc.a(lib_a-strncasecmp.o)
 .note.GNU-stack
                0x0000000000000000        0x0 /usr/local/xenon/xenon/lib/32/libc.a(lib_a-strncmp.o)
 .note.GNU-stack
                0x0000000000000000        0x0 /usr/local/xenon/xenon/lib/32/libc.a(lib_a-strncpy.o)
 .note.GNU-stack
                0x0000000000000000        0x0 /usr/local/xenon/xenon/lib/32/libc.a(lib_a-strrchr.o)
 .note.GNU-stack
                0x0000000000000000        0x0 /usr/local/xenon/xenon/lib/32/libc.a(lib_a-strtok_r.o)
 .note.GNU-stack
                0x0000000000000000        0x0 /usr/local/xenon/xenon/lib/32/libc.a(lib_a-strtol.o)
 .note.GNU-stack
                0x0000000000000000        0x0 /usr/local/xenon/xenon/lib/32/libc.a(lib_a-svfprintf.o)
 .note.GNU-stack
                0x0000000000000000        0x0 /usr/local/xenon/xenon/lib/32/libc.a(lib_a-vfiprintf.o)
 .note.GNU-stack
                0x0000000000000000        0x0 /usr/local/xenon/xenon/lib/32/libc.a(lib_a-vfprintf.o)
 .note.GNU-stack
                0x0000000000000000        0x0 /usr/local/xenon/xenon/lib/32/libc.a(lib_a-wbuf.o)
 .note.GNU-stack
                0x0000000000000000        0x0 /usr/local/xenon/xenon/lib/32/libc.a(lib_a-wsetup.o)
 .note.GNU-stack
                0x0000000000000000        0x0 /usr/local/xenon/xenon/lib/32/libc.a(lib_a-abort.o)
 .note.GNU-stack
                0x0000000000000000        0x0 /usr/local/xenon/xenon/lib/32/libc.a(lib_a-__call_atexit.o)
 .note.GNU-stack
                0x0000000000000000        0x0 /usr/local/xenon/xenon/lib/32/libc.a(lib_a-dtoa.o)
 .note.GNU-stack
                0x0000000000000000        0x0 /usr/local/xenon/xenon/lib/32/libc.a(lib_a-fflush.o)
 .note.GNU-stack
                0x0000000000000000        0x0 /usr/local/xenon/xenon/lib/32/libc.a(lib_a-findfp.o)
 .note.GNU-stack
                0x0000000000000000        0x0 /usr/local/xenon/xenon/lib/32/libc.a(lib_a-freer.o)
 .note.GNU-stack
                0x0000000000000000        0x0 /usr/local/xenon/xenon/lib/32/libc.a(lib_a-fvwrite.o)
 .note.GNU-stack
                0x0000000000000000        0x0 /usr/local/xenon/xenon/lib/32/libc.a(lib_a-fwalk.o)
 .note.GNU-stack
                0x0000000000000000        0x0 /usr/local/xenon/xenon/lib/32/libc.a(lib_a-locale.o)
 .note.GNU-stack
                0x0000000000000000        0x0 /usr/local/xenon/xenon/lib/32/libc.a(lib_a-makebuf.o)
 .note.GNU-stack
                0x0000000000000000        0x0 /usr/local/xenon/xenon/lib/32/libc.a(lib_a-memmove.o)
 .note.GNU-stack
                0x0000000000000000        0x0 /usr/local/xenon/xenon/lib/32/libc.a(lib_a-mprec.o)
 .note.GNU-stack
                0x0000000000000000        0x0 /usr/local/xenon/xenon/lib/32/libc.a(lib_a-reallocr.o)
 .note.GNU-stack
                0x0000000000000000        0x0 /usr/local/xenon/xenon/lib/32/libc.a(lib_a-reent.o)
 .note.GNU-stack
                0x0000000000000000        0x0 /usr/local/xenon/xenon/lib/32/libc.a(lib_a-signal.o)
 .note.GNU-stack
                0x0000000000000000        0x0 /usr/local/xenon/xenon/lib/32/libc.a(lib_a-signalr.o)
 .note.GNU-stack
                0x0000000000000000        0x0 /usr/local/xenon/xenon/lib/32/libc.a(lib_a-s_isinfd.o)
 .note.GNU-stack
                0x0000000000000000        0x0 /usr/local/xenon/xenon/lib/32/libc.a(lib_a-s_isnand.o)
 .note.GNU-stack
                0x0000000000000000        0x0 /usr/local/xenon/xenon/lib/32/libc.a(lib_a-stdio.o)
 .note.GNU-stack
                0x0000000000000000        0x0 /usr/local/xenon/xenon/lib/32/libc.a(lib_a-writer.o)
 .note.GNU-stack
                0x0000000000000000        0x0 /usr/local/xenon/xenon/lib/32/libc.a(lib_a-callocr.o)
 .note.GNU-stack
                0x0000000000000000        0x0 /usr/local/xenon/xenon/lib/32/libc.a(lib_a-closer.o)
 .note.GNU-stack
                0x0000000000000000        0x0 /usr/local/xenon/xenon/lib/32/libc.a(lib_a-fclose.o)
 .note.GNU-stack
                0x0000000000000000        0x0 /usr/local/xenon/xenon/lib/32/libc.a(lib_a-fstatr.o)
 .note.GNU-stack
                0x0000000000000000        0x0 /usr/local/xenon/xenon/lib/32/libc.a(lib_a-isattyr.o)
 .note.GNU-stack
                0x0000000000000000        0x0 /usr/local/xenon/xenon/lib/32/libc.a(lib_a-lseekr.o)
 .note.GNU-stack
                0x0000000000000000        0x0 /usr/local/xenon/xenon/lib/32/libc.a(lib_a-readr.o)
 .note.GNU-stack
                0x0000000000000000        0x0 /usr/local/xenon/lib/gcc/xenon/4.4.0/32/crtend.o

.gnu.attributes
                0x0000000000000000       0x14
 .gnu.attributes
                0x0000000000000000       0x14 /usr/local/xenon/lib/gcc/xenon/4.4.0/../../../../xenon/lib/../lib/crt1.o
 .gnu.attributes
                0x0000000000000014       0x14 /usr/local/xenon/lib/gcc/xenon/4.4.0/32/crtbegin.o
 .gnu.attributes
                0x0000000000000028       0x14 main.o
 .gnu.attributes
                0x000000000000003c       0x14 /usr/local/xenon/usr/lib/libxenon.a(console.o)
 .gnu.attributes
                0x0000000000000050       0x14 /usr/local/xenon/usr/lib/libxenon.a(input.o)
 .gnu.attributes
                0x0000000000000064       0x14 /usr/local/xenon/usr/lib/libxenon.a(newlib.o)
 .gnu.attributes
                0x0000000000000078       0x14 /usr/local/xenon/usr/lib/libxenon.a(lib_malloc.o)
 .gnu.attributes
                0x000000000000008c       0x14 /usr/local/xenon/usr/lib/libxenon.a(vm.o)
 .gnu.attributes
                0x00000000000000a0       0x14 /usr/local/xenon/usr/lib/libxenon.a(usbmain.o)
 .gnu.attributes
                0x00000000000000b4       0x14 /usr/local/xenon/usr/lib/libxenon.a(xenon_smc.o)
 .gnu.attributes
                0x00000000000000c8       0x14 /usr/local/xenon/usr/lib/libxenon.a(xenon_uart.o)
 .gnu.attributes
                0x00000000000000dc       0x14 /usr/local/xenon/usr/lib/libxenon.a(xenos.o)
 .gnu.attributes
                0x00000000000000f0       0x14 /usr/local/xenon/usr/lib/libxenon.a(io.o)
 .gnu.attributes
                0x0000000000000104       0x14 /usr/local/xenon/usr/lib/libxenon.a(time.o)
 .gnu.attributes
                0x0000000000000118       0x14 /usr/local/xenon/usr/lib/libxenon.a(ohci.o)
 .gnu.attributes
                0x000000000000012c       0x14 /usr/local/xenon/usr/lib/libxenon.a(usbd.o)
 .gnu.attributes
                0x0000000000000140       0x14 /usr/local/xenon/usr/lib/libxenon.a(usbdevs.o)
 .gnu.attributes
                0x0000000000000154       0x14 /usr/local/xenon/usr/lib/libxenon.a(usbhid.o)
 .gnu.attributes
                0x0000000000000168       0x14 /usr/local/xenon/usr/lib/libxenon.a(usbhub.o)
 .gnu.attributes
                0x000000000000017c       0x14 /usr/local/xenon/usr/lib/libxenon.a(usbmass.o)
 .gnu.attributes
                0x0000000000000190       0x14 /usr/local/xenon/usr/lib/libxenon.a(xenon_gpio.o)
 .gnu.attributes
                0x00000000000001a4       0x14 /usr/local/xenon/usr/lib/libxenon.a(xenon_config.o)
 .gnu.attributes
                0x00000000000001b8       0x14 /usr/local/xenon/usr/lib/libxenon.a(diskio.o)
 .gnu.attributes
                0x00000000000001cc       0x14 /usr/local/xenon/usr/lib/libxenon.a(disk_rb.o)
 .gnu.attributes
                0x00000000000001e0       0x14 /usr/local/xenon/usr/lib/libxenon.a(fat_rb.o)
 .gnu.attributes
                0x00000000000001f4       0x14 /usr/local/xenon/usr/lib/libxenon.a(file_rb.o)
 .gnu.attributes
                0x0000000000000208       0x14 /usr/local/xenon/usr/lib/libxenon.a(dir_rb.o)
 .gnu.attributes
                0x000000000000021c       0x14 /usr/local/xenon/usr/lib/libxenon.a(iso9660.o)
 .gnu.attributes
                0x0000000000000230       0x14 /usr/local/xenon/usr/lib/libxenon.a(lib_queue.o)
 .gnu.attributes
                0x0000000000000244       0x14 /usr/local/xenon/usr/lib/libxenon.a(usbctrl.o)
 .gnu.attributes
                0x0000000000000258       0x14 /usr/local/xenon/usr/lib/libxenon.a(usbdebug.o)
 .gnu.attributes
                0x000000000000026c       0x14 /usr/local/xenon/usr/lib/libxenon.a(unicode_rb.o)
 .gnu.attributes
                0x0000000000000280       0x14 /usr/local/xenon/usr/lib/libxenon.a(xenon_sfcx.o)
 .gnu.attributes
                0x0000000000000294       0x14 /usr/local/xenon/xenon/lib/32/libc.a(lib_a-assert.o)
 .gnu.attributes
                0x00000000000002a8       0x14 /usr/local/xenon/xenon/lib/32/libc.a(lib_a-atoi.o)
 .gnu.attributes
                0x00000000000002bc       0x14 /usr/local/xenon/xenon/lib/32/libc.a(lib_a-ctype_.o)
 .gnu.attributes
                0x00000000000002d0       0x14 /usr/local/xenon/xenon/lib/32/libc.a(lib_a-errno.o)
 .gnu.attributes
                0x00000000000002e4       0x14 /usr/local/xenon/xenon/lib/32/libc.a(lib_a-exit.o)
 .gnu.attributes
                0x00000000000002f8       0x14 /usr/local/xenon/xenon/lib/32/libc.a(lib_a-fiprintf.o)
 .gnu.attributes
                0x000000000000030c       0x14 /usr/local/xenon/xenon/lib/32/libc.a(lib_a-impure.o)
 .gnu.attributes
                0x0000000000000320       0x14 /usr/local/xenon/xenon/lib/32/libc.a(lib_a-malloc.o)
 .gnu.attributes
                0x0000000000000334       0x14 /usr/local/xenon/xenon/lib/32/libc.a(lib_a-mallocr.o)
 .gnu.attributes
                0x0000000000000348       0x14 /usr/local/xenon/xenon/lib/32/libc.a(lib_a-memchr.o)
 .gnu.attributes
                0x000000000000035c       0x14 /usr/local/xenon/xenon/lib/32/libc.a(lib_a-memcmp.o)
 .gnu.attributes
                0x0000000000000370       0x14 /usr/local/xenon/xenon/lib/32/libc.a(lib_a-memcpy.o)
 .gnu.attributes
                0x0000000000000384       0x14 /usr/local/xenon/xenon/lib/32/libc.a(lib_a-memset.o)
 .gnu.attributes
                0x0000000000000398       0x14 /usr/local/xenon/xenon/lib/32/libc.a(lib_a-mlock.o)
 .gnu.attributes
                0x00000000000003ac       0x14 /usr/local/xenon/xenon/lib/32/libc.a(lib_a-printf.o)
 .gnu.attributes
                0x00000000000003c0       0x14 /usr/local/xenon/xenon/lib/32/libc.a(lib_a-putchar.o)
 .gnu.attributes
                0x00000000000003d4       0x14 /usr/local/xenon/xenon/lib/32/libc.a(lib_a-putc.o)
 .gnu.attributes
                0x00000000000003e8       0x14 /usr/local/xenon/xenon/lib/32/libc.a(lib_a-puts.o)
 .gnu.attributes
                0x00000000000003fc       0x14 /usr/local/xenon/xenon/lib/32/libc.a(lib_a-rand.o)
 .gnu.attributes
                0x0000000000000410       0x14 /usr/local/xenon/xenon/lib/32/libc.a(lib_a-sbrkr.o)
 .gnu.attributes
                0x0000000000000424       0x14 /usr/local/xenon/xenon/lib/32/libc.a(lib_a-snprintf.o)
 .gnu.attributes
                0x0000000000000438       0x14 /usr/local/xenon/xenon/lib/32/libc.a(lib_a-sprintf.o)
 .gnu.attributes
                0x000000000000044c       0x14 /usr/local/xenon/xenon/lib/32/libc.a(lib_a-strcasecmp.o)
 .gnu.attributes
                0x0000000000000460       0x14 /usr/local/xenon/xenon/lib/32/libc.a(lib_a-strcat.o)
 .gnu.attributes
                0x0000000000000474       0x14 /usr/local/xenon/xenon/lib/32/libc.a(lib_a-strchr.o)
 .gnu.attributes
                0x0000000000000488       0x14 /usr/local/xenon/xenon/lib/32/libc.a(lib_a-strcmp.o)
 .gnu.attributes
                0x000000000000049c       0x14 /usr/local/xenon/xenon/lib/32/libc.a(lib_a-strcpy.o)
 .gnu.attributes
                0x00000000000004b0       0x14 /usr/local/xenon/xenon/lib/32/libc.a(lib_a-strlcpy.o)
 .gnu.attributes
                0x00000000000004c4       0x14 /usr/local/xenon/xenon/lib/32/libc.a(lib_a-strlen.o)
 .gnu.attributes
                0x00000000000004d8       0x14 /usr/local/xenon/xenon/lib/32/libc.a(lib_a-strncasecmp.o)
 .gnu.attributes
                0x00000000000004ec       0x14 /usr/local/xenon/xenon/lib/32/libc.a(lib_a-strncmp.o)
 .gnu.attributes
                0x0000000000000500       0x14 /usr/local/xenon/xenon/lib/32/libc.a(lib_a-strncpy.o)
 .gnu.attributes
                0x0000000000000514       0x14 /usr/local/xenon/xenon/lib/32/libc.a(lib_a-strrchr.o)
 .gnu.attributes
                0x0000000000000528       0x14 /usr/local/xenon/xenon/lib/32/libc.a(lib_a-strtok_r.o)
 .gnu.attributes
                0x000000000000053c       0x14 /usr/local/xenon/xenon/lib/32/libc.a(lib_a-strtol.o)
 .gnu.attributes
                0x0000000000000550       0x14 /usr/local/xenon/xenon/lib/32/libc.a(lib_a-svfprintf.o)
 .gnu.attributes
                0x0000000000000564       0x14 /usr/local/xenon/xenon/lib/32/libc.a(lib_a-vfiprintf.o)
 .gnu.attributes
                0x0000000000000578       0x14 /usr/local/xenon/xenon/lib/32/libc.a(lib_a-vfprintf.o)
 .gnu.attributes
                0x000000000000058c       0x14 /usr/local/xenon/xenon/lib/32/libc.a(lib_a-wbuf.o)
 .gnu.attributes
                0x00000000000005a0       0x14 /usr/local/xenon/xenon/lib/32/libc.a(lib_a-wsetup.o)
 .gnu.attributes
                0x00000000000005b4       0x14 /usr/local/xenon/xenon/lib/32/libc.a(lib_a-abort.o)
 .gnu.attributes
                0x00000000000005c8       0x14 /usr/local/xenon/xenon/lib/32/libc.a(lib_a-__call_atexit.o)
 .gnu.attributes
                0x00000000000005dc       0x14 /usr/local/xenon/xenon/lib/32/libc.a(lib_a-dtoa.o)
 .gnu.attributes
                0x00000000000005f0       0x14 /usr/local/xenon/xenon/lib/32/libc.a(lib_a-fflush.o)
 .gnu.attributes
                0x0000000000000604       0x14 /usr/local/xenon/xenon/lib/32/libc.a(lib_a-findfp.o)
 .gnu.attributes
                0x0000000000000618       0x14 /usr/local/xenon/xenon/lib/32/libc.a(lib_a-freer.o)
 .gnu.attributes
                0x000000000000062c       0x14 /usr/local/xenon/xenon/lib/32/libc.a(lib_a-fvwrite.o)
 .gnu.attributes
                0x0000000000000640       0x14 /usr/local/xenon/xenon/lib/32/libc.a(lib_a-fwalk.o)
 .gnu.attributes
                0x0000000000000654       0x14 /usr/local/xenon/xenon/lib/32/libc.a(lib_a-locale.o)
 .gnu.attributes
                0x0000000000000668       0x14 /usr/local/xenon/xenon/lib/32/libc.a(lib_a-makebuf.o)
 .gnu.attributes
                0x000000000000067c       0x14 /usr/local/xenon/xenon/lib/32/libc.a(lib_a-memmove.o)
 .gnu.attributes
                0x0000000000000690       0x14 /usr/local/xenon/xenon/lib/32/libc.a(lib_a-mprec.o)
 .gnu.attributes
                0x00000000000006a4       0x14 /usr/local/xenon/xenon/lib/32/libc.a(lib_a-reallocr.o)
 .gnu.attributes
                0x00000000000006b8       0x14 /usr/local/xenon/xenon/lib/32/libc.a(lib_a-reent.o)
 .gnu.attributes
                0x00000000000006cc       0x14 /usr/local/xenon/xenon/lib/32/libc.a(lib_a-signal.o)
 .gnu.attributes
                0x00000000000006e0       0x14 /usr/local/xenon/xenon/lib/32/libc.a(lib_a-signalr.o)
 .gnu.attributes
                0x00000000000006f4       0x14 /usr/local/xenon/xenon/lib/32/libc.a(lib_a-s_isinfd.o)
 .gnu.attributes
                0x0000000000000708       0x14 /usr/local/xenon/xenon/lib/32/libc.a(lib_a-s_isnand.o)
 .gnu.attributes
                0x000000000000071c       0x14 /usr/local/xenon/xenon/lib/32/libc.a(lib_a-stdio.o)
 .gnu.attributes
                0x0000000000000730       0x14 /usr/local/xenon/xenon/lib/32/libc.a(lib_a-writer.o)
 .gnu.attributes
                0x0000000000000744       0x14 /usr/local/xenon/xenon/lib/32/libc.a(lib_a-callocr.o)
 .gnu.attributes
                0x0000000000000758       0x14 /usr/local/xenon/xenon/lib/32/libc.a(lib_a-closer.o)
 .gnu.attributes
                0x000000000000076c       0x14 /usr/local/xenon/xenon/lib/32/libc.a(lib_a-fclose.o)
 .gnu.attributes
                0x0000000000000780       0x14 /usr/local/xenon/xenon/lib/32/libc.a(lib_a-fstatr.o)
 .gnu.attributes
                0x0000000000000794       0x14 /usr/local/xenon/xenon/lib/32/libc.a(lib_a-isattyr.o)
 .gnu.attributes
                0x00000000000007a8       0x14 /usr/local/xenon/xenon/lib/32/libc.a(lib_a-lseekr.o)
 .gnu.attributes
                0x00000000000007bc       0x14 /usr/local/xenon/xenon/lib/32/libc.a(lib_a-readr.o)
 .gnu.attributes
                0x00000000000007d0       0x14 /usr/local/xenon/lib/gcc/xenon/4.4.0/32/crtend.o
