Archive member included because of file (symbol)

/usr/local/xenon/usr/lib/libxenon.a(startup_from_xell.o)
                              (_start)
/usr/local/xenon/usr/lib/libxenon.a(console.o)
                              main.o (console_init)
/usr/local/xenon/usr/lib/libxenon.a(newlib.o)
                              /usr/local/xenon/usr/lib/libxenon.a(startup_from_xell.o) (_exit)
/usr/local/xenon/usr/lib/libxenon.a(lib_malloc.o)
                              main.o (kmem_init)
/usr/local/xenon/usr/lib/libxenon.a(atomic.o)
                              /usr/local/xenon/usr/lib/libxenon.a(startup_from_xell.o) (atomic_clearset)
/usr/local/xenon/usr/lib/libxenon.a(cache.o)
                              /usr/local/xenon/usr/lib/libxenon.a(console.o) (memdcbst)
/usr/local/xenon/usr/lib/libxenon.a(except.o)
                              (exc_base)
/usr/local/xenon/usr/lib/libxenon.a(vm.o)
                              /usr/local/xenon/usr/lib/libxenon.a(except.o) (pagetable)
/usr/local/xenon/usr/lib/libxenon.a(usbmain.o)
                              main.o (usb_do_poll)
/usr/local/xenon/usr/lib/libxenon.a(xenon_uart.o)
                              /usr/local/xenon/usr/lib/libxenon.a(newlib.o) (putch)
/usr/local/xenon/usr/lib/libxenon.a(xenos.o)
                              /usr/local/xenon/usr/lib/libxenon.a(console.o) (xenos_is_overscan)
/usr/local/xenon/usr/lib/libxenon.a(io.o)
                              /usr/local/xenon/usr/lib/libxenon.a(xenos.o) (read32n)
/usr/local/xenon/usr/lib/libxenon.a(time.o)
                              /usr/local/xenon/usr/lib/libxenon.a(xenos.o) (udelay)
/usr/local/xenon/usr/lib/libxenon.a(ohci.o)
                              /usr/local/xenon/usr/lib/libxenon.a(usbmain.o) (ohci_driver)
/usr/local/xenon/usr/lib/libxenon.a(usbd.o)
                              /usr/local/xenon/usr/lib/libxenon.a(usbmain.o) (usb_poll)
/usr/local/xenon/usr/lib/libxenon.a(usbdevs.o)
                              /usr/local/xenon/usr/lib/libxenon.a(usbd.o) (usb_find_driver)
/usr/local/xenon/usr/lib/libxenon.a(usbhid.o)
                              /usr/local/xenon/usr/lib/libxenon.a(usbdevs.o) (usbhid_driver)
/usr/local/xenon/usr/lib/libxenon.a(usbhub.o)
                              /usr/local/xenon/usr/lib/libxenon.a(usbd.o) (usb_scan)
/usr/local/xenon/usr/lib/libxenon.a(usbmass.o)
                              /usr/local/xenon/usr/lib/libxenon.a(usbdevs.o) (usbmass_driver)
/usr/local/xenon/usr/lib/libxenon.a(xenon_gpio.o)
                              /usr/local/xenon/usr/lib/libxenon.a(xenos.o) (xenon_gpio_set)
/usr/local/xenon/usr/lib/libxenon.a(xenon_smc.o)
                              /usr/local/xenon/usr/lib/libxenon.a(xenos.o) (xenon_smc_read_avpack)
/usr/local/xenon/usr/lib/libxenon.a(xenon_config.o)
                              /usr/local/xenon/usr/lib/libxenon.a(xenos.o) (xenon_config_get_avregion)
/usr/local/xenon/usr/lib/libxenon.a(diskio.o)
                              /usr/local/xenon/usr/lib/libxenon.a(usbmass.o) (unregister_bdev)
/usr/local/xenon/usr/lib/libxenon.a(fat.o)
                              /usr/local/xenon/usr/lib/libxenon.a(diskio.o) (vfs_fat_mount_ops)
/usr/local/xenon/usr/lib/libxenon.a(fat_rb.o)
                              /usr/local/xenon/usr/lib/libxenon.a(fat.o) (fat_init)
/usr/local/xenon/usr/lib/libxenon.a(file_rb.o)
                              /usr/local/xenon/usr/lib/libxenon.a(fat.o) (rb_filesize)
/usr/local/xenon/usr/lib/libxenon.a(dir_rb.o)
                              /usr/local/xenon/usr/lib/libxenon.a(fat.o) (rb_closedir)
/usr/local/xenon/usr/lib/libxenon.a(iso9660.o)
                              /usr/local/xenon/usr/lib/libxenon.a(diskio.o) (vfs_iso9660_mount_ops)
/usr/local/xenon/usr/lib/libxenon.a(lib_queue.o)
                              /usr/local/xenon/usr/lib/libxenon.a(ohci.o) (q_enqueue)
/usr/local/xenon/usr/lib/libxenon.a(usbctrl.o)
                              /usr/local/xenon/usr/lib/libxenon.a(usbdevs.o) (usbctrl_driver)
/usr/local/xenon/usr/lib/libxenon.a(usbdebug.o)
                              /usr/local/xenon/usr/lib/libxenon.a(usbhub.o) (usb_dbg_showdevice)
/usr/local/xenon/usr/lib/libxenon.a(unicode_rb.o)
                              /usr/local/xenon/usr/lib/libxenon.a(fat_rb.o) (utf8encode)
/usr/local/xenon/usr/lib/libxenon.a(xenon_sfcx.o)
                              /usr/local/xenon/usr/lib/libxenon.a(xenon_config.o) (sfcx_init)
/usr/local/xenon/usr/lib/libxenon.a(disk_rb.o)
                              /usr/local/xenon/usr/lib/libxenon.a(fat_rb.o) (storage_write_sectors)
/usr/local/xenon/usr/lib/libxenon.a(input.o)
                              /usr/local/xenon/usr/lib/libxenon.a(usbctrl.o) (set_controller_data)
/usr/local/xenon/usr/lib/libSDL.a(SDL.o)
                              main.o (SDL_Init)
/usr/local/xenon/usr/lib/libSDL.a(SDL_error.o)
                              /usr/local/xenon/usr/lib/libSDL.a(SDL.o) (SDL_SetError)
/usr/local/xenon/usr/lib/libSDL.a(SDL_fatal.o)
                              /usr/local/xenon/usr/lib/libSDL.a(SDL.o) (SDL_InstallParachute)
/usr/local/xenon/usr/lib/libSDL.a(SDL_audio.o)
                              /usr/local/xenon/usr/lib/libSDL.a(SDL.o) (SDL_AudioInit)
/usr/local/xenon/usr/lib/libSDL.a(SDL_audiocvt.o)
                              /usr/local/xenon/usr/lib/libSDL.a(SDL_audio.o) (SDL_ConvertAudio)
/usr/local/xenon/usr/lib/libSDL.a(SDL_events.o)
                              main.o (SDL_PollEvent)
/usr/local/xenon/usr/lib/libSDL.a(SDL_keyboard.o)
                              /usr/local/xenon/usr/lib/libSDL.a(SDL_events.o) (SDL_KeyboardInit)
/usr/local/xenon/usr/lib/libSDL.a(SDL_mouse.o)
                              /usr/local/xenon/usr/lib/libSDL.a(SDL_events.o) (SDL_MouseInit)
/usr/local/xenon/usr/lib/libSDL.a(SDL_quit.o)
                              /usr/local/xenon/usr/lib/libSDL.a(SDL_events.o) (SDL_QuitInit)
/usr/local/xenon/usr/lib/libSDL.a(SDL_getenv.o)
                              /usr/local/xenon/usr/lib/libSDL.a(SDL.o) (SDL_getenv)
/usr/local/xenon/usr/lib/libSDL.a(SDL_malloc.o)
                              /usr/local/xenon/usr/lib/libSDL.a(SDL_audio.o) (SDL_free)
/usr/local/xenon/usr/lib/libSDL.a(SDL_string.o)
                              /usr/local/xenon/usr/lib/libSDL.a(SDL_getenv.o) (SDL_strncmp)
/usr/local/xenon/usr/lib/libSDL.a(SDL_thread.o)
                              /usr/local/xenon/usr/lib/libSDL.a(SDL_audio.o) (SDL_CreateThread)
/usr/local/xenon/usr/lib/libSDL.a(SDL_timer.o)
                              /usr/local/xenon/usr/lib/libSDL.a(SDL_events.o) (SDL_timer_running)
/usr/local/xenon/usr/lib/libSDL.a(SDL_cursor.o)
                              /usr/local/xenon/usr/lib/libSDL.a(SDL_mouse.o) (SDL_MoveCursor)
/usr/local/xenon/usr/lib/libSDL.a(SDL_pixels.o)
                              main.o (SDL_MapRGB)
/usr/local/xenon/usr/lib/libSDL.a(SDL_surface.o)
                              main.o (SDL_LockSurface)
/usr/local/xenon/usr/lib/libSDL.a(SDL_video.o)
                              /usr/local/xenon/usr/lib/libSDL.a(SDL_events.o) (current_video)
/usr/local/xenon/usr/lib/libSDL.a(SDL_dummyaudio.o)
                              /usr/local/xenon/usr/lib/libSDL.a(SDL_audio.o) (DUMMYAUD_bootstrap)
/usr/local/xenon/usr/lib/libSDL.a(SDL_nullvideo.o)
                              /usr/local/xenon/usr/lib/libSDL.a(SDL_video.o) (XENON_bootstrap)
/usr/local/xenon/usr/lib/libSDL.a(SDL_sysmutex.o)
                              /usr/local/xenon/usr/lib/libSDL.a(SDL_events.o) (SDL_CreateMutex)
/usr/local/xenon/usr/lib/libSDL.a(SDL_syssem.o)
                              /usr/local/xenon/usr/lib/libSDL.a(SDL_thread.o) (SDL_CreateSemaphore)
/usr/local/xenon/usr/lib/libSDL.a(SDL_systhread.o)
                              /usr/local/xenon/usr/lib/libSDL.a(SDL_thread.o) (SDL_SYS_CreateThread)
/usr/local/xenon/usr/lib/libSDL.a(SDL_systimer.o)
                              /usr/local/xenon/usr/lib/libSDL.a(SDL_keyboard.o) (SDL_GetTicks)
/usr/local/xenon/usr/lib/libSDL.a(shader_sdl.o)
                              /usr/local/xenon/usr/lib/libSDL.a(SDL_nullvideo.o) (prim_textured_vertex_shader)
/usr/local/xenon/usr/lib/libSDL.a(SDL_active.o)
                              /usr/local/xenon/usr/lib/libSDL.a(SDL_events.o) (SDL_AppActiveInit)
/usr/local/xenon/usr/lib/libSDL.a(SDL_resize.o)
                              /usr/local/xenon/usr/lib/libSDL.a(SDL_video.o) (SDL_PrivateResize)
/usr/local/xenon/usr/lib/libSDL.a(SDL_RLEaccel.o)
                              /usr/local/xenon/usr/lib/libSDL.a(SDL_surface.o) (SDL_RLESurface)
/usr/local/xenon/usr/lib/libSDL.a(SDL_blit.o)
                              /usr/local/xenon/usr/lib/libSDL.a(SDL_pixels.o) (SDL_CalculateBlit)
/usr/local/xenon/usr/lib/libSDL.a(SDL_blit_0.o)
                              /usr/local/xenon/usr/lib/libSDL.a(SDL_blit.o) (SDL_CalculateBlit0)
/usr/local/xenon/usr/lib/libSDL.a(SDL_blit_1.o)
                              /usr/local/xenon/usr/lib/libSDL.a(SDL_blit.o) (SDL_CalculateBlit1)
/usr/local/xenon/usr/lib/libSDL.a(SDL_blit_N.o)
                              /usr/local/xenon/usr/lib/libSDL.a(SDL_blit.o) (SDL_CalculateBlitN)
/usr/local/xenon/usr/lib/libSDL.a(SDL_nullevents.o)
                              /usr/local/xenon/usr/lib/libSDL.a(SDL_nullvideo.o) (DUMMY_PumpEvents)
/usr/local/xenon/usr/lib/libSDL.a(SDL_cpuinfo.o)
                              /usr/local/xenon/usr/lib/libSDL.a(SDL_blit_N.o) (SDL_HasMMX)
/usr/local/xenon/usr/lib/libSDL.a(SDL_blit_A.o)
                              /usr/local/xenon/usr/lib/libSDL.a(SDL_blit_N.o) (SDL_CalculateAlphaBlit)
/usr/local/xenon/xenon/lib/32/libc.a(lib_a-assert.o)
                              /usr/local/xenon/usr/lib/libxenon.a(xenos.o) (__assert_func)
/usr/local/xenon/xenon/lib/32/libc.a(lib_a-atoi.o)
                              /usr/local/xenon/usr/lib/libxenon.a(fat_rb.o) (atoi)
/usr/local/xenon/xenon/lib/32/libc.a(lib_a-ctype_.o)
                              /usr/local/xenon/usr/lib/libxenon.a(fat_rb.o) (__ctype_ptr__)
/usr/local/xenon/xenon/lib/32/libc.a(lib_a-errno.o)
                              /usr/local/xenon/usr/lib/libxenon.a(newlib.o) (__errno)
/usr/local/xenon/xenon/lib/32/libc.a(lib_a-exit.o)
                              /usr/local/xenon/usr/lib/libxenon.a(fat_rb.o) (exit)
/usr/local/xenon/xenon/lib/32/libc.a(lib_a-fiprintf.o)
                              /usr/local/xenon/xenon/lib/32/libc.a(lib_a-assert.o) (fiprintf)
/usr/local/xenon/xenon/lib/32/libc.a(lib_a-impure.o)
                              /usr/local/xenon/xenon/lib/32/libc.a(lib_a-assert.o) (_impure_ptr)
/usr/local/xenon/xenon/lib/32/libc.a(lib_a-malloc.o)
                              /usr/local/xenon/usr/lib/libxenon.a(fat.o) (free)
/usr/local/xenon/xenon/lib/32/libc.a(lib_a-mallocr.o)
                              /usr/local/xenon/xenon/lib/32/libc.a(lib_a-malloc.o) (_malloc_r)
/usr/local/xenon/xenon/lib/32/libc.a(lib_a-memchr.o)
                              /usr/local/xenon/usr/lib/libxenon.a(disk_rb.o) (memchr)
/usr/local/xenon/xenon/lib/32/libc.a(lib_a-memcmp.o)
                              /usr/local/xenon/usr/lib/libxenon.a(iso9660.o) (memcmp)
/usr/local/xenon/xenon/lib/32/libc.a(lib_a-memcpy.o)
                              /usr/local/xenon/usr/lib/libxenon.a(console.o) (memcpy)
/usr/local/xenon/xenon/lib/32/libc.a(lib_a-memset.o)
                              /usr/local/xenon/usr/lib/libxenon.a(newlib.o) (memset)
/usr/local/xenon/xenon/lib/32/libc.a(lib_a-mlock.o)
                              /usr/local/xenon/xenon/lib/32/libc.a(lib_a-mallocr.o) (__malloc_lock)
/usr/local/xenon/xenon/lib/32/libc.a(lib_a-printf.o)
                              /usr/local/xenon/usr/lib/libxenon.a(console.o) (printf)
/usr/local/xenon/xenon/lib/32/libc.a(lib_a-putchar.o)
                              /usr/local/xenon/usr/lib/libxenon.a(xenos.o) (putchar)
/usr/local/xenon/xenon/lib/32/libc.a(lib_a-putc.o)
                              /usr/local/xenon/xenon/lib/32/libc.a(lib_a-putchar.o) (_putc_r)
/usr/local/xenon/xenon/lib/32/libc.a(lib_a-puts.o)
                              /usr/local/xenon/usr/lib/libxenon.a(lib_malloc.o) (puts)
/usr/local/xenon/xenon/lib/32/libc.a(lib_a-sbrkr.o)
                              /usr/local/xenon/xenon/lib/32/libc.a(lib_a-mallocr.o) (_sbrk_r)
/usr/local/xenon/xenon/lib/32/libc.a(lib_a-snprintf.o)
                              /usr/local/xenon/usr/lib/libxenon.a(diskio.o) (snprintf)
/usr/local/xenon/xenon/lib/32/libc.a(lib_a-sprintf.o)
                              /usr/local/xenon/usr/lib/libxenon.a(usbmass.o) (sprintf)
/usr/local/xenon/xenon/lib/32/libc.a(lib_a-strcasecmp.o)
                              /usr/local/xenon/usr/lib/libxenon.a(file_rb.o) (strcasecmp)
/usr/local/xenon/xenon/lib/32/libc.a(lib_a-strcat.o)
                              /usr/local/xenon/usr/lib/libxenon.a(fat_rb.o) (strcat)
/usr/local/xenon/xenon/lib/32/libc.a(lib_a-strchr.o)
                              /usr/local/xenon/usr/lib/libxenon.a(fat_rb.o) (strchr)
/usr/local/xenon/xenon/lib/32/libc.a(lib_a-strcmp.o)
                              /usr/local/xenon/usr/lib/libxenon.a(newlib.o) (strcmp)
/usr/local/xenon/xenon/lib/32/libc.a(lib_a-strcpy.o)
                              /usr/local/xenon/usr/lib/libxenon.a(newlib.o) (strcpy)
/usr/local/xenon/xenon/lib/32/libc.a(lib_a-strlcpy.o)
                              /usr/local/xenon/usr/lib/libxenon.a(fat.o) (strlcpy)
/usr/local/xenon/xenon/lib/32/libc.a(lib_a-strlen.o)
                              /usr/local/xenon/usr/lib/libxenon.a(newlib.o) (strlen)
/usr/local/xenon/xenon/lib/32/libc.a(lib_a-strncasecmp.o)
                              /usr/local/xenon/usr/lib/libxenon.a(iso9660.o) (strncasecmp)
/usr/local/xenon/xenon/lib/32/libc.a(lib_a-strncmp.o)
                              /usr/local/xenon/usr/lib/libxenon.a(newlib.o) (strncmp)
/usr/local/xenon/xenon/lib/32/libc.a(lib_a-strncpy.o)
                              /usr/local/xenon/usr/lib/libxenon.a(iso9660.o) (strncpy)
/usr/local/xenon/xenon/lib/32/libc.a(lib_a-strrchr.o)
                              /usr/local/xenon/usr/lib/libxenon.a(fat_rb.o) (strrchr)
/usr/local/xenon/xenon/lib/32/libc.a(lib_a-strtok_r.o)
                              /usr/local/xenon/usr/lib/libxenon.a(dir_rb.o) (strtok_r)
/usr/local/xenon/xenon/lib/32/libc.a(lib_a-strtol.o)
                              /usr/local/xenon/xenon/lib/32/libc.a(lib_a-atoi.o) (_strtol_r)
/usr/local/xenon/xenon/lib/32/libc.a(lib_a-svfprintf.o)
                              /usr/local/xenon/xenon/lib/32/libc.a(lib_a-snprintf.o) (_svfprintf_r)
/usr/local/xenon/xenon/lib/32/libc.a(lib_a-vfiprintf.o)
                              /usr/local/xenon/xenon/lib/32/libc.a(lib_a-fiprintf.o) (_vfiprintf_r)
/usr/local/xenon/xenon/lib/32/libc.a(lib_a-vfprintf.o)
                              /usr/local/xenon/xenon/lib/32/libc.a(lib_a-printf.o) (_vfprintf_r)
/usr/local/xenon/xenon/lib/32/libc.a(lib_a-wbuf.o)
                              /usr/local/xenon/xenon/lib/32/libc.a(lib_a-putc.o) (__swbuf_r)
/usr/local/xenon/xenon/lib/32/libc.a(lib_a-wsetup.o)
                              /usr/local/xenon/xenon/lib/32/libc.a(lib_a-vfiprintf.o) (__swsetup_r)
/usr/local/xenon/xenon/lib/32/libc.a(lib_a-abort.o)
                              /usr/local/xenon/xenon/lib/32/libc.a(lib_a-assert.o) (abort)
/usr/local/xenon/xenon/lib/32/libc.a(lib_a-__call_atexit.o)
                              /usr/local/xenon/xenon/lib/32/libc.a(lib_a-exit.o) (__call_exitprocs)
/usr/local/xenon/xenon/lib/32/libc.a(lib_a-dtoa.o)
                              /usr/local/xenon/xenon/lib/32/libc.a(lib_a-svfprintf.o) (_dtoa_r)
/usr/local/xenon/xenon/lib/32/libc.a(lib_a-fflush.o)
                              /usr/local/xenon/xenon/lib/32/libc.a(lib_a-vfiprintf.o) (_fflush_r)
/usr/local/xenon/xenon/lib/32/libc.a(lib_a-findfp.o)
                              /usr/local/xenon/xenon/lib/32/libc.a(lib_a-putc.o) (__sinit)
/usr/local/xenon/xenon/lib/32/libc.a(lib_a-freer.o)
                              /usr/local/xenon/xenon/lib/32/libc.a(lib_a-malloc.o) (_free_r)
/usr/local/xenon/xenon/lib/32/libc.a(lib_a-fvwrite.o)
                              /usr/local/xenon/xenon/lib/32/libc.a(lib_a-puts.o) (__sfvwrite_r)
/usr/local/xenon/xenon/lib/32/libc.a(lib_a-fwalk.o)
                              /usr/local/xenon/xenon/lib/32/libc.a(lib_a-fflush.o) (_fwalk_reent)
/usr/local/xenon/xenon/lib/32/libc.a(lib_a-locale.o)
                              /usr/local/xenon/xenon/lib/32/libc.a(lib_a-svfprintf.o) (_localeconv_r)
/usr/local/xenon/xenon/lib/32/libc.a(lib_a-makebuf.o)
                              /usr/local/xenon/xenon/lib/32/libc.a(lib_a-wsetup.o) (__smakebuf_r)
/usr/local/xenon/xenon/lib/32/libc.a(lib_a-memmove.o)
                              /usr/local/xenon/xenon/lib/32/libc.a(lib_a-svfprintf.o) (memmove)
/usr/local/xenon/xenon/lib/32/libc.a(lib_a-mprec.o)
                              /usr/local/xenon/xenon/lib/32/libc.a(lib_a-dtoa.o) (_Bfree)
/usr/local/xenon/xenon/lib/32/libc.a(lib_a-reallocr.o)
                              /usr/local/xenon/xenon/lib/32/libc.a(lib_a-svfprintf.o) (_realloc_r)
/usr/local/xenon/xenon/lib/32/libc.a(lib_a-reent.o)
                              /usr/local/xenon/xenon/lib/32/libc.a(lib_a-sbrkr.o) (errno)
/usr/local/xenon/xenon/lib/32/libc.a(lib_a-signal.o)
                              /usr/local/xenon/xenon/lib/32/libc.a(lib_a-abort.o) (raise)
/usr/local/xenon/xenon/lib/32/libc.a(lib_a-signalr.o)
                              /usr/local/xenon/xenon/lib/32/libc.a(lib_a-signal.o) (_getpid_r)
/usr/local/xenon/xenon/lib/32/libc.a(lib_a-s_isinfd.o)
                              /usr/local/xenon/xenon/lib/32/libc.a(lib_a-svfprintf.o) (__isinfd)
/usr/local/xenon/xenon/lib/32/libc.a(lib_a-s_isnand.o)
                              /usr/local/xenon/xenon/lib/32/libc.a(lib_a-svfprintf.o) (__isnand)
/usr/local/xenon/xenon/lib/32/libc.a(lib_a-stdio.o)
                              /usr/local/xenon/xenon/lib/32/libc.a(lib_a-findfp.o) (__sclose)
/usr/local/xenon/xenon/lib/32/libc.a(lib_a-writer.o)
                              /usr/local/xenon/xenon/lib/32/libc.a(lib_a-stdio.o) (_write_r)
/usr/local/xenon/xenon/lib/32/libc.a(lib_a-callocr.o)
                              /usr/local/xenon/xenon/lib/32/libc.a(lib_a-mprec.o) (_calloc_r)
/usr/local/xenon/xenon/lib/32/libc.a(lib_a-closer.o)
                              /usr/local/xenon/xenon/lib/32/libc.a(lib_a-stdio.o) (_close_r)
/usr/local/xenon/xenon/lib/32/libc.a(lib_a-fclose.o)
                              /usr/local/xenon/xenon/lib/32/libc.a(lib_a-findfp.o) (fclose)
/usr/local/xenon/xenon/lib/32/libc.a(lib_a-fstatr.o)
                              /usr/local/xenon/xenon/lib/32/libc.a(lib_a-makebuf.o) (_fstat_r)
/usr/local/xenon/xenon/lib/32/libc.a(lib_a-isattyr.o)
                              /usr/local/xenon/xenon/lib/32/libc.a(lib_a-makebuf.o) (_isatty_r)
/usr/local/xenon/xenon/lib/32/libc.a(lib_a-lseekr.o)
                              /usr/local/xenon/xenon/lib/32/libc.a(lib_a-stdio.o) (_lseek_r)
/usr/local/xenon/xenon/lib/32/libc.a(lib_a-readr.o)
                              /usr/local/xenon/xenon/lib/32/libc.a(lib_a-stdio.o) (_read_r)

Allocating common symbols
Common symbol       size              file

errno               0x4               /usr/local/xenon/xenon/lib/32/libc.a(lib_a-reent.o)
xe                  0x4               /usr/local/xenon/usr/lib/libSDL.a(SDL_nullvideo.o)
cache_mutex         0x4               /usr/local/xenon/usr/lib/libxenon.a(fat_rb.o)
sdl_ps              0x4               /usr/local/xenon/usr/lib/libSDL.a(SDL_nullvideo.o)
sdl_vs              0x4               /usr/local/xenon/usr/lib/libSDL.a(SDL_nullvideo.o)
heap_ptr            0x4               /usr/local/xenon/usr/lib/libxenon.a(newlib.o)
SDL_ProcessEvents   0x20              /usr/local/xenon/usr/lib/libSDL.a(SDL_events.o)
fb                  0x4               /usr/local/xenon/usr/lib/libSDL.a(SDL_nullvideo.o)
SDL_alarm_callback  0x4               /usr/local/xenon/usr/lib/libSDL.a(SDL_timer.o)
SDL_KeyRepeat       0x24              /usr/local/xenon/usr/lib/libSDL.a(SDL_keyboard.o)
kmempool            0xc               /usr/local/xenon/usr/lib/libxenon.a(lib_malloc.o)
usb_buses           0x10              /usr/local/xenon/usr/lib/libxenon.a(usbmain.o)
devices             0x380             /usr/local/xenon/usr/lib/libxenon.a(diskio.o)
_xe                 0x2520            /usr/local/xenon/usr/lib/libSDL.a(SDL_nullvideo.o)

Discarded input sections

 .text          0x0000000000000000        0x0 /usr/local/xenon/lib/gcc/xenon/4.4.0/../../../../xenon/lib/../lib/crt1.o
 .data          0x0000000000000000        0x0 /usr/local/xenon/lib/gcc/xenon/4.4.0/../../../../xenon/lib/../lib/crt1.o
 .bss           0x0000000000000000        0x0 /usr/local/xenon/lib/gcc/xenon/4.4.0/../../../../xenon/lib/../lib/crt1.o
 .text          0x0000000000000000        0x0 /usr/local/xenon/lib/gcc/xenon/4.4.0/../../../../xenon/lib/../lib/crti.o
 .data          0x0000000000000000        0x0 /usr/local/xenon/lib/gcc/xenon/4.4.0/../../../../xenon/lib/../lib/crti.o
 .bss           0x0000000000000000        0x0 /usr/local/xenon/lib/gcc/xenon/4.4.0/../../../../xenon/lib/../lib/crti.o
 .init          0x0000000000000000        0x0 /usr/local/xenon/lib/gcc/xenon/4.4.0/../../../../xenon/lib/../lib/crti.o
 .fini          0x0000000000000000        0x0 /usr/local/xenon/lib/gcc/xenon/4.4.0/../../../../xenon/lib/../lib/crti.o
 .text          0x0000000000000000        0x0 /usr/local/xenon/lib/gcc/xenon/4.4.0/32/crtbegin.o
 .data          0x0000000000000000        0x0 /usr/local/xenon/lib/gcc/xenon/4.4.0/32/crtbegin.o
 .bss           0x0000000000000000        0x0 /usr/local/xenon/lib/gcc/xenon/4.4.0/32/crtbegin.o
 .got2          0x0000000000000000        0x0 /usr/local/xenon/lib/gcc/xenon/4.4.0/32/crtbegin.o
 .ctors         0x0000000000000000        0x0 /usr/local/xenon/lib/gcc/xenon/4.4.0/32/crtbegin.o
 .dtors         0x0000000000000000        0x0 /usr/local/xenon/lib/gcc/xenon/4.4.0/32/crtbegin.o
 .jcr           0x0000000000000000        0x0 /usr/local/xenon/lib/gcc/xenon/4.4.0/32/crtbegin.o
 .fini          0x0000000000000000        0x0 /usr/local/xenon/lib/gcc/xenon/4.4.0/32/crtbegin.o
 .init          0x0000000000000000        0x0 /usr/local/xenon/lib/gcc/xenon/4.4.0/32/crtbegin.o
 .text          0x0000000000000000        0x0 main.o
 .data          0x0000000000000000        0x0 main.o
 .bss           0x0000000000000000        0x0 main.o
 .data          0x0000000000000000        0x0 /usr/local/xenon/usr/lib/libxenon.a(startup_from_xell.o)
 .bss           0x0000000000000000        0x0 /usr/local/xenon/usr/lib/libxenon.a(startup_from_xell.o)
 .text          0x0000000000000000        0x0 /usr/local/xenon/usr/lib/libxenon.a(console.o)
 .data          0x0000000000000000        0x0 /usr/local/xenon/usr/lib/libxenon.a(console.o)
 .bss           0x0000000000000000        0x0 /usr/local/xenon/usr/lib/libxenon.a(console.o)
 .text.console_pset
                0x0000000000000000        0x0 /usr/local/xenon/usr/lib/libxenon.a(console.o)
 .text.console_set_colors
                0x0000000000000000        0x0 /usr/local/xenon/usr/lib/libxenon.a(console.o)
 .text.console_close
                0x0000000000000000        0x0 /usr/local/xenon/usr/lib/libxenon.a(console.o)
 .text          0x0000000000000000        0x0 /usr/local/xenon/usr/lib/libxenon.a(newlib.o)
 .data          0x0000000000000000        0x0 /usr/local/xenon/usr/lib/libxenon.a(newlib.o)
 .bss           0x0000000000000000        0x0 /usr/local/xenon/usr/lib/libxenon.a(newlib.o)
 .text.vfs_default_lseek
                0x0000000000000000        0x0 /usr/local/xenon/usr/lib/libxenon.a(newlib.o)
 .text.unlink   0x0000000000000000        0x0 /usr/local/xenon/usr/lib/libxenon.a(newlib.o)
 .text.readdir  0x0000000000000000        0x0 /usr/local/xenon/usr/lib/libxenon.a(newlib.o)
 .text.closedir
                0x0000000000000000        0x0 /usr/local/xenon/usr/lib/libxenon.a(newlib.o)
 .text.opendir  0x0000000000000000        0x0 /usr/local/xenon/usr/lib/libxenon.a(newlib.o)
 .text.open     0x0000000000000000        0x0 /usr/local/xenon/usr/lib/libxenon.a(newlib.o)
 .bss.dd_array  0x0000000000000000        0x0 /usr/local/xenon/usr/lib/libxenon.a(newlib.o)
 .text          0x0000000000000000        0x0 /usr/local/xenon/usr/lib/libxenon.a(lib_malloc.o)
 .data          0x0000000000000000        0x0 /usr/local/xenon/usr/lib/libxenon.a(lib_malloc.o)
 .bss           0x0000000000000000        0x0 /usr/local/xenon/usr/lib/libxenon.a(lib_malloc.o)
 .text.kmeminit
                0x0000000000000000        0x0 /usr/local/xenon/usr/lib/libxenon.a(lib_malloc.o)
 .text.kmempoolbase
                0x0000000000000000        0x0 /usr/local/xenon/usr/lib/libxenon.a(lib_malloc.o)
 .text.kmempoolsize
                0x0000000000000000        0x0 /usr/local/xenon/usr/lib/libxenon.a(lib_malloc.o)
 .text.kmemstats
                0x0000000000000000        0x0 /usr/local/xenon/usr/lib/libxenon.a(lib_malloc.o)
 .data          0x0000000000000000        0x0 /usr/local/xenon/usr/lib/libxenon.a(atomic.o)
 .bss           0x0000000000000000        0x0 /usr/local/xenon/usr/lib/libxenon.a(atomic.o)
 .data          0x0000000000000000        0x0 /usr/local/xenon/usr/lib/libxenon.a(cache.o)
 .bss           0x0000000000000000        0x0 /usr/local/xenon/usr/lib/libxenon.a(cache.o)
 .text          0x0000000000000000        0x0 /usr/local/xenon/usr/lib/libxenon.a(except.o)
 .data          0x0000000000000000        0x0 /usr/local/xenon/usr/lib/libxenon.a(except.o)
 .bss           0x0000000000000000        0x0 /usr/local/xenon/usr/lib/libxenon.a(except.o)
 .text          0x0000000000000000        0x0 /usr/local/xenon/usr/lib/libxenon.a(vm.o)
 .data          0x0000000000000000        0x0 /usr/local/xenon/usr/lib/libxenon.a(vm.o)
 .bss           0x0000000000000000        0x0 /usr/local/xenon/usr/lib/libxenon.a(vm.o)
 .text          0x0000000000000000        0x0 /usr/local/xenon/usr/lib/libxenon.a(usbmain.o)
 .data          0x0000000000000000        0x0 /usr/local/xenon/usr/lib/libxenon.a(usbmain.o)
 .bss           0x0000000000000000        0x0 /usr/local/xenon/usr/lib/libxenon.a(usbmain.o)
 .text          0x0000000000000000        0x0 /usr/local/xenon/usr/lib/libxenon.a(xenon_uart.o)
 .data          0x0000000000000000        0x0 /usr/local/xenon/usr/lib/libxenon.a(xenon_uart.o)
 .bss           0x0000000000000000        0x0 /usr/local/xenon/usr/lib/libxenon.a(xenon_uart.o)
 .text.kbhit    0x0000000000000000        0x0 /usr/local/xenon/usr/lib/libxenon.a(xenon_uart.o)
 .text.getch    0x0000000000000000        0x0 /usr/local/xenon/usr/lib/libxenon.a(xenon_uart.o)
 .text          0x0000000000000000        0x0 /usr/local/xenon/usr/lib/libxenon.a(xenos.o)
 .data          0x0000000000000000        0x0 /usr/local/xenon/usr/lib/libxenon.a(xenos.o)
 .bss           0x0000000000000000        0x0 /usr/local/xenon/usr/lib/libxenon.a(xenos.o)
 .text          0x0000000000000000        0x0 /usr/local/xenon/usr/lib/libxenon.a(io.o)
 .data          0x0000000000000000        0x0 /usr/local/xenon/usr/lib/libxenon.a(io.o)
 .bss           0x0000000000000000        0x0 /usr/local/xenon/usr/lib/libxenon.a(io.o)
 .text          0x0000000000000000        0x0 /usr/local/xenon/usr/lib/libxenon.a(time.o)
 .data          0x0000000000000000        0x0 /usr/local/xenon/usr/lib/libxenon.a(time.o)
 .bss           0x0000000000000000        0x0 /usr/local/xenon/usr/lib/libxenon.a(time.o)
 .text          0x0000000000000000        0x0 /usr/local/xenon/usr/lib/libxenon.a(ohci.o)
 .data          0x0000000000000000        0x0 /usr/local/xenon/usr/lib/libxenon.a(ohci.o)
 .bss           0x0000000000000000        0x0 /usr/local/xenon/usr/lib/libxenon.a(ohci.o)
 .sbss.ohcidebug
                0x0000000000000000        0x0 /usr/local/xenon/usr/lib/libxenon.a(ohci.o)
 .text          0x0000000000000000        0x0 /usr/local/xenon/usr/lib/libxenon.a(usbd.o)
 .data          0x0000000000000000        0x0 /usr/local/xenon/usr/lib/libxenon.a(usbd.o)
 .bss           0x0000000000000000        0x0 /usr/local/xenon/usr/lib/libxenon.a(usbd.o)
 .text.usb_cancel_request
                0x0000000000000000        0x0 /usr/local/xenon/usr/lib/libxenon.a(usbd.o)
 .text.usb_destroy_pipe
                0x0000000000000000        0x0 /usr/local/xenon/usr/lib/libxenon.a(usbd.o)
 .text          0x0000000000000000        0x0 /usr/local/xenon/usr/lib/libxenon.a(usbdevs.o)
 .data          0x0000000000000000        0x0 /usr/local/xenon/usr/lib/libxenon.a(usbdevs.o)
 .bss           0x0000000000000000        0x0 /usr/local/xenon/usr/lib/libxenon.a(usbdevs.o)
 .text          0x0000000000000000        0x0 /usr/local/xenon/usr/lib/libxenon.a(usbhid.o)
 .data          0x0000000000000000        0x0 /usr/local/xenon/usr/lib/libxenon.a(usbhid.o)
 .bss           0x0000000000000000        0x0 /usr/local/xenon/usr/lib/libxenon.a(usbhid.o)
 .text          0x0000000000000000        0x0 /usr/local/xenon/usr/lib/libxenon.a(usbhub.o)
 .data          0x0000000000000000        0x0 /usr/local/xenon/usr/lib/libxenon.a(usbhub.o)
 .bss           0x0000000000000000        0x0 /usr/local/xenon/usr/lib/libxenon.a(usbhub.o)
 .text.usbhub_dumpbus
                0x0000000000000000        0x0 /usr/local/xenon/usr/lib/libxenon.a(usbhub.o)
 .text.usbhub_dumpbus1
                0x0000000000000000        0x0 /usr/local/xenon/usr/lib/libxenon.a(usbhub.o)
 .text          0x0000000000000000        0x0 /usr/local/xenon/usr/lib/libxenon.a(usbmass.o)
 .data          0x0000000000000000        0x0 /usr/local/xenon/usr/lib/libxenon.a(usbmass.o)
 .bss           0x0000000000000000        0x0 /usr/local/xenon/usr/lib/libxenon.a(usbmass.o)
 .text.usbmass_read_capacity
                0x0000000000000000        0x0 /usr/local/xenon/usr/lib/libxenon.a(usbmass.o)
 .text          0x0000000000000000        0x0 /usr/local/xenon/usr/lib/libxenon.a(xenon_gpio.o)
 .data          0x0000000000000000        0x0 /usr/local/xenon/usr/lib/libxenon.a(xenon_gpio.o)
 .bss           0x0000000000000000        0x0 /usr/local/xenon/usr/lib/libxenon.a(xenon_gpio.o)
 .text.xenon_gpio_control
                0x0000000000000000        0x0 /usr/local/xenon/usr/lib/libxenon.a(xenon_gpio.o)
 .rodata.C.0.1730
                0x0000000000000000        0x0 /usr/local/xenon/usr/lib/libxenon.a(xenon_gpio.o)
 .text          0x0000000000000000        0x0 /usr/local/xenon/usr/lib/libxenon.a(xenon_smc.o)
 .data          0x0000000000000000        0x0 /usr/local/xenon/usr/lib/libxenon.a(xenon_smc.o)
 .bss           0x0000000000000000        0x0 /usr/local/xenon/usr/lib/libxenon.a(xenon_smc.o)
 .text.xenon_smc_query_sensors
                0x0000000000000000        0x0 /usr/local/xenon/usr/lib/libxenon.a(xenon_smc.o)
 .text.xenon_smc_start_bootanim
                0x0000000000000000        0x0 /usr/local/xenon/usr/lib/libxenon.a(xenon_smc.o)
 .text.xenon_smc_power_reboot
                0x0000000000000000        0x0 /usr/local/xenon/usr/lib/libxenon.a(xenon_smc.o)
 .text.xenon_smc_power_shutdown
                0x0000000000000000        0x0 /usr/local/xenon/usr/lib/libxenon.a(xenon_smc.o)
 .text.xenon_smc_set_power_led
                0x0000000000000000        0x0 /usr/local/xenon/usr/lib/libxenon.a(xenon_smc.o)
 .text.xenon_smc_set_led
                0x0000000000000000        0x0 /usr/local/xenon/usr/lib/libxenon.a(xenon_smc.o)
 .text.xenon_smc_i2c_read
                0x0000000000000000        0x0 /usr/local/xenon/usr/lib/libxenon.a(xenon_smc.o)
 .text          0x0000000000000000        0x0 /usr/local/xenon/usr/lib/libxenon.a(xenon_config.o)
 .data          0x0000000000000000        0x0 /usr/local/xenon/usr/lib/libxenon.a(xenon_config.o)
 .bss           0x0000000000000000        0x0 /usr/local/xenon/usr/lib/libxenon.a(xenon_config.o)
 .text.xenon_config_get_vid_delta
                0x0000000000000000        0x0 /usr/local/xenon/usr/lib/libxenon.a(xenon_config.o)
 .text.xenon_config_get_mac_addr
                0x0000000000000000        0x0 /usr/local/xenon/usr/lib/libxenon.a(xenon_config.o)
 .rodata.C.4.2940
                0x0000000000000000        0x0 /usr/local/xenon/usr/lib/libxenon.a(xenon_config.o)
 .text          0x0000000000000000        0x0 /usr/local/xenon/usr/lib/libxenon.a(diskio.o)
 .data          0x0000000000000000        0x0 /usr/local/xenon/usr/lib/libxenon.a(diskio.o)
 .bss           0x0000000000000000        0x0 /usr/local/xenon/usr/lib/libxenon.a(diskio.o)
 .text.bdev_enum
                0x0000000000000000        0x0 /usr/local/xenon/usr/lib/libxenon.a(diskio.o)
 .text.bdev_open
                0x0000000000000000        0x0 /usr/local/xenon/usr/lib/libxenon.a(diskio.o)
 .text.register_bdev_child
                0x0000000000000000        0x0 /usr/local/xenon/usr/lib/libxenon.a(diskio.o)
 .text          0x0000000000000000        0x0 /usr/local/xenon/usr/lib/libxenon.a(fat.o)
 .data          0x0000000000000000        0x0 /usr/local/xenon/usr/lib/libxenon.a(fat.o)
 .bss           0x0000000000000000        0x0 /usr/local/xenon/usr/lib/libxenon.a(fat.o)
 .text          0x0000000000000000        0x0 /usr/local/xenon/usr/lib/libxenon.a(fat_rb.o)
 .data          0x0000000000000000        0x0 /usr/local/xenon/usr/lib/libxenon.a(fat_rb.o)
 .bss           0x0000000000000000        0x0 /usr/local/xenon/usr/lib/libxenon.a(fat_rb.o)
 .text.fat_size
                0x0000000000000000        0x0 /usr/local/xenon/usr/lib/libxenon.a(fat_rb.o)
 .text.fat_get_cluster_size
                0x0000000000000000        0x0 /usr/local/xenon/usr/lib/libxenon.a(fat_rb.o)
 .text.fat_ismounted
                0x0000000000000000        0x0 /usr/local/xenon/usr/lib/libxenon.a(fat_rb.o)
 .text.fat_lock
                0x0000000000000000        0x0 /usr/local/xenon/usr/lib/libxenon.a(fat_rb.o)
 .text.fat_unlock
                0x0000000000000000        0x0 /usr/local/xenon/usr/lib/libxenon.a(fat_rb.o)
 .text.free_direntries
                0x0000000000000000        0x0 /usr/local/xenon/usr/lib/libxenon.a(fat_rb.o)
 .text.fat_remove
                0x0000000000000000        0x0 /usr/local/xenon/usr/lib/libxenon.a(fat_rb.o)
 .text.fat_rename
                0x0000000000000000        0x0 /usr/local/xenon/usr/lib/libxenon.a(fat_rb.o)
 .text.fat_create_dir
                0x0000000000000000        0x0 /usr/local/xenon/usr/lib/libxenon.a(fat_rb.o)
 .text          0x0000000000000000        0x0 /usr/local/xenon/usr/lib/libxenon.a(file_rb.o)
 .data          0x0000000000000000        0x0 /usr/local/xenon/usr/lib/libxenon.a(file_rb.o)
 .bss           0x0000000000000000        0x0 /usr/local/xenon/usr/lib/libxenon.a(file_rb.o)
 .text.release_files
                0x0000000000000000        0x0 /usr/local/xenon/usr/lib/libxenon.a(file_rb.o)
 .text.rb_write
                0x0000000000000000        0x0 /usr/local/xenon/usr/lib/libxenon.a(file_rb.o)
 .text.rb_rename
                0x0000000000000000        0x0 /usr/local/xenon/usr/lib/libxenon.a(file_rb.o)
 .text.rb_remove
                0x0000000000000000        0x0 /usr/local/xenon/usr/lib/libxenon.a(file_rb.o)
 .text          0x0000000000000000        0x0 /usr/local/xenon/usr/lib/libxenon.a(dir_rb.o)
 .data          0x0000000000000000        0x0 /usr/local/xenon/usr/lib/libxenon.a(dir_rb.o)
 .bss           0x0000000000000000        0x0 /usr/local/xenon/usr/lib/libxenon.a(dir_rb.o)
 .text.release_dirs
                0x0000000000000000        0x0 /usr/local/xenon/usr/lib/libxenon.a(dir_rb.o)
 .text.rb_rmdir
                0x0000000000000000        0x0 /usr/local/xenon/usr/lib/libxenon.a(dir_rb.o)
 .text.rb_mkdir
                0x0000000000000000        0x0 /usr/local/xenon/usr/lib/libxenon.a(dir_rb.o)
 .text          0x0000000000000000        0x0 /usr/local/xenon/usr/lib/libxenon.a(iso9660.o)
 .data          0x0000000000000000        0x0 /usr/local/xenon/usr/lib/libxenon.a(iso9660.o)
 .bss           0x0000000000000000        0x0 /usr/local/xenon/usr/lib/libxenon.a(iso9660.o)
 .text          0x0000000000000000        0x0 /usr/local/xenon/usr/lib/libxenon.a(lib_queue.o)
 .data          0x0000000000000000        0x0 /usr/local/xenon/usr/lib/libxenon.a(lib_queue.o)
 .bss           0x0000000000000000        0x0 /usr/local/xenon/usr/lib/libxenon.a(lib_queue.o)
 .text.q_dequeue
                0x0000000000000000        0x0 /usr/local/xenon/usr/lib/libxenon.a(lib_queue.o)
 .text.q_map    0x0000000000000000        0x0 /usr/local/xenon/usr/lib/libxenon.a(lib_queue.o)
 .text.q_count  0x0000000000000000        0x0 /usr/local/xenon/usr/lib/libxenon.a(lib_queue.o)
 .text.q_find   0x0000000000000000        0x0 /usr/local/xenon/usr/lib/libxenon.a(lib_queue.o)
 .text          0x0000000000000000        0x0 /usr/local/xenon/usr/lib/libxenon.a(usbctrl.o)
 .data          0x0000000000000000        0x0 /usr/local/xenon/usr/lib/libxenon.a(usbctrl.o)
 .bss           0x0000000000000000        0x0 /usr/local/xenon/usr/lib/libxenon.a(usbctrl.o)
 .text          0x0000000000000000        0x0 /usr/local/xenon/usr/lib/libxenon.a(usbdebug.o)
 .data          0x0000000000000000        0x0 /usr/local/xenon/usr/lib/libxenon.a(usbdebug.o)
 .bss           0x0000000000000000        0x0 /usr/local/xenon/usr/lib/libxenon.a(usbdebug.o)
 .text.usb_dbg_showdevice
                0x0000000000000000        0x0 /usr/local/xenon/usr/lib/libxenon.a(usbdebug.o)
 .text.usb_dbg_dumpcfgdescr
                0x0000000000000000        0x0 /usr/local/xenon/usr/lib/libxenon.a(usbdebug.o)
 .text.usb_dbg_dumpdevice
                0x0000000000000000        0x0 /usr/local/xenon/usr/lib/libxenon.a(usbdebug.o)
 .text          0x0000000000000000        0x0 /usr/local/xenon/usr/lib/libxenon.a(unicode_rb.o)
 .data          0x0000000000000000        0x0 /usr/local/xenon/usr/lib/libxenon.a(unicode_rb.o)
 .bss           0x0000000000000000        0x0 /usr/local/xenon/usr/lib/libxenon.a(unicode_rb.o)
 .text.utf16LEdecode
                0x0000000000000000        0x0 /usr/local/xenon/usr/lib/libxenon.a(unicode_rb.o)
 .text.utf16BEdecode
                0x0000000000000000        0x0 /usr/local/xenon/usr/lib/libxenon.a(unicode_rb.o)
 .text.utf8seek
                0x0000000000000000        0x0 /usr/local/xenon/usr/lib/libxenon.a(unicode_rb.o)
 .text          0x0000000000000000        0x0 /usr/local/xenon/usr/lib/libxenon.a(xenon_sfcx.o)
 .data          0x0000000000000000        0x0 /usr/local/xenon/usr/lib/libxenon.a(xenon_sfcx.o)
 .bss           0x0000000000000000        0x0 /usr/local/xenon/usr/lib/libxenon.a(xenon_sfcx.o)
 .text.sfcx_get_blocknumber
                0x0000000000000000        0x0 /usr/local/xenon/usr/lib/libxenon.a(xenon_sfcx.o)
 .text.sfcx_set_blocknumber
                0x0000000000000000        0x0 /usr/local/xenon/usr/lib/libxenon.a(xenon_sfcx.o)
 .text.sfcx_get_blockversion
                0x0000000000000000        0x0 /usr/local/xenon/usr/lib/libxenon.a(xenon_sfcx.o)
 .text.sfcx_set_blockversion
                0x0000000000000000        0x0 /usr/local/xenon/usr/lib/libxenon.a(xenon_sfcx.o)
 .text.sfcx_set_pagevalid
                0x0000000000000000        0x0 /usr/local/xenon/usr/lib/libxenon.a(xenon_sfcx.o)
 .text.sfcx_set_pageinvalid
                0x0000000000000000        0x0 /usr/local/xenon/usr/lib/libxenon.a(xenon_sfcx.o)
 .text.sfcx_is_pagevalid
                0x0000000000000000        0x0 /usr/local/xenon/usr/lib/libxenon.a(xenon_sfcx.o)
 .text.sfcx_block_to_address
                0x0000000000000000        0x0 /usr/local/xenon/usr/lib/libxenon.a(xenon_sfcx.o)
 .text.sfcx_address_to_block
                0x0000000000000000        0x0 /usr/local/xenon/usr/lib/libxenon.a(xenon_sfcx.o)
 .text.sfcx_calcecc
                0x0000000000000000        0x0 /usr/local/xenon/usr/lib/libxenon.a(xenon_sfcx.o)
 .text.sfcx_erase_block
                0x0000000000000000        0x0 /usr/local/xenon/usr/lib/libxenon.a(xenon_sfcx.o)
 .text.sfcx_write_page
                0x0000000000000000        0x0 /usr/local/xenon/usr/lib/libxenon.a(xenon_sfcx.o)
 .text.sfcx_write_block
                0x0000000000000000        0x0 /usr/local/xenon/usr/lib/libxenon.a(xenon_sfcx.o)
 .text.sfcx_read_block
                0x0000000000000000        0x0 /usr/local/xenon/usr/lib/libxenon.a(xenon_sfcx.o)
 .text          0x0000000000000000        0x0 /usr/local/xenon/usr/lib/libxenon.a(disk_rb.o)
 .data          0x0000000000000000        0x0 /usr/local/xenon/usr/lib/libxenon.a(disk_rb.o)
 .bss           0x0000000000000000        0x0 /usr/local/xenon/usr/lib/libxenon.a(disk_rb.o)
 .text.disk_partinfo
                0x0000000000000000        0x0 /usr/local/xenon/usr/lib/libxenon.a(disk_rb.o)
 .text.disk_unmount
                0x0000000000000000        0x0 /usr/local/xenon/usr/lib/libxenon.a(disk_rb.o)
 .text          0x0000000000000000        0x0 /usr/local/xenon/usr/lib/libxenon.a(input.o)
 .data          0x0000000000000000        0x0 /usr/local/xenon/usr/lib/libxenon.a(input.o)
 .bss           0x0000000000000000        0x0 /usr/local/xenon/usr/lib/libxenon.a(input.o)
 .text.get_controller_data
                0x0000000000000000        0x0 /usr/local/xenon/usr/lib/libxenon.a(input.o)
 .text          0x0000000000000000        0x0 /usr/local/xenon/usr/lib/libSDL.a(SDL.o)
 .data          0x0000000000000000        0x0 /usr/local/xenon/usr/lib/libSDL.a(SDL.o)
 .bss           0x0000000000000000        0x0 /usr/local/xenon/usr/lib/libSDL.a(SDL.o)
 .data.version  0x0000000000000000        0x0 /usr/local/xenon/usr/lib/libSDL.a(SDL.o)
 .text.SDL_WasInit
                0x0000000000000000        0x0 /usr/local/xenon/usr/lib/libSDL.a(SDL.o)
 .text.SDL_Linked_Version
                0x0000000000000000        0x0 /usr/local/xenon/usr/lib/libSDL.a(SDL.o)
 .text          0x0000000000000000        0x0 /usr/local/xenon/usr/lib/libSDL.a(SDL_error.o)
 .data          0x0000000000000000        0x0 /usr/local/xenon/usr/lib/libSDL.a(SDL_error.o)
 .bss           0x0000000000000000        0x0 /usr/local/xenon/usr/lib/libSDL.a(SDL_error.o)
 .text.SDL_LookupString
                0x0000000000000000        0x0 /usr/local/xenon/usr/lib/libSDL.a(SDL_error.o)
 .text.SDL_GetErrorMsg
                0x0000000000000000        0x0 /usr/local/xenon/usr/lib/libSDL.a(SDL_error.o)
 .rodata.SDL_GetErrorMsg
                0x0000000000000000        0x0 /usr/local/xenon/usr/lib/libSDL.a(SDL_error.o)
 .text.SDL_GetError
                0x0000000000000000        0x0 /usr/local/xenon/usr/lib/libSDL.a(SDL_error.o)
 .bss.errmsg.1686
                0x0000000000000000        0x0 /usr/local/xenon/usr/lib/libSDL.a(SDL_error.o)
 .text          0x0000000000000000        0x0 /usr/local/xenon/usr/lib/libSDL.a(SDL_fatal.o)
 .data          0x0000000000000000        0x0 /usr/local/xenon/usr/lib/libSDL.a(SDL_fatal.o)
 .bss           0x0000000000000000        0x0 /usr/local/xenon/usr/lib/libSDL.a(SDL_fatal.o)
 .text          0x0000000000000000        0x0 /usr/local/xenon/usr/lib/libSDL.a(SDL_audio.o)
 .data          0x0000000000000000        0x0 /usr/local/xenon/usr/lib/libSDL.a(SDL_audio.o)
 .bss           0x0000000000000000        0x0 /usr/local/xenon/usr/lib/libSDL.a(SDL_audio.o)
 .text.SDL_RunAudio
                0x0000000000000000        0x0 /usr/local/xenon/usr/lib/libSDL.a(SDL_audio.o)
 .text.SDL_ParseAudioFormat
                0x0000000000000000        0x0 /usr/local/xenon/usr/lib/libSDL.a(SDL_audio.o)
 .text.SDL_AudioDriverName
                0x0000000000000000        0x0 /usr/local/xenon/usr/lib/libSDL.a(SDL_audio.o)
 .text.SDL_OpenAudio
                0x0000000000000000        0x0 /usr/local/xenon/usr/lib/libSDL.a(SDL_audio.o)
 .text.SDL_GetAudioStatus
                0x0000000000000000        0x0 /usr/local/xenon/usr/lib/libSDL.a(SDL_audio.o)
 .text.SDL_PauseAudio
                0x0000000000000000        0x0 /usr/local/xenon/usr/lib/libSDL.a(SDL_audio.o)
 .text.SDL_LockAudio
                0x0000000000000000        0x0 /usr/local/xenon/usr/lib/libSDL.a(SDL_audio.o)
 .text.SDL_UnlockAudio
                0x0000000000000000        0x0 /usr/local/xenon/usr/lib/libSDL.a(SDL_audio.o)
 .text.SDL_CloseAudio
                0x0000000000000000        0x0 /usr/local/xenon/usr/lib/libSDL.a(SDL_audio.o)
 .bss.format_idx
                0x0000000000000000        0x0 /usr/local/xenon/usr/lib/libSDL.a(SDL_audio.o)
 .bss.format_idx_sub
                0x0000000000000000        0x0 /usr/local/xenon/usr/lib/libSDL.a(SDL_audio.o)
 .data.format_list
                0x0000000000000000        0x0 /usr/local/xenon/usr/lib/libSDL.a(SDL_audio.o)
 .text.SDL_FirstAudioFormat
                0x0000000000000000        0x0 /usr/local/xenon/usr/lib/libSDL.a(SDL_audio.o)
 .text.SDL_NextAudioFormat
                0x0000000000000000        0x0 /usr/local/xenon/usr/lib/libSDL.a(SDL_audio.o)
 .text.SDL_CalculateAudioSpec
                0x0000000000000000        0x0 /usr/local/xenon/usr/lib/libSDL.a(SDL_audio.o)
 .text          0x0000000000000000        0x0 /usr/local/xenon/usr/lib/libSDL.a(SDL_audiocvt.o)
 .data          0x0000000000000000        0x0 /usr/local/xenon/usr/lib/libSDL.a(SDL_audiocvt.o)
 .bss           0x0000000000000000        0x0 /usr/local/xenon/usr/lib/libSDL.a(SDL_audiocvt.o)
 .text.SDL_ConvertMono
                0x0000000000000000        0x0 /usr/local/xenon/usr/lib/libSDL.a(SDL_audiocvt.o)
 .text.SDL_ConvertStrip
                0x0000000000000000        0x0 /usr/local/xenon/usr/lib/libSDL.a(SDL_audiocvt.o)
 .text.SDL_ConvertStrip_2
                0x0000000000000000        0x0 /usr/local/xenon/usr/lib/libSDL.a(SDL_audiocvt.o)
 .text.SDL_ConvertStereo
                0x0000000000000000        0x0 /usr/local/xenon/usr/lib/libSDL.a(SDL_audiocvt.o)
 .text.SDL_ConvertSurround
                0x0000000000000000        0x0 /usr/local/xenon/usr/lib/libSDL.a(SDL_audiocvt.o)
 .text.SDL_ConvertSurround_4
                0x0000000000000000        0x0 /usr/local/xenon/usr/lib/libSDL.a(SDL_audiocvt.o)
 .text.SDL_Convert16LSB
                0x0000000000000000        0x0 /usr/local/xenon/usr/lib/libSDL.a(SDL_audiocvt.o)
 .text.SDL_Convert16MSB
                0x0000000000000000        0x0 /usr/local/xenon/usr/lib/libSDL.a(SDL_audiocvt.o)
 .text.SDL_Convert8
                0x0000000000000000        0x0 /usr/local/xenon/usr/lib/libSDL.a(SDL_audiocvt.o)
 .text.SDL_ConvertSign
                0x0000000000000000        0x0 /usr/local/xenon/usr/lib/libSDL.a(SDL_audiocvt.o)
 .text.SDL_ConvertEndian
                0x0000000000000000        0x0 /usr/local/xenon/usr/lib/libSDL.a(SDL_audiocvt.o)
 .text.SDL_RateMUL2
                0x0000000000000000        0x0 /usr/local/xenon/usr/lib/libSDL.a(SDL_audiocvt.o)
 .text.SDL_RateMUL2_c2
                0x0000000000000000        0x0 /usr/local/xenon/usr/lib/libSDL.a(SDL_audiocvt.o)
 .text.SDL_RateMUL2_c4
                0x0000000000000000        0x0 /usr/local/xenon/usr/lib/libSDL.a(SDL_audiocvt.o)
 .text.SDL_RateMUL2_c6
                0x0000000000000000        0x0 /usr/local/xenon/usr/lib/libSDL.a(SDL_audiocvt.o)
 .text.SDL_RateDIV2
                0x0000000000000000        0x0 /usr/local/xenon/usr/lib/libSDL.a(SDL_audiocvt.o)
 .text.SDL_RateDIV2_c2
                0x0000000000000000        0x0 /usr/local/xenon/usr/lib/libSDL.a(SDL_audiocvt.o)
 .text.SDL_RateDIV2_c4
                0x0000000000000000        0x0 /usr/local/xenon/usr/lib/libSDL.a(SDL_audiocvt.o)
 .text.SDL_RateDIV2_c6
                0x0000000000000000        0x0 /usr/local/xenon/usr/lib/libSDL.a(SDL_audiocvt.o)
 .text.SDL_RateSLOW
                0x0000000000000000        0x0 /usr/local/xenon/usr/lib/libSDL.a(SDL_audiocvt.o)
 .rodata        0x0000000000000000        0x0 /usr/local/xenon/usr/lib/libSDL.a(SDL_audiocvt.o)
 .text.SDL_ConvertAudio
                0x0000000000000000        0x0 /usr/local/xenon/usr/lib/libSDL.a(SDL_audiocvt.o)
 .text.SDL_BuildAudioCVT
                0x0000000000000000        0x0 /usr/local/xenon/usr/lib/libSDL.a(SDL_audiocvt.o)
 .text          0x0000000000000000        0x0 /usr/local/xenon/usr/lib/libSDL.a(SDL_events.o)
 .data          0x0000000000000000        0x0 /usr/local/xenon/usr/lib/libSDL.a(SDL_events.o)
 .bss           0x0000000000000000        0x0 /usr/local/xenon/usr/lib/libSDL.a(SDL_events.o)
 .text.SDL_Lock_EventThread
                0x0000000000000000        0x0 /usr/local/xenon/usr/lib/libSDL.a(SDL_events.o)
 .text.SDL_Unlock_EventThread
                0x0000000000000000        0x0 /usr/local/xenon/usr/lib/libSDL.a(SDL_events.o)
 .text.SDL_EventThreadID
                0x0000000000000000        0x0 /usr/local/xenon/usr/lib/libSDL.a(SDL_events.o)
 .text.SDL_WaitEvent
                0x0000000000000000        0x0 /usr/local/xenon/usr/lib/libSDL.a(SDL_events.o)
 .text.SDL_SetEventFilter
                0x0000000000000000        0x0 /usr/local/xenon/usr/lib/libSDL.a(SDL_events.o)
 .text.SDL_GetEventFilter
                0x0000000000000000        0x0 /usr/local/xenon/usr/lib/libSDL.a(SDL_events.o)
 .text.SDL_EventState
                0x0000000000000000        0x0 /usr/local/xenon/usr/lib/libSDL.a(SDL_events.o)
 .text.SDL_PrivateSysWMEvent
                0x0000000000000000        0x0 /usr/local/xenon/usr/lib/libSDL.a(SDL_events.o)
 .text          0x0000000000000000        0x0 /usr/local/xenon/usr/lib/libSDL.a(SDL_keyboard.o)
 .data          0x0000000000000000        0x0 /usr/local/xenon/usr/lib/libSDL.a(SDL_keyboard.o)
 .bss           0x0000000000000000        0x0 /usr/local/xenon/usr/lib/libSDL.a(SDL_keyboard.o)
 .text.SDL_GetKeyState
                0x0000000000000000        0x0 /usr/local/xenon/usr/lib/libSDL.a(SDL_keyboard.o)
 .text.SDL_GetModState
                0x0000000000000000        0x0 /usr/local/xenon/usr/lib/libSDL.a(SDL_keyboard.o)
 .text.SDL_SetModState
                0x0000000000000000        0x0 /usr/local/xenon/usr/lib/libSDL.a(SDL_keyboard.o)
 .text.SDL_GetKeyName
                0x0000000000000000        0x0 /usr/local/xenon/usr/lib/libSDL.a(SDL_keyboard.o)
 .text.SDL_GetKeyRepeat
                0x0000000000000000        0x0 /usr/local/xenon/usr/lib/libSDL.a(SDL_keyboard.o)
 .text          0x0000000000000000        0x0 /usr/local/xenon/usr/lib/libSDL.a(SDL_mouse.o)
 .data          0x0000000000000000        0x0 /usr/local/xenon/usr/lib/libSDL.a(SDL_mouse.o)
 .bss           0x0000000000000000        0x0 /usr/local/xenon/usr/lib/libSDL.a(SDL_mouse.o)
 .text.SDL_PrivateMouseMotion
                0x0000000000000000        0x0 /usr/local/xenon/usr/lib/libSDL.a(SDL_mouse.o)
 .text          0x0000000000000000        0x0 /usr/local/xenon/usr/lib/libSDL.a(SDL_quit.o)
 .data          0x0000000000000000        0x0 /usr/local/xenon/usr/lib/libSDL.a(SDL_quit.o)
 .bss           0x0000000000000000        0x0 /usr/local/xenon/usr/lib/libSDL.a(SDL_quit.o)
 .text.SDL_PrivateQuit
                0x0000000000000000        0x0 /usr/local/xenon/usr/lib/libSDL.a(SDL_quit.o)
 .text          0x0000000000000000        0x0 /usr/local/xenon/usr/lib/libSDL.a(SDL_getenv.o)
 .data          0x0000000000000000        0x0 /usr/local/xenon/usr/lib/libSDL.a(SDL_getenv.o)
 .bss           0x0000000000000000        0x0 /usr/local/xenon/usr/lib/libSDL.a(SDL_getenv.o)
 .text.SDL_putenv
                0x0000000000000000        0x0 /usr/local/xenon/usr/lib/libSDL.a(SDL_getenv.o)
 .text          0x0000000000000000        0x0 /usr/local/xenon/usr/lib/libSDL.a(SDL_malloc.o)
 .data          0x0000000000000000        0x0 /usr/local/xenon/usr/lib/libSDL.a(SDL_malloc.o)
 .bss           0x0000000000000000        0x0 /usr/local/xenon/usr/lib/libSDL.a(SDL_malloc.o)
 .text.has_segment_link
                0x0000000000000000        0x0 /usr/local/xenon/usr/lib/libSDL.a(SDL_malloc.o)
 .text.change_mparam
                0x0000000000000000        0x0 /usr/local/xenon/usr/lib/libSDL.a(SDL_malloc.o)
 .text.internal_mallinfo
                0x0000000000000000        0x0 /usr/local/xenon/usr/lib/libSDL.a(SDL_malloc.o)
 .text.internal_malloc_stats
                0x0000000000000000        0x0 /usr/local/xenon/usr/lib/libSDL.a(SDL_malloc.o)
 .text.mmap_alloc
                0x0000000000000000        0x0 /usr/local/xenon/usr/lib/libSDL.a(SDL_malloc.o)
 .text.mmap_resize
                0x0000000000000000        0x0 /usr/local/xenon/usr/lib/libSDL.a(SDL_malloc.o)
 .text.release_unused_segments
                0x0000000000000000        0x0 /usr/local/xenon/usr/lib/libSDL.a(SDL_malloc.o)
 .text.internal_memalign
                0x0000000000000000        0x0 /usr/local/xenon/usr/lib/libSDL.a(SDL_malloc.o)
 .text.ialloc   0x0000000000000000        0x0 /usr/local/xenon/usr/lib/libSDL.a(SDL_malloc.o)
 .text.SDL_calloc
                0x0000000000000000        0x0 /usr/local/xenon/usr/lib/libSDL.a(SDL_malloc.o)
 .text.memalign
                0x0000000000000000        0x0 /usr/local/xenon/usr/lib/libSDL.a(SDL_malloc.o)
 .text.independent_calloc
                0x0000000000000000        0x0 /usr/local/xenon/usr/lib/libSDL.a(SDL_malloc.o)
 .text.independent_comalloc
                0x0000000000000000        0x0 /usr/local/xenon/usr/lib/libSDL.a(SDL_malloc.o)
 .text.valloc   0x0000000000000000        0x0 /usr/local/xenon/usr/lib/libSDL.a(SDL_malloc.o)
 .text.pvalloc  0x0000000000000000        0x0 /usr/local/xenon/usr/lib/libSDL.a(SDL_malloc.o)
 .text.malloc_trim
                0x0000000000000000        0x0 /usr/local/xenon/usr/lib/libSDL.a(SDL_malloc.o)
 .text.malloc_footprint
                0x0000000000000000        0x0 /usr/local/xenon/usr/lib/libSDL.a(SDL_malloc.o)
 .text.malloc_max_footprint
                0x0000000000000000        0x0 /usr/local/xenon/usr/lib/libSDL.a(SDL_malloc.o)
 .text.mallinfo
                0x0000000000000000        0x0 /usr/local/xenon/usr/lib/libSDL.a(SDL_malloc.o)
 .text.malloc_stats
                0x0000000000000000        0x0 /usr/local/xenon/usr/lib/libSDL.a(SDL_malloc.o)
 .text.malloc_usable_size
                0x0000000000000000        0x0 /usr/local/xenon/usr/lib/libSDL.a(SDL_malloc.o)
 .text.mallopt  0x0000000000000000        0x0 /usr/local/xenon/usr/lib/libSDL.a(SDL_malloc.o)
 .text          0x0000000000000000        0x0 /usr/local/xenon/usr/lib/libSDL.a(SDL_string.o)
 .data          0x0000000000000000        0x0 /usr/local/xenon/usr/lib/libSDL.a(SDL_string.o)
 .bss           0x0000000000000000        0x0 /usr/local/xenon/usr/lib/libSDL.a(SDL_string.o)
 .text.SDL_ScanUnsignedLong
                0x0000000000000000        0x0 /usr/local/xenon/usr/lib/libSDL.a(SDL_string.o)
 .text.SDL_ScanUintPtrT
                0x0000000000000000        0x0 /usr/local/xenon/usr/lib/libSDL.a(SDL_string.o)
 .text.SDL_ScanFloat
                0x0000000000000000        0x0 /usr/local/xenon/usr/lib/libSDL.a(SDL_string.o)
 .text.SDL_strlcat
                0x0000000000000000        0x0 /usr/local/xenon/usr/lib/libSDL.a(SDL_string.o)
 .text.SDL_strdup
                0x0000000000000000        0x0 /usr/local/xenon/usr/lib/libSDL.a(SDL_string.o)
 .text.SDL_strrev
                0x0000000000000000        0x0 /usr/local/xenon/usr/lib/libSDL.a(SDL_string.o)
 .text.SDL_strupr
                0x0000000000000000        0x0 /usr/local/xenon/usr/lib/libSDL.a(SDL_string.o)
 .text.SDL_strlwr
                0x0000000000000000        0x0 /usr/local/xenon/usr/lib/libSDL.a(SDL_string.o)
 .text.SDL_strchr
                0x0000000000000000        0x0 /usr/local/xenon/usr/lib/libSDL.a(SDL_string.o)
 .text.SDL_strrchr
                0x0000000000000000        0x0 /usr/local/xenon/usr/lib/libSDL.a(SDL_string.o)
 .text.SDL_strstr
                0x0000000000000000        0x0 /usr/local/xenon/usr/lib/libSDL.a(SDL_string.o)
 .rodata.ntoa_table
                0x0000000000000000        0x0 /usr/local/xenon/usr/lib/libSDL.a(SDL_string.o)
 .text.SDL_ltoa
                0x0000000000000000        0x0 /usr/local/xenon/usr/lib/libSDL.a(SDL_string.o)
 .text.SDL_ultoa
                0x0000000000000000        0x0 /usr/local/xenon/usr/lib/libSDL.a(SDL_string.o)
 .text.SDL_strtoul
                0x0000000000000000        0x0 /usr/local/xenon/usr/lib/libSDL.a(SDL_string.o)
 .text.SDL_strtod
                0x0000000000000000        0x0 /usr/local/xenon/usr/lib/libSDL.a(SDL_string.o)
 .text.SDL_strncasecmp
                0x0000000000000000        0x0 /usr/local/xenon/usr/lib/libSDL.a(SDL_string.o)
 .text.SDL_sscanf
                0x0000000000000000        0x0 /usr/local/xenon/usr/lib/libSDL.a(SDL_string.o)
 .rodata.SDL_sscanf
                0x0000000000000000        0x0 /usr/local/xenon/usr/lib/libSDL.a(SDL_string.o)
 .text.SDL_snprintf
                0x0000000000000000        0x0 /usr/local/xenon/usr/lib/libSDL.a(SDL_string.o)
 .text.SDL_PrintLong
                0x0000000000000000        0x0 /usr/local/xenon/usr/lib/libSDL.a(SDL_string.o)
 .text.SDL_PrintUnsignedLong
                0x0000000000000000        0x0 /usr/local/xenon/usr/lib/libSDL.a(SDL_string.o)
 .text.SDL_PrintFloat
                0x0000000000000000        0x0 /usr/local/xenon/usr/lib/libSDL.a(SDL_string.o)
 .text.SDL_PrintString
                0x0000000000000000        0x0 /usr/local/xenon/usr/lib/libSDL.a(SDL_string.o)
 .text.SDL_vsnprintf
                0x0000000000000000        0x0 /usr/local/xenon/usr/lib/libSDL.a(SDL_string.o)
 .rodata.SDL_vsnprintf
                0x0000000000000000        0x0 /usr/local/xenon/usr/lib/libSDL.a(SDL_string.o)
 .text          0x0000000000000000        0x0 /usr/local/xenon/usr/lib/libSDL.a(SDL_thread.o)
 .data          0x0000000000000000        0x0 /usr/local/xenon/usr/lib/libSDL.a(SDL_thread.o)
 .bss           0x0000000000000000        0x0 /usr/local/xenon/usr/lib/libSDL.a(SDL_thread.o)
 .text.SDL_ThreadsQuit
                0x0000000000000000        0x0 /usr/local/xenon/usr/lib/libSDL.a(SDL_thread.o)
 .bss.SDL_global_error
                0x0000000000000000        0x0 /usr/local/xenon/usr/lib/libSDL.a(SDL_thread.o)
 .text.SDL_GetErrBuf
                0x0000000000000000        0x0 /usr/local/xenon/usr/lib/libSDL.a(SDL_thread.o)
 .text.SDL_RunThread
                0x0000000000000000        0x0 /usr/local/xenon/usr/lib/libSDL.a(SDL_thread.o)
 .text.SDL_GetThreadID
                0x0000000000000000        0x0 /usr/local/xenon/usr/lib/libSDL.a(SDL_thread.o)
 .text.SDL_KillThread
                0x0000000000000000        0x0 /usr/local/xenon/usr/lib/libSDL.a(SDL_thread.o)
 .text          0x0000000000000000        0x0 /usr/local/xenon/usr/lib/libSDL.a(SDL_timer.o)
 .data          0x0000000000000000        0x0 /usr/local/xenon/usr/lib/libSDL.a(SDL_timer.o)
 .bss           0x0000000000000000        0x0 /usr/local/xenon/usr/lib/libSDL.a(SDL_timer.o)
 .sbss.SDL_alarm_interval
                0x0000000000000000        0x0 /usr/local/xenon/usr/lib/libSDL.a(SDL_timer.o)
 .text.SDL_TimerInit
                0x0000000000000000        0x0 /usr/local/xenon/usr/lib/libSDL.a(SDL_timer.o)
 .text.SDL_TimerQuit
                0x0000000000000000        0x0 /usr/local/xenon/usr/lib/libSDL.a(SDL_timer.o)
 .text.SDL_AddTimerInternal
                0x0000000000000000        0x0 /usr/local/xenon/usr/lib/libSDL.a(SDL_timer.o)
 .text.SDL_AddTimer
                0x0000000000000000        0x0 /usr/local/xenon/usr/lib/libSDL.a(SDL_timer.o)
 .text.SDL_RemoveTimer
                0x0000000000000000        0x0 /usr/local/xenon/usr/lib/libSDL.a(SDL_timer.o)
 .text.callback_wrapper
                0x0000000000000000        0x0 /usr/local/xenon/usr/lib/libSDL.a(SDL_timer.o)
 .text.SDL_SetTimer
                0x0000000000000000        0x0 /usr/local/xenon/usr/lib/libSDL.a(SDL_timer.o)
 .sbss          0x0000000000000000        0x0 /usr/local/xenon/usr/lib/libSDL.a(SDL_timer.o)
 .text          0x0000000000000000        0x0 /usr/local/xenon/usr/lib/libSDL.a(SDL_cursor.o)
 .data          0x0000000000000000        0x0 /usr/local/xenon/usr/lib/libSDL.a(SDL_cursor.o)
 .bss           0x0000000000000000        0x0 /usr/local/xenon/usr/lib/libSDL.a(SDL_cursor.o)
 .text.SDL_GetCursor
                0x0000000000000000        0x0 /usr/local/xenon/usr/lib/libSDL.a(SDL_cursor.o)
 .text.SDL_ShowCursor
                0x0000000000000000        0x0 /usr/local/xenon/usr/lib/libSDL.a(SDL_cursor.o)
 .text.SDL_WarpMouse
                0x0000000000000000        0x0 /usr/local/xenon/usr/lib/libSDL.a(SDL_cursor.o)
 .text.SDL_CursorPaletteChanged
                0x0000000000000000        0x0 /usr/local/xenon/usr/lib/libSDL.a(SDL_cursor.o)
 .text          0x0000000000000000        0x0 /usr/local/xenon/usr/lib/libSDL.a(SDL_pixels.o)
 .data          0x0000000000000000        0x0 /usr/local/xenon/usr/lib/libSDL.a(SDL_pixels.o)
 .bss           0x0000000000000000        0x0 /usr/local/xenon/usr/lib/libSDL.a(SDL_pixels.o)
 .text.SDL_MapRGBA
                0x0000000000000000        0x0 /usr/local/xenon/usr/lib/libSDL.a(SDL_pixels.o)
 .text.SDL_GetRGBA
                0x0000000000000000        0x0 /usr/local/xenon/usr/lib/libSDL.a(SDL_pixels.o)
 .text.SDL_GetRGB
                0x0000000000000000        0x0 /usr/local/xenon/usr/lib/libSDL.a(SDL_pixels.o)
 .text.SDL_ApplyGamma
                0x0000000000000000        0x0 /usr/local/xenon/usr/lib/libSDL.a(SDL_pixels.o)
 .text          0x0000000000000000        0x0 /usr/local/xenon/usr/lib/libSDL.a(SDL_surface.o)
 .data          0x0000000000000000        0x0 /usr/local/xenon/usr/lib/libSDL.a(SDL_surface.o)
 .bss           0x0000000000000000        0x0 /usr/local/xenon/usr/lib/libSDL.a(SDL_surface.o)
 .text.SDL_CreateRGBSurfaceFrom
                0x0000000000000000        0x0 /usr/local/xenon/usr/lib/libSDL.a(SDL_surface.o)
 .text.SDL_SetColorKey
                0x0000000000000000        0x0 /usr/local/xenon/usr/lib/libSDL.a(SDL_surface.o)
 .text.SDL_SetAlpha
                0x0000000000000000        0x0 /usr/local/xenon/usr/lib/libSDL.a(SDL_surface.o)
 .text.SDL_SetAlphaChannel
                0x0000000000000000        0x0 /usr/local/xenon/usr/lib/libSDL.a(SDL_surface.o)
 .text.SDL_GetClipRect
                0x0000000000000000        0x0 /usr/local/xenon/usr/lib/libSDL.a(SDL_surface.o)
 .text.SDL_UpperBlit
                0x0000000000000000        0x0 /usr/local/xenon/usr/lib/libSDL.a(SDL_surface.o)
 .text.SDL_ConvertSurface
                0x0000000000000000        0x0 /usr/local/xenon/usr/lib/libSDL.a(SDL_surface.o)
 .text          0x0000000000000000        0x0 /usr/local/xenon/usr/lib/libSDL.a(SDL_video.o)
 .data          0x0000000000000000        0x0 /usr/local/xenon/usr/lib/libSDL.a(SDL_video.o)
 .bss           0x0000000000000000        0x0 /usr/local/xenon/usr/lib/libSDL.a(SDL_video.o)
 .text.SDL_VideoDriverName
                0x0000000000000000        0x0 /usr/local/xenon/usr/lib/libSDL.a(SDL_video.o)
 .text.SDL_GetVideoSurface
                0x0000000000000000        0x0 /usr/local/xenon/usr/lib/libSDL.a(SDL_video.o)
 .text.SDL_GetVideoInfo
                0x0000000000000000        0x0 /usr/local/xenon/usr/lib/libSDL.a(SDL_video.o)
 .text.SDL_DisplayFormat
                0x0000000000000000        0x0 /usr/local/xenon/usr/lib/libSDL.a(SDL_video.o)
 .text.SDL_DisplayFormatAlpha
                0x0000000000000000        0x0 /usr/local/xenon/usr/lib/libSDL.a(SDL_video.o)
 .text.SetPalette_logical
                0x0000000000000000        0x0 /usr/local/xenon/usr/lib/libSDL.a(SDL_video.o)
 .text.SetPalette_physical
                0x0000000000000000        0x0 /usr/local/xenon/usr/lib/libSDL.a(SDL_video.o)
 .text.SDL_SetPalette
                0x0000000000000000        0x0 /usr/local/xenon/usr/lib/libSDL.a(SDL_video.o)
 .text.SDL_SetColors
                0x0000000000000000        0x0 /usr/local/xenon/usr/lib/libSDL.a(SDL_video.o)
 .text.SDL_GL_LoadLibrary
                0x0000000000000000        0x0 /usr/local/xenon/usr/lib/libSDL.a(SDL_video.o)
 .text.SDL_GL_GetProcAddress
                0x0000000000000000        0x0 /usr/local/xenon/usr/lib/libSDL.a(SDL_video.o)
 .text.SDL_GL_SetAttribute
                0x0000000000000000        0x0 /usr/local/xenon/usr/lib/libSDL.a(SDL_video.o)
 .rodata.SDL_GL_SetAttribute
                0x0000000000000000        0x0 /usr/local/xenon/usr/lib/libSDL.a(SDL_video.o)
 .text.SDL_GL_GetAttribute
                0x0000000000000000        0x0 /usr/local/xenon/usr/lib/libSDL.a(SDL_video.o)
 .text.SDL_GL_SwapBuffers
                0x0000000000000000        0x0 /usr/local/xenon/usr/lib/libSDL.a(SDL_video.o)
 .text.SDL_GL_UpdateRectsLock
                0x0000000000000000        0x0 /usr/local/xenon/usr/lib/libSDL.a(SDL_video.o)
 .text.SDL_GL_UpdateRects
                0x0000000000000000        0x0 /usr/local/xenon/usr/lib/libSDL.a(SDL_video.o)
 .text.SDL_GL_Lock
                0x0000000000000000        0x0 /usr/local/xenon/usr/lib/libSDL.a(SDL_video.o)
 .text.SDL_GL_Unlock
                0x0000000000000000        0x0 /usr/local/xenon/usr/lib/libSDL.a(SDL_video.o)
 .text.SDL_WM_SetCaption
                0x0000000000000000        0x0 /usr/local/xenon/usr/lib/libSDL.a(SDL_video.o)
 .text.SDL_WM_GetCaption
                0x0000000000000000        0x0 /usr/local/xenon/usr/lib/libSDL.a(SDL_video.o)
 .text.CreateMaskFromColorKeyOrAlpha
                0x0000000000000000        0x0 /usr/local/xenon/usr/lib/libSDL.a(SDL_video.o)
 .text.SDL_WM_SetIcon
                0x0000000000000000        0x0 /usr/local/xenon/usr/lib/libSDL.a(SDL_video.o)
 .text.SDL_WM_IconifyWindow
                0x0000000000000000        0x0 /usr/local/xenon/usr/lib/libSDL.a(SDL_video.o)
 .text.SDL_WM_ToggleFullScreen
                0x0000000000000000        0x0 /usr/local/xenon/usr/lib/libSDL.a(SDL_video.o)
 .text.SDL_GetWMInfo
                0x0000000000000000        0x0 /usr/local/xenon/usr/lib/libSDL.a(SDL_video.o)
 .text          0x0000000000000000        0x0 /usr/local/xenon/usr/lib/libSDL.a(SDL_dummyaudio.o)
 .data          0x0000000000000000        0x0 /usr/local/xenon/usr/lib/libSDL.a(SDL_dummyaudio.o)
 .bss           0x0000000000000000        0x0 /usr/local/xenon/usr/lib/libSDL.a(SDL_dummyaudio.o)
 .text          0x0000000000000000        0x0 /usr/local/xenon/usr/lib/libSDL.a(SDL_nullvideo.o)
 .data          0x0000000000000000        0x0 /usr/local/xenon/usr/lib/libSDL.a(SDL_nullvideo.o)
 .bss           0x0000000000000000        0x0 /usr/local/xenon/usr/lib/libSDL.a(SDL_nullvideo.o)
 .text          0x0000000000000000        0x0 /usr/local/xenon/usr/lib/libSDL.a(SDL_sysmutex.o)
 .data          0x0000000000000000        0x0 /usr/local/xenon/usr/lib/libSDL.a(SDL_sysmutex.o)
 .bss           0x0000000000000000        0x0 /usr/local/xenon/usr/lib/libSDL.a(SDL_sysmutex.o)
 .text          0x0000000000000000        0x0 /usr/local/xenon/usr/lib/libSDL.a(SDL_syssem.o)
 .data          0x0000000000000000        0x0 /usr/local/xenon/usr/lib/libSDL.a(SDL_syssem.o)
 .bss           0x0000000000000000        0x0 /usr/local/xenon/usr/lib/libSDL.a(SDL_syssem.o)
 .text.SDL_SemTryWait
                0x0000000000000000        0x0 /usr/local/xenon/usr/lib/libSDL.a(SDL_syssem.o)
 .text.SDL_SemWaitTimeout
                0x0000000000000000        0x0 /usr/local/xenon/usr/lib/libSDL.a(SDL_syssem.o)
 .text.SDL_SemValue
                0x0000000000000000        0x0 /usr/local/xenon/usr/lib/libSDL.a(SDL_syssem.o)
 .text.SDL_SemPost
                0x0000000000000000        0x0 /usr/local/xenon/usr/lib/libSDL.a(SDL_syssem.o)
 .text          0x0000000000000000        0x0 /usr/local/xenon/usr/lib/libSDL.a(SDL_systhread.o)
 .data          0x0000000000000000        0x0 /usr/local/xenon/usr/lib/libSDL.a(SDL_systhread.o)
 .bss           0x0000000000000000        0x0 /usr/local/xenon/usr/lib/libSDL.a(SDL_systhread.o)
 .text.SDL_SYS_SetupThread
                0x0000000000000000        0x0 /usr/local/xenon/usr/lib/libSDL.a(SDL_systhread.o)
 .text.SDL_SYS_KillThread
                0x0000000000000000        0x0 /usr/local/xenon/usr/lib/libSDL.a(SDL_systhread.o)
 .text          0x0000000000000000        0x0 /usr/local/xenon/usr/lib/libSDL.a(SDL_systimer.o)
 .data          0x0000000000000000        0x0 /usr/local/xenon/usr/lib/libSDL.a(SDL_systimer.o)
 .bss           0x0000000000000000        0x0 /usr/local/xenon/usr/lib/libSDL.a(SDL_systimer.o)
 .text.SDL_StartTicks
                0x0000000000000000        0x0 /usr/local/xenon/usr/lib/libSDL.a(SDL_systimer.o)
 .bss.timer_alive
                0x0000000000000000        0x0 /usr/local/xenon/usr/lib/libSDL.a(SDL_systimer.o)
 .bss.timer     0x0000000000000000        0x0 /usr/local/xenon/usr/lib/libSDL.a(SDL_systimer.o)
 .text.RunTimer
                0x0000000000000000        0x0 /usr/local/xenon/usr/lib/libSDL.a(SDL_systimer.o)
 .text.SDL_SYS_TimerInit
                0x0000000000000000        0x0 /usr/local/xenon/usr/lib/libSDL.a(SDL_systimer.o)
 .text.SDL_SYS_TimerQuit
                0x0000000000000000        0x0 /usr/local/xenon/usr/lib/libSDL.a(SDL_systimer.o)
 .rodata        0x0000000000000000        0x0 /usr/local/xenon/usr/lib/libSDL.a(SDL_systimer.o)
 .text.SDL_SYS_StartTimer
                0x0000000000000000        0x0 /usr/local/xenon/usr/lib/libSDL.a(SDL_systimer.o)
 .text.SDL_SYS_StopTimer
                0x0000000000000000        0x0 /usr/local/xenon/usr/lib/libSDL.a(SDL_systimer.o)
 .data          0x0000000000000000        0x0 /usr/local/xenon/usr/lib/libSDL.a(shader_sdl.o)
 .bss           0x0000000000000000        0x0 /usr/local/xenon/usr/lib/libSDL.a(shader_sdl.o)
 .text          0x0000000000000000        0x0 /usr/local/xenon/usr/lib/libSDL.a(SDL_active.o)
 .data          0x0000000000000000        0x0 /usr/local/xenon/usr/lib/libSDL.a(SDL_active.o)
 .bss           0x0000000000000000        0x0 /usr/local/xenon/usr/lib/libSDL.a(SDL_active.o)
 .text.SDL_GetAppState
                0x0000000000000000        0x0 /usr/local/xenon/usr/lib/libSDL.a(SDL_active.o)
 .text.SDL_PrivateAppActive
                0x0000000000000000        0x0 /usr/local/xenon/usr/lib/libSDL.a(SDL_active.o)
 .text          0x0000000000000000        0x0 /usr/local/xenon/usr/lib/libSDL.a(SDL_resize.o)
 .data          0x0000000000000000        0x0 /usr/local/xenon/usr/lib/libSDL.a(SDL_resize.o)
 .bss           0x0000000000000000        0x0 /usr/local/xenon/usr/lib/libSDL.a(SDL_resize.o)
 .text          0x0000000000000000        0x0 /usr/local/xenon/usr/lib/libSDL.a(SDL_RLEaccel.o)
 .data          0x0000000000000000        0x0 /usr/local/xenon/usr/lib/libSDL.a(SDL_RLEaccel.o)
 .bss           0x0000000000000000        0x0 /usr/local/xenon/usr/lib/libSDL.a(SDL_RLEaccel.o)
 .text          0x0000000000000000        0x0 /usr/local/xenon/usr/lib/libSDL.a(SDL_blit.o)
 .data          0x0000000000000000        0x0 /usr/local/xenon/usr/lib/libSDL.a(SDL_blit.o)
 .bss           0x0000000000000000        0x0 /usr/local/xenon/usr/lib/libSDL.a(SDL_blit.o)
 .text          0x0000000000000000        0x0 /usr/local/xenon/usr/lib/libSDL.a(SDL_blit_0.o)
 .data          0x0000000000000000        0x0 /usr/local/xenon/usr/lib/libSDL.a(SDL_blit_0.o)
 .bss           0x0000000000000000        0x0 /usr/local/xenon/usr/lib/libSDL.a(SDL_blit_0.o)
 .text          0x0000000000000000        0x0 /usr/local/xenon/usr/lib/libSDL.a(SDL_blit_1.o)
 .data          0x0000000000000000        0x0 /usr/local/xenon/usr/lib/libSDL.a(SDL_blit_1.o)
 .bss           0x0000000000000000        0x0 /usr/local/xenon/usr/lib/libSDL.a(SDL_blit_1.o)
 .text          0x0000000000000000        0x0 /usr/local/xenon/usr/lib/libSDL.a(SDL_blit_N.o)
 .data          0x0000000000000000        0x0 /usr/local/xenon/usr/lib/libSDL.a(SDL_blit_N.o)
 .bss           0x0000000000000000        0x0 /usr/local/xenon/usr/lib/libSDL.a(SDL_blit_N.o)
 .text          0x0000000000000000        0x0 /usr/local/xenon/usr/lib/libSDL.a(SDL_nullevents.o)
 .data          0x0000000000000000        0x0 /usr/local/xenon/usr/lib/libSDL.a(SDL_nullevents.o)
 .bss           0x0000000000000000        0x0 /usr/local/xenon/usr/lib/libSDL.a(SDL_nullevents.o)
 .text          0x0000000000000000        0x0 /usr/local/xenon/usr/lib/libSDL.a(SDL_cpuinfo.o)
 .data          0x0000000000000000        0x0 /usr/local/xenon/usr/lib/libSDL.a(SDL_cpuinfo.o)
 .bss           0x0000000000000000        0x0 /usr/local/xenon/usr/lib/libSDL.a(SDL_cpuinfo.o)
 .text.SDL_HasRDTSC
                0x0000000000000000        0x0 /usr/local/xenon/usr/lib/libSDL.a(SDL_cpuinfo.o)
 .text.SDL_HasMMXExt
                0x0000000000000000        0x0 /usr/local/xenon/usr/lib/libSDL.a(SDL_cpuinfo.o)
 .text.SDL_Has3DNow
                0x0000000000000000        0x0 /usr/local/xenon/usr/lib/libSDL.a(SDL_cpuinfo.o)
 .text.SDL_Has3DNowExt
                0x0000000000000000        0x0 /usr/local/xenon/usr/lib/libSDL.a(SDL_cpuinfo.o)
 .text.SDL_HasSSE
                0x0000000000000000        0x0 /usr/local/xenon/usr/lib/libSDL.a(SDL_cpuinfo.o)
 .text.SDL_HasSSE2
                0x0000000000000000        0x0 /usr/local/xenon/usr/lib/libSDL.a(SDL_cpuinfo.o)
 .text.SDL_HasAltiVec
                0x0000000000000000        0x0 /usr/local/xenon/usr/lib/libSDL.a(SDL_cpuinfo.o)
 .text          0x0000000000000000        0x0 /usr/local/xenon/usr/lib/libSDL.a(SDL_blit_A.o)
 .data          0x0000000000000000        0x0 /usr/local/xenon/usr/lib/libSDL.a(SDL_blit_A.o)
 .bss           0x0000000000000000        0x0 /usr/local/xenon/usr/lib/libSDL.a(SDL_blit_A.o)
 .data          0x0000000000000000        0x0 /usr/local/xenon/xenon/lib/32/libc.a(lib_a-assert.o)
 .bss           0x0000000000000000        0x0 /usr/local/xenon/xenon/lib/32/libc.a(lib_a-assert.o)
 .data          0x0000000000000000        0x0 /usr/local/xenon/xenon/lib/32/libc.a(lib_a-atoi.o)
 .bss           0x0000000000000000        0x0 /usr/local/xenon/xenon/lib/32/libc.a(lib_a-atoi.o)
 .got2          0x0000000000000000        0x0 /usr/local/xenon/xenon/lib/32/libc.a(lib_a-atoi.o)
 .text          0x0000000000000000        0x0 /usr/local/xenon/xenon/lib/32/libc.a(lib_a-ctype_.o)
 .data          0x0000000000000000        0x0 /usr/local/xenon/xenon/lib/32/libc.a(lib_a-ctype_.o)
 .bss           0x0000000000000000        0x0 /usr/local/xenon/xenon/lib/32/libc.a(lib_a-ctype_.o)
 .got2          0x0000000000000000        0x0 /usr/local/xenon/xenon/lib/32/libc.a(lib_a-ctype_.o)
 .data          0x0000000000000000        0x0 /usr/local/xenon/xenon/lib/32/libc.a(lib_a-errno.o)
 .bss           0x0000000000000000        0x0 /usr/local/xenon/xenon/lib/32/libc.a(lib_a-errno.o)
 .data          0x0000000000000000        0x0 /usr/local/xenon/xenon/lib/32/libc.a(lib_a-exit.o)
 .bss           0x0000000000000000        0x0 /usr/local/xenon/xenon/lib/32/libc.a(lib_a-exit.o)
 .data          0x0000000000000000        0x0 /usr/local/xenon/xenon/lib/32/libc.a(lib_a-fiprintf.o)
 .bss           0x0000000000000000        0x0 /usr/local/xenon/xenon/lib/32/libc.a(lib_a-fiprintf.o)
 .text          0x0000000000000000        0x0 /usr/local/xenon/xenon/lib/32/libc.a(lib_a-impure.o)
 .data          0x0000000000000000        0x0 /usr/local/xenon/xenon/lib/32/libc.a(lib_a-impure.o)
 .bss           0x0000000000000000        0x0 /usr/local/xenon/xenon/lib/32/libc.a(lib_a-impure.o)
 .got2          0x0000000000000000        0x0 /usr/local/xenon/xenon/lib/32/libc.a(lib_a-impure.o)
 .data          0x0000000000000000        0x0 /usr/local/xenon/xenon/lib/32/libc.a(lib_a-malloc.o)
 .bss           0x0000000000000000        0x0 /usr/local/xenon/xenon/lib/32/libc.a(lib_a-malloc.o)
 .data          0x0000000000000000        0x0 /usr/local/xenon/xenon/lib/32/libc.a(lib_a-mallocr.o)
 .data          0x0000000000000000        0x0 /usr/local/xenon/xenon/lib/32/libc.a(lib_a-memchr.o)
 .bss           0x0000000000000000        0x0 /usr/local/xenon/xenon/lib/32/libc.a(lib_a-memchr.o)
 .got2          0x0000000000000000        0x0 /usr/local/xenon/xenon/lib/32/libc.a(lib_a-memchr.o)
 .data          0x0000000000000000        0x0 /usr/local/xenon/xenon/lib/32/libc.a(lib_a-memcmp.o)
 .bss           0x0000000000000000        0x0 /usr/local/xenon/xenon/lib/32/libc.a(lib_a-memcmp.o)
 .got2          0x0000000000000000        0x0 /usr/local/xenon/xenon/lib/32/libc.a(lib_a-memcmp.o)
 .data          0x0000000000000000        0x0 /usr/local/xenon/xenon/lib/32/libc.a(lib_a-memcpy.o)
 .bss           0x0000000000000000        0x0 /usr/local/xenon/xenon/lib/32/libc.a(lib_a-memcpy.o)
 .got2          0x0000000000000000        0x0 /usr/local/xenon/xenon/lib/32/libc.a(lib_a-memcpy.o)
 .data          0x0000000000000000        0x0 /usr/local/xenon/xenon/lib/32/libc.a(lib_a-memset.o)
 .bss           0x0000000000000000        0x0 /usr/local/xenon/xenon/lib/32/libc.a(lib_a-memset.o)
 .got2          0x0000000000000000        0x0 /usr/local/xenon/xenon/lib/32/libc.a(lib_a-memset.o)
 .data          0x0000000000000000        0x0 /usr/local/xenon/xenon/lib/32/libc.a(lib_a-mlock.o)
 .bss           0x0000000000000000        0x0 /usr/local/xenon/xenon/lib/32/libc.a(lib_a-mlock.o)
 .got2          0x0000000000000000        0x0 /usr/local/xenon/xenon/lib/32/libc.a(lib_a-mlock.o)
 .data          0x0000000000000000        0x0 /usr/local/xenon/xenon/lib/32/libc.a(lib_a-printf.o)
 .bss           0x0000000000000000        0x0 /usr/local/xenon/xenon/lib/32/libc.a(lib_a-printf.o)
 .data          0x0000000000000000        0x0 /usr/local/xenon/xenon/lib/32/libc.a(lib_a-putchar.o)
 .bss           0x0000000000000000        0x0 /usr/local/xenon/xenon/lib/32/libc.a(lib_a-putchar.o)
 .data          0x0000000000000000        0x0 /usr/local/xenon/xenon/lib/32/libc.a(lib_a-putc.o)
 .bss           0x0000000000000000        0x0 /usr/local/xenon/xenon/lib/32/libc.a(lib_a-putc.o)
 .data          0x0000000000000000        0x0 /usr/local/xenon/xenon/lib/32/libc.a(lib_a-puts.o)
 .bss           0x0000000000000000        0x0 /usr/local/xenon/xenon/lib/32/libc.a(lib_a-puts.o)
 .data          0x0000000000000000        0x0 /usr/local/xenon/xenon/lib/32/libc.a(lib_a-sbrkr.o)
 .bss           0x0000000000000000        0x0 /usr/local/xenon/xenon/lib/32/libc.a(lib_a-sbrkr.o)
 .data          0x0000000000000000        0x0 /usr/local/xenon/xenon/lib/32/libc.a(lib_a-snprintf.o)
 .bss           0x0000000000000000        0x0 /usr/local/xenon/xenon/lib/32/libc.a(lib_a-snprintf.o)
 .data          0x0000000000000000        0x0 /usr/local/xenon/xenon/lib/32/libc.a(lib_a-sprintf.o)
 .bss           0x0000000000000000        0x0 /usr/local/xenon/xenon/lib/32/libc.a(lib_a-sprintf.o)
 .data          0x0000000000000000        0x0 /usr/local/xenon/xenon/lib/32/libc.a(lib_a-strcasecmp.o)
 .bss           0x0000000000000000        0x0 /usr/local/xenon/xenon/lib/32/libc.a(lib_a-strcasecmp.o)
 .data          0x0000000000000000        0x0 /usr/local/xenon/xenon/lib/32/libc.a(lib_a-strcat.o)
 .bss           0x0000000000000000        0x0 /usr/local/xenon/xenon/lib/32/libc.a(lib_a-strcat.o)
 .got2          0x0000000000000000        0x0 /usr/local/xenon/xenon/lib/32/libc.a(lib_a-strcat.o)
 .data          0x0000000000000000        0x0 /usr/local/xenon/xenon/lib/32/libc.a(lib_a-strchr.o)
 .bss           0x0000000000000000        0x0 /usr/local/xenon/xenon/lib/32/libc.a(lib_a-strchr.o)
 .got2          0x0000000000000000        0x0 /usr/local/xenon/xenon/lib/32/libc.a(lib_a-strchr.o)
 .data          0x0000000000000000        0x0 /usr/local/xenon/xenon/lib/32/libc.a(lib_a-strcmp.o)
 .bss           0x0000000000000000        0x0 /usr/local/xenon/xenon/lib/32/libc.a(lib_a-strcmp.o)
 .got2          0x0000000000000000        0x0 /usr/local/xenon/xenon/lib/32/libc.a(lib_a-strcmp.o)
 .data          0x0000000000000000        0x0 /usr/local/xenon/xenon/lib/32/libc.a(lib_a-strcpy.o)
 .bss           0x0000000000000000        0x0 /usr/local/xenon/xenon/lib/32/libc.a(lib_a-strcpy.o)
 .got2          0x0000000000000000        0x0 /usr/local/xenon/xenon/lib/32/libc.a(lib_a-strcpy.o)
 .data          0x0000000000000000        0x0 /usr/local/xenon/xenon/lib/32/libc.a(lib_a-strlcpy.o)
 .bss           0x0000000000000000        0x0 /usr/local/xenon/xenon/lib/32/libc.a(lib_a-strlcpy.o)
 .got2          0x0000000000000000        0x0 /usr/local/xenon/xenon/lib/32/libc.a(lib_a-strlcpy.o)
 .data          0x0000000000000000        0x0 /usr/local/xenon/xenon/lib/32/libc.a(lib_a-strlen.o)
 .bss           0x0000000000000000        0x0 /usr/local/xenon/xenon/lib/32/libc.a(lib_a-strlen.o)
 .got2          0x0000000000000000        0x0 /usr/local/xenon/xenon/lib/32/libc.a(lib_a-strlen.o)
 .data          0x0000000000000000        0x0 /usr/local/xenon/xenon/lib/32/libc.a(lib_a-strncasecmp.o)
 .bss           0x0000000000000000        0x0 /usr/local/xenon/xenon/lib/32/libc.a(lib_a-strncasecmp.o)
 .data          0x0000000000000000        0x0 /usr/local/xenon/xenon/lib/32/libc.a(lib_a-strncmp.o)
 .bss           0x0000000000000000        0x0 /usr/local/xenon/xenon/lib/32/libc.a(lib_a-strncmp.o)
 .got2          0x0000000000000000        0x0 /usr/local/xenon/xenon/lib/32/libc.a(lib_a-strncmp.o)
 .data          0x0000000000000000        0x0 /usr/local/xenon/xenon/lib/32/libc.a(lib_a-strncpy.o)
 .bss           0x0000000000000000        0x0 /usr/local/xenon/xenon/lib/32/libc.a(lib_a-strncpy.o)
 .got2          0x0000000000000000        0x0 /usr/local/xenon/xenon/lib/32/libc.a(lib_a-strncpy.o)
 .data          0x0000000000000000        0x0 /usr/local/xenon/xenon/lib/32/libc.a(lib_a-strrchr.o)
 .bss           0x0000000000000000        0x0 /usr/local/xenon/xenon/lib/32/libc.a(lib_a-strrchr.o)
 .got2          0x0000000000000000        0x0 /usr/local/xenon/xenon/lib/32/libc.a(lib_a-strrchr.o)
 .data          0x0000000000000000        0x0 /usr/local/xenon/xenon/lib/32/libc.a(lib_a-strtok_r.o)
 .bss           0x0000000000000000        0x0 /usr/local/xenon/xenon/lib/32/libc.a(lib_a-strtok_r.o)
 .got2          0x0000000000000000        0x0 /usr/local/xenon/xenon/lib/32/libc.a(lib_a-strtok_r.o)
 .data          0x0000000000000000        0x0 /usr/local/xenon/xenon/lib/32/libc.a(lib_a-strtol.o)
 .bss           0x0000000000000000        0x0 /usr/local/xenon/xenon/lib/32/libc.a(lib_a-strtol.o)
 .data          0x0000000000000000        0x0 /usr/local/xenon/xenon/lib/32/libc.a(lib_a-svfprintf.o)
 .bss           0x0000000000000000        0x0 /usr/local/xenon/xenon/lib/32/libc.a(lib_a-svfprintf.o)
 .data          0x0000000000000000        0x0 /usr/local/xenon/xenon/lib/32/libc.a(lib_a-vfiprintf.o)
 .bss           0x0000000000000000        0x0 /usr/local/xenon/xenon/lib/32/libc.a(lib_a-vfiprintf.o)
 .data          0x0000000000000000        0x0 /usr/local/xenon/xenon/lib/32/libc.a(lib_a-vfprintf.o)
 .bss           0x0000000000000000        0x0 /usr/local/xenon/xenon/lib/32/libc.a(lib_a-vfprintf.o)
 .data          0x0000000000000000        0x0 /usr/local/xenon/xenon/lib/32/libc.a(lib_a-wbuf.o)
 .bss           0x0000000000000000        0x0 /usr/local/xenon/xenon/lib/32/libc.a(lib_a-wbuf.o)
 .data          0x0000000000000000        0x0 /usr/local/xenon/xenon/lib/32/libc.a(lib_a-wsetup.o)
 .bss           0x0000000000000000        0x0 /usr/local/xenon/xenon/lib/32/libc.a(lib_a-wsetup.o)
 .data          0x0000000000000000        0x0 /usr/local/xenon/xenon/lib/32/libc.a(lib_a-abort.o)
 .bss           0x0000000000000000        0x0 /usr/local/xenon/xenon/lib/32/libc.a(lib_a-abort.o)
 .got2          0x0000000000000000        0x0 /usr/local/xenon/xenon/lib/32/libc.a(lib_a-abort.o)
 .data          0x0000000000000000        0x0 /usr/local/xenon/xenon/lib/32/libc.a(lib_a-__call_atexit.o)
 .bss           0x0000000000000000        0x0 /usr/local/xenon/xenon/lib/32/libc.a(lib_a-__call_atexit.o)
 .data          0x0000000000000000        0x0 /usr/local/xenon/xenon/lib/32/libc.a(lib_a-dtoa.o)
 .bss           0x0000000000000000        0x0 /usr/local/xenon/xenon/lib/32/libc.a(lib_a-dtoa.o)
 .data          0x0000000000000000        0x0 /usr/local/xenon/xenon/lib/32/libc.a(lib_a-fflush.o)
 .bss           0x0000000000000000        0x0 /usr/local/xenon/xenon/lib/32/libc.a(lib_a-fflush.o)
 .data          0x0000000000000000        0x0 /usr/local/xenon/xenon/lib/32/libc.a(lib_a-findfp.o)
 .bss           0x0000000000000000        0x0 /usr/local/xenon/xenon/lib/32/libc.a(lib_a-findfp.o)
 .data          0x0000000000000000        0x0 /usr/local/xenon/xenon/lib/32/libc.a(lib_a-freer.o)
 .bss           0x0000000000000000        0x0 /usr/local/xenon/xenon/lib/32/libc.a(lib_a-freer.o)
 .data          0x0000000000000000        0x0 /usr/local/xenon/xenon/lib/32/libc.a(lib_a-fvwrite.o)
 .bss           0x0000000000000000        0x0 /usr/local/xenon/xenon/lib/32/libc.a(lib_a-fvwrite.o)
 .got2          0x0000000000000000        0x0 /usr/local/xenon/xenon/lib/32/libc.a(lib_a-fvwrite.o)
 .data          0x0000000000000000        0x0 /usr/local/xenon/xenon/lib/32/libc.a(lib_a-fwalk.o)
 .bss           0x0000000000000000        0x0 /usr/local/xenon/xenon/lib/32/libc.a(lib_a-fwalk.o)
 .got2          0x0000000000000000        0x0 /usr/local/xenon/xenon/lib/32/libc.a(lib_a-fwalk.o)
 .data          0x0000000000000000        0x0 /usr/local/xenon/xenon/lib/32/libc.a(lib_a-locale.o)
 .bss           0x0000000000000000        0x0 /usr/local/xenon/xenon/lib/32/libc.a(lib_a-locale.o)
 .sbss          0x0000000000000000        0x0 /usr/local/xenon/xenon/lib/32/libc.a(lib_a-locale.o)
 .sdata         0x0000000000000000        0x0 /usr/local/xenon/xenon/lib/32/libc.a(lib_a-locale.o)
 .data          0x0000000000000000        0x0 /usr/local/xenon/xenon/lib/32/libc.a(lib_a-makebuf.o)
 .bss           0x0000000000000000        0x0 /usr/local/xenon/xenon/lib/32/libc.a(lib_a-makebuf.o)
 .data          0x0000000000000000        0x0 /usr/local/xenon/xenon/lib/32/libc.a(lib_a-memmove.o)
 .bss           0x0000000000000000        0x0 /usr/local/xenon/xenon/lib/32/libc.a(lib_a-memmove.o)
 .got2          0x0000000000000000        0x0 /usr/local/xenon/xenon/lib/32/libc.a(lib_a-memmove.o)
 .data          0x0000000000000000        0x0 /usr/local/xenon/xenon/lib/32/libc.a(lib_a-mprec.o)
 .bss           0x0000000000000000        0x0 /usr/local/xenon/xenon/lib/32/libc.a(lib_a-mprec.o)
 .data          0x0000000000000000        0x0 /usr/local/xenon/xenon/lib/32/libc.a(lib_a-reallocr.o)
 .bss           0x0000000000000000        0x0 /usr/local/xenon/xenon/lib/32/libc.a(lib_a-reallocr.o)
 .text          0x0000000000000000        0x0 /usr/local/xenon/xenon/lib/32/libc.a(lib_a-reent.o)
 .data          0x0000000000000000        0x0 /usr/local/xenon/xenon/lib/32/libc.a(lib_a-reent.o)
 .bss           0x0000000000000000        0x0 /usr/local/xenon/xenon/lib/32/libc.a(lib_a-reent.o)
 .got2          0x0000000000000000        0x0 /usr/local/xenon/xenon/lib/32/libc.a(lib_a-reent.o)
 .data          0x0000000000000000        0x0 /usr/local/xenon/xenon/lib/32/libc.a(lib_a-signal.o)
 .bss           0x0000000000000000        0x0 /usr/local/xenon/xenon/lib/32/libc.a(lib_a-signal.o)
 .data          0x0000000000000000        0x0 /usr/local/xenon/xenon/lib/32/libc.a(lib_a-signalr.o)
 .bss           0x0000000000000000        0x0 /usr/local/xenon/xenon/lib/32/libc.a(lib_a-signalr.o)
 .data          0x0000000000000000        0x0 /usr/local/xenon/xenon/lib/32/libc.a(lib_a-s_isinfd.o)
 .bss           0x0000000000000000        0x0 /usr/local/xenon/xenon/lib/32/libc.a(lib_a-s_isinfd.o)
 .got2          0x0000000000000000        0x0 /usr/local/xenon/xenon/lib/32/libc.a(lib_a-s_isinfd.o)
 .data          0x0000000000000000        0x0 /usr/local/xenon/xenon/lib/32/libc.a(lib_a-s_isnand.o)
 .bss           0x0000000000000000        0x0 /usr/local/xenon/xenon/lib/32/libc.a(lib_a-s_isnand.o)
 .got2          0x0000000000000000        0x0 /usr/local/xenon/xenon/lib/32/libc.a(lib_a-s_isnand.o)
 .data          0x0000000000000000        0x0 /usr/local/xenon/xenon/lib/32/libc.a(lib_a-stdio.o)
 .bss           0x0000000000000000        0x0 /usr/local/xenon/xenon/lib/32/libc.a(lib_a-stdio.o)
 .got2          0x0000000000000000        0x0 /usr/local/xenon/xenon/lib/32/libc.a(lib_a-stdio.o)
 .data          0x0000000000000000        0x0 /usr/local/xenon/xenon/lib/32/libc.a(lib_a-writer.o)
 .bss           0x0000000000000000        0x0 /usr/local/xenon/xenon/lib/32/libc.a(lib_a-writer.o)
 .data          0x0000000000000000        0x0 /usr/local/xenon/xenon/lib/32/libc.a(lib_a-callocr.o)
 .bss           0x0000000000000000        0x0 /usr/local/xenon/xenon/lib/32/libc.a(lib_a-callocr.o)
 .got2          0x0000000000000000        0x0 /usr/local/xenon/xenon/lib/32/libc.a(lib_a-callocr.o)
 .data          0x0000000000000000        0x0 /usr/local/xenon/xenon/lib/32/libc.a(lib_a-closer.o)
 .bss           0x0000000000000000        0x0 /usr/local/xenon/xenon/lib/32/libc.a(lib_a-closer.o)
 .data          0x0000000000000000        0x0 /usr/local/xenon/xenon/lib/32/libc.a(lib_a-fclose.o)
 .bss           0x0000000000000000        0x0 /usr/local/xenon/xenon/lib/32/libc.a(lib_a-fclose.o)
 .data          0x0000000000000000        0x0 /usr/local/xenon/xenon/lib/32/libc.a(lib_a-fstatr.o)
 .bss           0x0000000000000000        0x0 /usr/local/xenon/xenon/lib/32/libc.a(lib_a-fstatr.o)
 .data          0x0000000000000000        0x0 /usr/local/xenon/xenon/lib/32/libc.a(lib_a-isattyr.o)
 .bss           0x0000000000000000        0x0 /usr/local/xenon/xenon/lib/32/libc.a(lib_a-isattyr.o)
 .data          0x0000000000000000        0x0 /usr/local/xenon/xenon/lib/32/libc.a(lib_a-lseekr.o)
 .bss           0x0000000000000000        0x0 /usr/local/xenon/xenon/lib/32/libc.a(lib_a-lseekr.o)
 .data          0x0000000000000000        0x0 /usr/local/xenon/xenon/lib/32/libc.a(lib_a-readr.o)
 .bss           0x0000000000000000        0x0 /usr/local/xenon/xenon/lib/32/libc.a(lib_a-readr.o)
 .text          0x0000000000000000        0x0 /usr/local/xenon/lib/gcc/xenon/4.4.0/32/crtend.o
 .data          0x0000000000000000        0x0 /usr/local/xenon/lib/gcc/xenon/4.4.0/32/crtend.o
 .bss           0x0000000000000000        0x0 /usr/local/xenon/lib/gcc/xenon/4.4.0/32/crtend.o
 .got2          0x0000000000000000        0x0 /usr/local/xenon/lib/gcc/xenon/4.4.0/32/crtend.o
 .ctors         0x0000000000000000        0x0 /usr/local/xenon/lib/gcc/xenon/4.4.0/32/crtend.o
 .dtors         0x0000000000000000        0x0 /usr/local/xenon/lib/gcc/xenon/4.4.0/32/crtend.o
 .jcr           0x0000000000000000        0x0 /usr/local/xenon/lib/gcc/xenon/4.4.0/32/crtend.o
 .init          0x0000000000000000        0x0 /usr/local/xenon/lib/gcc/xenon/4.4.0/32/crtend.o
 .text          0x0000000000000000        0x0 /usr/local/xenon/lib/gcc/xenon/4.4.0/../../../../xenon/lib/../lib/crtn.o
 .data          0x0000000000000000        0x0 /usr/local/xenon/lib/gcc/xenon/4.4.0/../../../../xenon/lib/../lib/crtn.o
 .bss           0x0000000000000000        0x0 /usr/local/xenon/lib/gcc/xenon/4.4.0/../../../../xenon/lib/../lib/crtn.o
 .init          0x0000000000000000        0x0 /usr/local/xenon/lib/gcc/xenon/4.4.0/../../../../xenon/lib/../lib/crtn.o
 .fini          0x0000000000000000        0x0 /usr/local/xenon/lib/gcc/xenon/4.4.0/../../../../xenon/lib/../lib/crtn.o

Memory Configuration

Name             Origin             Length             Attributes
*default*        0x0000000000000000 0xffffffffffffffff

Linker script and memory map

LOAD /usr/local/xenon/lib/gcc/xenon/4.4.0/../../../../xenon/lib/../lib/crt1.o
LOAD /usr/local/xenon/lib/gcc/xenon/4.4.0/../../../../xenon/lib/../lib/crti.o
LOAD /usr/local/xenon/lib/gcc/xenon/4.4.0/32/crtbegin.o
LOAD main.o
LOAD /usr/local/xenon/usr/lib/libxenon.a
LOAD /usr/local/xenon/xenon/lib/32/libm.a
LOAD /usr/local/xenon/usr/lib/libSDL.a
LOAD /usr/local/xenon/lib/gcc/xenon/4.4.0/32/libgcc.a
LOAD /usr/local/xenon/xenon/lib/32/libc.a
LOAD /usr/local/xenon/lib/gcc/xenon/4.4.0/32/libgcc.a
LOAD /usr/local/xenon/lib/gcc/xenon/4.4.0/32/crtend.o
LOAD /usr/local/xenon/lib/gcc/xenon/4.4.0/../../../../xenon/lib/../lib/crtn.o
                0x0000000080000000                . = 0x80000000

.text           0x0000000080000000    0x61cd4
 *(.except*)
 .except        0x0000000080000000     0x1dd0 /usr/local/xenon/usr/lib/libxenon.a(except.o)
                0x0000000080000000                secondary_lock
                0x0000000080000000                exc_base
                0x0000000080000004                secondary_alive
 *(.pagetable)
 .pagetable     0x0000000080001dd0       0x40 /usr/local/xenon/usr/lib/libxenon.a(vm.o)
                0x0000000080001dd0                pagetable
 *(.text*)
 .text.call_ctors
                0x0000000080001e10       0x58 /usr/local/xenon/lib/gcc/xenon/4.4.0/../../../../xenon/lib/../lib/crt1.o
                0x0000000080001e10                call_ctors
 .text.setpixel
                0x0000000080001e68       0x64 main.o
                0x0000000080001e68                setpixel
 *fill*         0x0000000080001ecc        0x4 00
 .text.DrawScreen
                0x0000000080001ed0      0x190 main.o
                0x0000000080001ed0                DrawScreen
 .text.mainInit
                0x0000000080002060       0x34 main.o
                0x0000000080002060                mainInit
 *fill*         0x0000000080002094        0x4 00
 .text.main     0x0000000080002098       0xec main.o
                0x0000000080002098                main
 *fill*         0x0000000080002184       0x7c 00
 .text          0x0000000080002200      0x2f0 /usr/local/xenon/usr/lib/libxenon.a(startup_from_xell.o)
                0x00000000800023d4                wait
                0x0000000080002200                _start
                0x0000000080002448                return_to_xell
 .text.console_clrscr
                0x00000000800024f0       0x80 /usr/local/xenon/usr/lib/libxenon.a(console.o)
                0x00000000800024f0                console_clrscr
 .text.console_init
                0x0000000080002570      0x154 /usr/local/xenon/usr/lib/libxenon.a(console.o)
                0x0000000080002570                console_init
 .text.console_newline
                0x00000000800026c4      0x118 /usr/local/xenon/usr/lib/libxenon.a(console.o)
                0x00000000800026c4                console_newline
 .text.console_putch
                0x00000000800027dc      0x18c /usr/local/xenon/usr/lib/libxenon.a(console.o)
                0x00000000800027dc                console_putch
 .text.console_stdout_hook
                0x0000000080002968       0x50 /usr/local/xenon/usr/lib/libxenon.a(console.o)
 .text.vfs_console_isatty
                0x00000000800029b8        0x8 /usr/local/xenon/usr/lib/libxenon.a(newlib.o)
                0x00000000800029b8                vfs_console_isatty
 .text.umount   0x00000000800029c0       0x54 /usr/local/xenon/usr/lib/libxenon.a(newlib.o)
                0x00000000800029c0                umount
 .text.sbrk     0x0000000080002a14       0x34 /usr/local/xenon/usr/lib/libxenon.a(newlib.o)
                0x0000000080002a14                sbrk
 .text.getpid   0x0000000080002a48        0x8 /usr/local/xenon/usr/lib/libxenon.a(newlib.o)
                0x0000000080002a48                getpid
 .text.kill     0x0000000080002a50        0x8 /usr/local/xenon/usr/lib/libxenon.a(newlib.o)
                0x0000000080002a50                kill
 .text._exit    0x0000000080002a58       0x24 /usr/local/xenon/usr/lib/libxenon.a(newlib.o)
                0x0000000080002a58                _exit
 .text.read     0x0000000080002a7c       0x88 /usr/local/xenon/usr/lib/libxenon.a(newlib.o)
                0x0000000080002a7c                read
 .text.lseek    0x0000000080002b04       0x88 /usr/local/xenon/usr/lib/libxenon.a(newlib.o)
                0x0000000080002b04                lseek
 .text.isatty   0x0000000080002b8c       0x7c /usr/local/xenon/usr/lib/libxenon.a(newlib.o)
                0x0000000080002b8c                isatty
 .text.fstat    0x0000000080002c08       0x8c /usr/local/xenon/usr/lib/libxenon.a(newlib.o)
                0x0000000080002c08                fstat
 .text.write    0x0000000080002c94       0x94 /usr/local/xenon/usr/lib/libxenon.a(newlib.o)
                0x0000000080002c94                write
 .text.close    0x0000000080002d28       0x94 /usr/local/xenon/usr/lib/libxenon.a(newlib.o)
                0x0000000080002d28                close
 .text.mount    0x0000000080002dbc       0xdc /usr/local/xenon/usr/lib/libxenon.a(newlib.o)
                0x0000000080002dbc                mount
 .text.vfs_console_open
                0x0000000080002e98       0x54 /usr/local/xenon/usr/lib/libxenon.a(newlib.o)
                0x0000000080002e98                vfs_console_open
 .text.vfs_console_write
                0x0000000080002eec       0x7c /usr/local/xenon/usr/lib/libxenon.a(newlib.o)
                0x0000000080002eec                vfs_console_write
 .text.kfree    0x0000000080002f68       0xb4 /usr/local/xenon/usr/lib/libxenon.a(lib_malloc.o)
                0x0000000080002f68                kfree
 .text.kmem_init
                0x000000008000301c       0x8c /usr/local/xenon/usr/lib/libxenon.a(lib_malloc.o)
                0x000000008000301c                kmem_init
 .text.lib_outofmemory
                0x00000000800030a8       0x28 /usr/local/xenon/usr/lib/libxenon.a(lib_malloc.o)
                0x00000000800030a8                lib_outofmemory
 .text.kmalloc  0x00000000800030d0      0x14c /usr/local/xenon/usr/lib/libxenon.a(lib_malloc.o)
                0x00000000800030d0                kmalloc
 .text          0x000000008000321c       0x84 /usr/local/xenon/usr/lib/libxenon.a(atomic.o)
                0x0000000080003244                atomic_clearset
                0x000000008000325c                lock
                0x0000000080003230                atomic_dec
                0x0000000080003290                unlock
                0x000000008000321c                atomic_inc
 .text          0x00000000800032a0       0xa8 /usr/local/xenon/usr/lib/libxenon.a(cache.o)
                0x00000000800032f0                memdcbf
                0x00000000800032a0                memdcbt
                0x0000000080003318                memicbi
                0x00000000800032c8                memdcbst
 .text.usb_do_poll
                0x0000000080003348       0xb0 /usr/local/xenon/usr/lib/libxenon.a(usbmain.o)
                0x0000000080003348                usb_do_poll
 .text.usb_init_one_ohci
                0x00000000800033f8       0xe4 /usr/local/xenon/usr/lib/libxenon.a(usbmain.o)
 .text.usb_init
                0x00000000800034dc      0x164 /usr/local/xenon/usr/lib/libxenon.a(usbmain.o)
                0x00000000800034dc                usb_init
 .text.putch    0x0000000080003640       0x60 /usr/local/xenon/usr/lib/libxenon.a(xenon_uart.o)
                0x0000000080003640                putch
 .text.xenos_is_overscan
                0x00000000800036a0       0x50 /usr/local/xenon/usr/lib/libxenon.a(xenos.o)
                0x00000000800036a0                xenos_is_overscan
 .text.xenos_read32
                0x00000000800036f0       0x24 /usr/local/xenon/usr/lib/libxenon.a(xenos.o)
                0x00000000800036f0                xenos_read32
 .text.xenos_write32
                0x0000000080003714       0x24 /usr/local/xenon/usr/lib/libxenon.a(xenos.o)
                0x0000000080003714                xenos_write32
 .text.xenos_set_mode_f2
                0x0000000080003738      0x314 /usr/local/xenon/usr/lib/libxenon.a(xenos.o)
                0x0000000080003738                xenos_set_mode_f2
 .text.xenos_set_mode_f1
                0x0000000080003a4c      0x148 /usr/local/xenon/usr/lib/libxenon.a(xenos.o)
                0x0000000080003a4c                xenos_set_mode_f1
 .text.xenos_ana_preinit
                0x0000000080003b94       0xe0 /usr/local/xenon/usr/lib/libxenon.a(xenos.o)
                0x0000000080003b94                xenos_ana_preinit
 .text.xenos_init_phase1
                0x0000000080003c74      0x3c0 /usr/local/xenon/usr/lib/libxenon.a(xenos.o)
                0x0000000080003c74                xenos_init_phase1
 .text.xenos_init_phase0
                0x0000000080004034       0xc0 /usr/local/xenon/usr/lib/libxenon.a(xenos.o)
                0x0000000080004034                xenos_init_phase0
 .text.xenos_ana_write
                0x00000000800040f4       0x70 /usr/local/xenon/usr/lib/libxenon.a(xenos.o)
 .text.xenos_init_ana_new
                0x0000000080004164      0x3a4 /usr/local/xenon/usr/lib/libxenon.a(xenos.o)
                0x0000000080004164                xenos_init_ana_new
 .text.xenos_set_mode
                0x0000000080004508      0x35c /usr/local/xenon/usr/lib/libxenon.a(xenos.o)
                0x0000000080004508                xenos_set_mode
 .text.xenos_autoset_mode
                0x0000000080004864       0xf0 /usr/local/xenon/usr/lib/libxenon.a(xenos.o)
                0x0000000080004864                xenos_autoset_mode
 .text.xenos_init
                0x0000000080004954       0xac /usr/local/xenon/usr/lib/libxenon.a(xenos.o)
                0x0000000080004954                xenos_init
 .text.read32n  0x0000000080004a00        0x8 /usr/local/xenon/usr/lib/libxenon.a(io.o)
                0x0000000080004a00                read32n
 .text.write32n
                0x0000000080004a08        0x8 /usr/local/xenon/usr/lib/libxenon.a(io.o)
                0x0000000080004a08                write32n
 .text.write32  0x0000000080004a10        0x8 /usr/local/xenon/usr/lib/libxenon.a(io.o)
                0x0000000080004a10                write32
 .text.read32   0x0000000080004a18        0x8 /usr/local/xenon/usr/lib/libxenon.a(io.o)
                0x0000000080004a18                read32
 .text.udelay   0x0000000080004a20       0x4c /usr/local/xenon/usr/lib/libxenon.a(time.o)
                0x0000000080004a20                udelay
 .text.mdelay   0x0000000080004a6c       0x54 /usr/local/xenon/usr/lib/libxenon.a(time.o)
                0x0000000080004a6c                mdelay
 .text.delay    0x0000000080004ac0       0x54 /usr/local/xenon/usr/lib/libxenon.a(time.o)
                0x0000000080004ac0                delay
 .text._ohci_allocept
                0x0000000080004b14       0x64 /usr/local/xenon/usr/lib/libxenon.a(ohci.o)
 .text._ohci_allocxfer
                0x0000000080004b78       0x5c /usr/local/xenon/usr/lib/libxenon.a(ohci.o)
 .text.ohci_stop
                0x0000000080004bd4       0x14 /usr/local/xenon/usr/lib/libxenon.a(ohci.o)
 .text.ohci_delete
                0x0000000080004be8        0x4 /usr/local/xenon/usr/lib/libxenon.a(ohci.o)
 .text.ohci_ept_cleartoggle
                0x0000000080004bec       0x48 /usr/local/xenon/usr/lib/libxenon.a(ohci.o)
 .text.ohci_ept_setaddr
                0x0000000080004c34       0x38 /usr/local/xenon/usr/lib/libxenon.a(ohci.o)
 .text.ohci_ept_setmps
                0x0000000080004c6c       0x44 /usr/local/xenon/usr/lib/libxenon.a(ohci.o)
 .text._ohci_queueept
                0x0000000080004cb0       0x5c /usr/local/xenon/usr/lib/libxenon.a(ohci.o)
 .text.ohci_ept_create
                0x0000000080004d0c      0x190 /usr/local/xenon/usr/lib/libxenon.a(ohci.o)
 .text.ohci_ept_delete
                0x0000000080004e9c      0x20c /usr/local/xenon/usr/lib/libxenon.a(ohci.o)
 .text.ohci_start
                0x00000000800050a8      0x1d4 /usr/local/xenon/usr/lib/libxenon.a(ohci.o)
 .text.ohci_roothub_strdscr
                0x000000008000527c       0x7c /usr/local/xenon/usr/lib/libxenon.a(ohci.o)
 .text.ohci_xfer
                0x00000000800052f8      0x86c /usr/local/xenon/usr/lib/libxenon.a(ohci.o)
 .text.ohci_intr
                0x0000000080005b64      0x274 /usr/local/xenon/usr/lib/libxenon.a(ohci.o)
 .text._ohci_dma_alloc
                0x0000000080005dd8       0x60 /usr/local/xenon/usr/lib/libxenon.a(ohci.o)
 .text.ohci_create
                0x0000000080005e38      0x2e0 /usr/local/xenon/usr/lib/libxenon.a(ohci.o)
 .text.usb_poll
                0x0000000080006118       0x2c /usr/local/xenon/usr/lib/libxenon.a(usbd.o)
                0x0000000080006118                usb_poll
 .text.usb_queue_request
                0x0000000080006144       0x54 /usr/local/xenon/usr/lib/libxenon.a(usbd.o)
                0x0000000080006144                usb_queue_request
 .text.usb_wait_request
                0x0000000080006198       0x48 /usr/local/xenon/usr/lib/libxenon.a(usbd.o)
                0x0000000080006198                usb_wait_request
 .text.usb_sync_request
                0x00000000800061e0       0x30 /usr/local/xenon/usr/lib/libxenon.a(usbd.o)
                0x00000000800061e0                usb_sync_request
 .text.usb_new_address
                0x0000000080006210       0x30 /usr/local/xenon/usr/lib/libxenon.a(usbd.o)
                0x0000000080006210                usb_new_address
 .text.usb_set_ep0mps
                0x0000000080006240       0x74 /usr/local/xenon/usr/lib/libxenon.a(usbd.o)
                0x0000000080006240                usb_set_ep0mps
 .text.usb_complete_request
                0x00000000800062b4       0x3c /usr/local/xenon/usr/lib/libxenon.a(usbd.o)
                0x00000000800062b4                usb_complete_request
 .text.usb_find_cfg_descr
                0x00000000800062f0       0x54 /usr/local/xenon/usr/lib/libxenon.a(usbd.o)
                0x00000000800062f0                usb_find_cfg_descr
 .text.usb_create_pipe
                0x0000000080006344      0x110 /usr/local/xenon/usr/lib/libxenon.a(usbd.o)
                0x0000000080006344                usb_create_pipe
 .text.usb_open_pipe
                0x0000000080006454       0x8c /usr/local/xenon/usr/lib/libxenon.a(usbd.o)
                0x0000000080006454                usb_open_pipe
 .text.usb_free_request
                0x00000000800064e0       0x48 /usr/local/xenon/usr/lib/libxenon.a(usbd.o)
                0x00000000800064e0                usb_free_request
 .text.usb_destroy_all_pipes
                0x0000000080006528       0xa0 /usr/local/xenon/usr/lib/libxenon.a(usbd.o)
                0x0000000080006528                usb_destroy_all_pipes
 .text.usb_destroy_device
                0x00000000800065c8       0x54 /usr/local/xenon/usr/lib/libxenon.a(usbd.o)
                0x00000000800065c8                usb_destroy_device
 .text.usb_make_request
                0x000000008000661c       0xbc /usr/local/xenon/usr/lib/libxenon.a(usbd.o)
                0x000000008000661c                usb_make_request
 .text.usb_clear_stall
                0x00000000800066d8      0x124 /usr/local/xenon/usr/lib/libxenon.a(usbd.o)
                0x00000000800066d8                usb_clear_stall
 .text.usb_make_sync_request
                0x00000000800067fc       0x48 /usr/local/xenon/usr/lib/libxenon.a(usbd.o)
                0x00000000800067fc                usb_make_sync_request
 .text.usb_std_request
                0x0000000080006844      0x2c0 /usr/local/xenon/usr/lib/libxenon.a(usbd.o)
                0x0000000080006844                usb_std_request
 .text.usb_get_device_status
                0x0000000080006b04       0x1c /usr/local/xenon/usr/lib/libxenon.a(usbd.o)
                0x0000000080006b04                usb_get_device_status
 .text.usb_get_string
                0x0000000080006b20      0x12c /usr/local/xenon/usr/lib/libxenon.a(usbd.o)
                0x0000000080006b20                usb_get_string
 .text.usb_get_descriptor
                0x0000000080006c4c       0x20 /usr/local/xenon/usr/lib/libxenon.a(usbd.o)
                0x0000000080006c4c                usb_get_descriptor
 .text.usb_get_config_descriptor
                0x0000000080006c6c       0xbc /usr/local/xenon/usr/lib/libxenon.a(usbd.o)
                0x0000000080006c6c                usb_get_config_descriptor
 .text.usb_get_device_descriptor
                0x0000000080006d28       0xc4 /usr/local/xenon/usr/lib/libxenon.a(usbd.o)
                0x0000000080006d28                usb_get_device_descriptor
 .text.usb_simple_request
                0x0000000080006dec       0x18 /usr/local/xenon/usr/lib/libxenon.a(usbd.o)
                0x0000000080006dec                usb_simple_request
 .text.usb_set_address
                0x0000000080006e04       0xc4 /usr/local/xenon/usr/lib/libxenon.a(usbd.o)
                0x0000000080006e04                usb_set_address
 .text.usb_set_configuration
                0x0000000080006ec8       0x14 /usr/local/xenon/usr/lib/libxenon.a(usbd.o)
                0x0000000080006ec8                usb_set_configuration
 .text.usb_create_device
                0x0000000080006edc       0x90 /usr/local/xenon/usr/lib/libxenon.a(usbd.o)
                0x0000000080006edc                usb_create_device
 .text.usb_initroot
                0x0000000080006f6c      0x18c /usr/local/xenon/usr/lib/libxenon.a(usbd.o)
                0x0000000080006f6c                usb_initroot
 .text.usb_delay_ms
                0x00000000800070f8       0x28 /usr/local/xenon/usr/lib/libxenon.a(usbd.o)
                0x00000000800070f8                usb_delay_ms
 .text.usb_daemon
                0x0000000080007120       0x38 /usr/local/xenon/usr/lib/libxenon.a(usbd.o)
                0x0000000080007120                usb_daemon
 .text.usb_find_driver
                0x0000000080007158      0x124 /usr/local/xenon/usr/lib/libxenon.a(usbdevs.o)
                0x0000000080007158                usb_find_driver
 .text.usbhid_detach
                0x000000008000727c        0x8 /usr/local/xenon/usr/lib/libxenon.a(usbhid.o)
 .text.usbhid_kbd_scan1
                0x0000000080007284       0x9c /usr/local/xenon/usr/lib/libxenon.a(usbhid.o)
 .text.usbhid_attach
                0x0000000080007320      0x190 /usr/local/xenon/usr/lib/libxenon.a(usbhid.o)
 .text.usbhid_ireq_callback
                0x00000000800074b0      0x18c /usr/local/xenon/usr/lib/libxenon.a(usbhid.o)
 .text.usbhub_map_tree1
                0x000000008000763c       0xa4 /usr/local/xenon/usr/lib/libxenon.a(usbhub.o)
 .text.usbhub_map_tree
                0x00000000800076e0       0x14 /usr/local/xenon/usr/lib/libxenon.a(usbhub.o)
                0x00000000800076e0                usbhub_map_tree
 .text.usbhub_map_from_device
                0x00000000800076f4       0x10 /usr/local/xenon/usr/lib/libxenon.a(usbhub.o)
                0x00000000800076f4                usbhub_map_from_device
 .text.usbhub_markdetached1
                0x0000000080007704       0x18 /usr/local/xenon/usr/lib/libxenon.a(usbhub.o)
 .text.usb_scan
                0x000000008000771c       0x10 /usr/local/xenon/usr/lib/libxenon.a(usbhub.o)
                0x000000008000771c                usb_scan
 .text.usbhub_detach
                0x000000008000772c      0x188 /usr/local/xenon/usr/lib/libxenon.a(usbhub.o)
 .text.usbhub_get_port_status
                0x00000000800078b4       0x38 /usr/local/xenon/usr/lib/libxenon.a(usbhub.o)
 .text.usbhub_scan1
                0x00000000800078ec      0x60c /usr/local/xenon/usr/lib/libxenon.a(usbhub.o)
 .text.usbhub_ireq_callback
                0x0000000080007ef8       0x90 /usr/local/xenon/usr/lib/libxenon.a(usbhub.o)
 .text.usbhub_attach
                0x0000000080007f88      0x1d4 /usr/local/xenon/usr/lib/libxenon.a(usbhub.o)
 .text.usbmass_detach
                0x000000008000815c       0x44 /usr/local/xenon/usr/lib/libxenon.a(usbmass.o)
 .text.usbmass_attach
                0x00000000800081a0      0x1d4 /usr/local/xenon/usr/lib/libxenon.a(usbmass.o)
 .text.usbmass_request_sense
                0x0000000080008374      0x1b4 /usr/local/xenon/usr/lib/libxenon.a(usbmass.o)
                0x0000000080008374                usbmass_request_sense
 .text.usbmass_stall_recovery
                0x0000000080008528       0x38 /usr/local/xenon/usr/lib/libxenon.a(usbmass.o)
 .text.usbmass_read_sector
                0x0000000080008560      0x270 /usr/local/xenon/usr/lib/libxenon.a(usbmass.o)
                0x0000000080008560                usbmass_read_sector
 .text.usbmass_read
                0x00000000800087d0       0xbc /usr/local/xenon/usr/lib/libxenon.a(usbmass.o)
                0x00000000800087d0                usbmass_read
 .text.xenon_gpio_set
                0x000000008000888c       0x5c /usr/local/xenon/usr/lib/libxenon.a(xenon_gpio.o)
                0x000000008000888c                xenon_gpio_set
 .text.xenon_gpio_set_oe
                0x00000000800088e8       0x5c /usr/local/xenon/usr/lib/libxenon.a(xenon_gpio.o)
                0x00000000800088e8                xenon_gpio_set_oe
 .text.xenon_smc_handle_bulk
                0x0000000080008944       0x98 /usr/local/xenon/usr/lib/libxenon.a(xenon_smc.o)
                0x0000000080008944                xenon_smc_handle_bulk
 .text.xenon_smc_receive_message
                0x00000000800089dc       0x90 /usr/local/xenon/usr/lib/libxenon.a(xenon_smc.o)
                0x00000000800089dc                xenon_smc_receive_message
 .text.xenon_smc_receive_response
                0x0000000080008a6c       0x50 /usr/local/xenon/usr/lib/libxenon.a(xenon_smc.o)
                0x0000000080008a6c                xenon_smc_receive_response
 .text.xenon_smc_send_message
                0x0000000080008abc       0xa0 /usr/local/xenon/usr/lib/libxenon.a(xenon_smc.o)
                0x0000000080008abc                xenon_smc_send_message
 .text.xenon_smc_read_avpack
                0x0000000080008b5c       0x54 /usr/local/xenon/usr/lib/libxenon.a(xenon_smc.o)
                0x0000000080008b5c                xenon_smc_read_avpack
 .text.xenon_smc_i2c_write
                0x0000000080008bb0       0xac /usr/local/xenon/usr/lib/libxenon.a(xenon_smc.o)
                0x0000000080008bb0                xenon_smc_i2c_write
 .text.xenon_smc_ana_read
                0x0000000080008c5c       0xdc /usr/local/xenon/usr/lib/libxenon.a(xenon_smc.o)
                0x0000000080008c5c                xenon_smc_ana_read
 .text.xenon_smc_ana_write
                0x0000000080008d38       0xb0 /usr/local/xenon/usr/lib/libxenon.a(xenon_smc.o)
                0x0000000080008d38                xenon_smc_ana_write
 .text.xenon_config_get_avregion
                0x0000000080008de8       0xac /usr/local/xenon/usr/lib/libxenon.a(xenon_config.o)
                0x0000000080008de8                xenon_config_get_avregion
 .text.xenon_config_init
                0x0000000080008e94       0xb0 /usr/local/xenon/usr/lib/libxenon.a(xenon_config.o)
                0x0000000080008e94                xenon_config_init
 .text.unregister_bdev
                0x0000000080008f44       0x38 /usr/local/xenon/usr/lib/libxenon.a(diskio.o)
                0x0000000080008f44                unregister_bdev
 .text.determine_filesystem
                0x0000000080008f7c       0x80 /usr/local/xenon/usr/lib/libxenon.a(diskio.o)
                0x0000000080008f7c                determine_filesystem
 .text.register_bdev
                0x0000000080008ffc       0xf0 /usr/local/xenon/usr/lib/libxenon.a(diskio.o)
                0x0000000080008ffc                register_bdev
 .text._fat_umount
                0x00000000800090ec       0x28 /usr/local/xenon/usr/lib/libxenon.a(fat.o)
                0x00000000800090ec                _fat_umount
 .text._fat_mount
                0x0000000080009114       0x48 /usr/local/xenon/usr/lib/libxenon.a(fat.o)
                0x0000000080009114                _fat_mount
 .text._fat_opendir
                0x000000008000915c       0x6c /usr/local/xenon/usr/lib/libxenon.a(fat.o)
                0x000000008000915c                _fat_opendir
 .text._fat_open
                0x00000000800091c8       0x4c /usr/local/xenon/usr/lib/libxenon.a(fat.o)
                0x00000000800091c8                _fat_open
 .text._fat_readdir
                0x0000000080009214       0xa4 /usr/local/xenon/usr/lib/libxenon.a(fat.o)
                0x0000000080009214                _fat_readdir
 .text._fat_closedir
                0x00000000800092b8       0x3c /usr/local/xenon/usr/lib/libxenon.a(fat.o)
                0x00000000800092b8                _fat_closedir
 .text._fat_close
                0x00000000800092f4       0x24 /usr/local/xenon/usr/lib/libxenon.a(fat.o)
                0x00000000800092f4                _fat_close
 .text._fat_fstat
                0x0000000080009318       0x4c /usr/local/xenon/usr/lib/libxenon.a(fat.o)
                0x0000000080009318                _fat_fstat
 .text._fat_read
                0x0000000080009364       0x24 /usr/local/xenon/usr/lib/libxenon.a(fat.o)
                0x0000000080009364                _fat_read
 .text._fat_lseek
                0x0000000080009388       0x24 /usr/local/xenon/usr/lib/libxenon.a(fat.o)
                0x0000000080009388                _fat_lseek
 .text.fat_init
                0x00000000800093ac       0x7c /usr/local/xenon/usr/lib/libxenon.a(fat_rb.o)
                0x00000000800093ac                fat_init
 .text.fat_time
                0x0000000080009428      0x128 /usr/local/xenon/usr/lib/libxenon.a(fat_rb.o)
 .text.fat_open
                0x0000000080009550       0x74 /usr/local/xenon/usr/lib/libxenon.a(fat_rb.o)
                0x0000000080009550                fat_open
 .text.fat_opendir
                0x00000000800095c4       0xa8 /usr/local/xenon/usr/lib/libxenon.a(fat_rb.o)
                0x00000000800095c4                fat_opendir
 .text.cluster2sec
                0x000000008000966c       0x60 /usr/local/xenon/usr/lib/libxenon.a(fat_rb.o)
 .text.update_fsinfo
                0x00000000800096cc      0x128 /usr/local/xenon/usr/lib/libxenon.a(fat_rb.o)
 .text.flush_fat_sector
                0x00000000800097f4      0x108 /usr/local/xenon/usr/lib/libxenon.a(fat_rb.o)
 .text.cache_fat_sector
                0x00000000800098fc      0x160 /usr/local/xenon/usr/lib/libxenon.a(fat_rb.o)
 .text.get_next_cluster
                0x0000000080009a5c      0x11c /usr/local/xenon/usr/lib/libxenon.a(fat_rb.o)
 .text.fat_seek
                0x0000000080009b78      0x14c /usr/local/xenon/usr/lib/libxenon.a(fat_rb.o)
                0x0000000080009b78                fat_seek
 .text.find_free_cluster
                0x0000000080009cc4      0x1bc /usr/local/xenon/usr/lib/libxenon.a(fat_rb.o)
 .text.fat_recalc_free
                0x0000000080009e80      0x174 /usr/local/xenon/usr/lib/libxenon.a(fat_rb.o)
                0x0000000080009e80                fat_recalc_free
 .text.flush_fat
                0x0000000080009ff4       0xc8 /usr/local/xenon/usr/lib/libxenon.a(fat_rb.o)
 .text.fat_unmount
                0x000000008000a0bc       0xac /usr/local/xenon/usr/lib/libxenon.a(fat_rb.o)
                0x000000008000a0bc                fat_unmount
 .text.update_fat_entry
                0x000000008000a168      0x268 /usr/local/xenon/usr/lib/libxenon.a(fat_rb.o)
 .text.fat_truncate
                0x000000008000a3d0       0xa8 /usr/local/xenon/usr/lib/libxenon.a(fat_rb.o)
                0x000000008000a3d0                fat_truncate
 .text.transfer
                0x000000008000a478      0x154 /usr/local/xenon/usr/lib/libxenon.a(fat_rb.o)
 .text.fat_readwrite
                0x000000008000a5cc      0x390 /usr/local/xenon/usr/lib/libxenon.a(fat_rb.o)
                0x000000008000a5cc                fat_readwrite
 .text.fat_getnext
                0x000000008000a95c      0x4c4 /usr/local/xenon/usr/lib/libxenon.a(fat_rb.o)
                0x000000008000a95c                fat_getnext
 .text.update_short_entry
                0x000000008000ae20      0x244 /usr/local/xenon/usr/lib/libxenon.a(fat_rb.o)
 .text.fat_closewrite
                0x000000008000b064       0xb8 /usr/local/xenon/usr/lib/libxenon.a(fat_rb.o)
                0x000000008000b064                fat_closewrite
 .text.fat_mount
                0x000000008000b11c      0x4f4 /usr/local/xenon/usr/lib/libxenon.a(fat_rb.o)
                0x000000008000b11c                fat_mount
 .text.char2dos
                0x000000008000b610       0x8c /usr/local/xenon/usr/lib/libxenon.a(fat_rb.o)
 .text.randomize_dos_name
                0x000000008000b69c      0x178 /usr/local/xenon/usr/lib/libxenon.a(fat_rb.o)
 .text.write_long_name
                0x000000008000b814      0x564 /usr/local/xenon/usr/lib/libxenon.a(fat_rb.o)
 .text.add_dir_entry
                0x000000008000bd78      0x530 /usr/local/xenon/usr/lib/libxenon.a(fat_rb.o)
 .text.fat_create_file
                0x000000008000c2a8       0x60 /usr/local/xenon/usr/lib/libxenon.a(fat_rb.o)
                0x000000008000c2a8                fat_create_file
 .text.rb_filesize
                0x000000008000c308       0x6c /usr/local/xenon/usr/lib/libxenon.a(file_rb.o)
                0x000000008000c308                rb_filesize
 .text.flush_cache
                0x000000008000c374       0xd0 /usr/local/xenon/usr/lib/libxenon.a(file_rb.o)
 .text.rb_lseek
                0x000000008000c444      0x1c4 /usr/local/xenon/usr/lib/libxenon.a(file_rb.o)
                0x000000008000c444                rb_lseek
 .text.readwrite
                0x000000008000c608      0x440 /usr/local/xenon/usr/lib/libxenon.a(file_rb.o)
 .text.rb_read  0x000000008000ca48        0x8 /usr/local/xenon/usr/lib/libxenon.a(file_rb.o)
                0x000000008000ca48                rb_read
 .text.rb_ftruncate
                0x000000008000ca50       0xc8 /usr/local/xenon/usr/lib/libxenon.a(file_rb.o)
                0x000000008000ca50                rb_ftruncate
 .text.open_internal
                0x000000008000cb18      0x39c /usr/local/xenon/usr/lib/libxenon.a(file_rb.o)
 .text.rb_open  0x000000008000ceb4        0x8 /usr/local/xenon/usr/lib/libxenon.a(file_rb.o)
                0x000000008000ceb4                rb_open
 .text.rb_fsync
                0x000000008000cebc      0x128 /usr/local/xenon/usr/lib/libxenon.a(file_rb.o)
                0x000000008000cebc                rb_fsync
 .text.rb_close
                0x000000008000cfe4       0xa0 /usr/local/xenon/usr/lib/libxenon.a(file_rb.o)
                0x000000008000cfe4                rb_close
 .text.rb_closedir
                0x000000008000d084       0x14 /usr/local/xenon/usr/lib/libxenon.a(dir_rb.o)
                0x000000008000d084                rb_closedir
 .text.rb_readdir
                0x000000008000d098       0xb0 /usr/local/xenon/usr/lib/libxenon.a(dir_rb.o)
                0x000000008000d098                rb_readdir
 .text.rb_opendir
                0x000000008000d148      0x1e8 /usr/local/xenon/usr/lib/libxenon.a(dir_rb.o)
                0x000000008000d148                rb_opendir
 .text._iso9660_lseek
                0x000000008000d330       0xa8 /usr/local/xenon/usr/lib/libxenon.a(iso9660.o)
                0x000000008000d330                _iso9660_lseek
 .text._iso9660_fstat
                0x000000008000d3d8       0x60 /usr/local/xenon/usr/lib/libxenon.a(iso9660.o)
                0x000000008000d3d8                _iso9660_fstat
 .text._iso9660_close
                0x000000008000d438       0x24 /usr/local/xenon/usr/lib/libxenon.a(iso9660.o)
                0x000000008000d438                _iso9660_close
 .text._iso9660_closedir
                0x000000008000d45c       0x28 /usr/local/xenon/usr/lib/libxenon.a(iso9660.o)
                0x000000008000d45c                _iso9660_closedir
 .text.bclear_cache
                0x000000008000d484       0x60 /usr/local/xenon/usr/lib/libxenon.a(iso9660.o)
 .text.iso_reset
                0x000000008000d4e4       0x80 /usr/local/xenon/usr/lib/libxenon.a(iso9660.o)
                0x000000008000d4e4                iso_reset
 .text.fs_iso9660_shutdown
                0x000000008000d564       0xa4 /usr/local/xenon/usr/lib/libxenon.a(iso9660.o)
                0x000000008000d564                fs_iso9660_shutdown
 .text._iso9660_umount
                0x000000008000d608        0x4 /usr/local/xenon/usr/lib/libxenon.a(iso9660.o)
                0x000000008000d608                _iso9660_umount
 .text.fs_iso9660_init
                0x000000008000d60c       0xd0 /usr/local/xenon/usr/lib/libxenon.a(iso9660.o)
                0x000000008000d60c                fs_iso9660_init
 .text._iso9660_mount
                0x000000008000d6dc        0xc /usr/local/xenon/usr/lib/libxenon.a(iso9660.o)
                0x000000008000d6dc                _iso9660_mount
 .text.init_percd
                0x000000008000d6e8      0x264 /usr/local/xenon/usr/lib/libxenon.a(iso9660.o)
 .text.bread_cache
                0x000000008000d94c      0x1ac /usr/local/xenon/usr/lib/libxenon.a(iso9660.o)
 .text._iso9660_read
                0x000000008000daf8      0x1cc /usr/local/xenon/usr/lib/libxenon.a(iso9660.o)
                0x000000008000daf8                _iso9660_read
 .text._iso9660_readdir
                0x000000008000dcc4      0x430 /usr/local/xenon/usr/lib/libxenon.a(iso9660.o)
                0x000000008000dcc4                _iso9660_readdir
 .text.find_object
                0x000000008000e0f4      0x400 /usr/local/xenon/usr/lib/libxenon.a(iso9660.o)
 .text.iso_open
                0x000000008000e4f4      0x288 /usr/local/xenon/usr/lib/libxenon.a(iso9660.o)
 .text._iso9660_opendir
                0x000000008000e77c       0x50 /usr/local/xenon/usr/lib/libxenon.a(iso9660.o)
                0x000000008000e77c                _iso9660_opendir
 .text._iso9660_open
                0x000000008000e7cc       0x50 /usr/local/xenon/usr/lib/libxenon.a(iso9660.o)
                0x000000008000e7cc                _iso9660_open
 .text.q_enqueue
                0x000000008000e81c       0x18 /usr/local/xenon/usr/lib/libxenon.a(lib_queue.o)
                0x000000008000e81c                q_enqueue
 .text.q_deqnext
                0x000000008000e834       0x30 /usr/local/xenon/usr/lib/libxenon.a(lib_queue.o)
                0x000000008000e834                q_deqnext
 .text.usbctrl_detach
                0x000000008000e864       0x5c /usr/local/xenon/usr/lib/libxenon.a(usbctrl.o)
 .text.usbctrl_attach
                0x000000008000e8c0      0x1cc /usr/local/xenon/usr/lib/libxenon.a(usbctrl.o)
 .text.usbctrl_ireq_callback
                0x000000008000ea8c      0x1a0 /usr/local/xenon/usr/lib/libxenon.a(usbctrl.o)
 .text.getstringmaybe
                0x000000008000ec2c       0x88 /usr/local/xenon/usr/lib/libxenon.a(usbdebug.o)
 .text.usb_dbg_dumpdescriptors
                0x000000008000ecb4      0x708 /usr/local/xenon/usr/lib/libxenon.a(usbdebug.o)
                0x000000008000ecb4                usb_dbg_dumpdescriptors
 .text.usb_dbg_dumpportstatus
                0x000000008000f3bc      0x284 /usr/local/xenon/usr/lib/libxenon.a(usbdebug.o)
                0x000000008000f3bc                usb_dbg_dumpportstatus
 .text.utf8encode
                0x000000008000f640       0x84 /usr/local/xenon/usr/lib/libxenon.a(unicode_rb.o)
                0x000000008000f640                utf8encode
 .text.utf8length
                0x000000008000f6c4       0x34 /usr/local/xenon/usr/lib/libxenon.a(unicode_rb.o)
                0x000000008000f6c4                utf8length
 .text.utf8decode
                0x000000008000f6f8       0xd4 /usr/local/xenon/usr/lib/libxenon.a(unicode_rb.o)
                0x000000008000f6f8                utf8decode
 .text.sfcx_readreg
                0x000000008000f7cc       0x14 /usr/local/xenon/usr/lib/libxenon.a(xenon_sfcx.o)
                0x000000008000f7cc                sfcx_readreg
 .text.sfcx_writereg
                0x000000008000f7e0       0x14 /usr/local/xenon/usr/lib/libxenon.a(xenon_sfcx.o)
                0x000000008000f7e0                sfcx_writereg
 .text.sfcx_init
                0x000000008000f7f4      0x280 /usr/local/xenon/usr/lib/libxenon.a(xenon_sfcx.o)
                0x000000008000f7f4                sfcx_init
 .text.sfcx_read_page
                0x000000008000fa74      0x170 /usr/local/xenon/usr/lib/libxenon.a(xenon_sfcx.o)
                0x000000008000fa74                sfcx_read_page
 .text.storage_write_sectors
                0x000000008000fbe4       0x40 /usr/local/xenon/usr/lib/libxenon.a(disk_rb.o)
                0x000000008000fbe4                storage_write_sectors
 .text.storage_read_sectors
                0x000000008000fc24      0x1b0 /usr/local/xenon/usr/lib/libxenon.a(disk_rb.o)
                0x000000008000fc24                storage_read_sectors
 .text.disk_init
                0x000000008000fdd4      0x154 /usr/local/xenon/usr/lib/libxenon.a(disk_rb.o)
                0x000000008000fdd4                disk_init
 .text.disk_mount
                0x000000008000ff28      0x140 /usr/local/xenon/usr/lib/libxenon.a(disk_rb.o)
                0x000000008000ff28                disk_mount
 .text.set_controller_data
                0x0000000080010068       0x5c /usr/local/xenon/usr/lib/libxenon.a(input.o)
                0x0000000080010068                set_controller_data
 .text.SDL_InitSubSystem
                0x00000000800100c4      0x194 /usr/local/xenon/usr/lib/libSDL.a(SDL.o)
                0x00000000800100c4                SDL_InitSubSystem
 .text.SDL_Init
                0x0000000080010258       0x6c /usr/local/xenon/usr/lib/libSDL.a(SDL.o)
                0x0000000080010258                SDL_Init
 .text.SDL_QuitSubSystem
                0x00000000800102c4       0xb8 /usr/local/xenon/usr/lib/libSDL.a(SDL.o)
                0x00000000800102c4                SDL_QuitSubSystem
 .text.SDL_Quit
                0x000000008001037c       0x3c /usr/local/xenon/usr/lib/libSDL.a(SDL.o)
                0x000000008001037c                SDL_Quit
 .text.SDL_SetError
                0x00000000800103b8      0x490 /usr/local/xenon/usr/lib/libSDL.a(SDL_error.o)
                0x00000000800103b8                SDL_SetError
 .text.SDL_ClearError
                0x0000000080010848       0x38 /usr/local/xenon/usr/lib/libSDL.a(SDL_error.o)
                0x0000000080010848                SDL_ClearError
 .text.SDL_Error
                0x0000000080010880       0xb8 /usr/local/xenon/usr/lib/libSDL.a(SDL_error.o)
                0x0000000080010880                SDL_Error
 .text.SDL_InstallParachute
                0x0000000080010938       0x1c /usr/local/xenon/usr/lib/libSDL.a(SDL_fatal.o)
                0x0000000080010938                SDL_InstallParachute
 .text.SDL_UninstallParachute
                0x0000000080010954       0x1c /usr/local/xenon/usr/lib/libSDL.a(SDL_fatal.o)
                0x0000000080010954                SDL_UninstallParachute
 .text.SDL_LockAudio_Default
                0x0000000080010970       0x7c /usr/local/xenon/usr/lib/libSDL.a(SDL_audio.o)
 .text.SDL_UnlockAudio_Default
                0x00000000800109ec       0x7c /usr/local/xenon/usr/lib/libSDL.a(SDL_audio.o)
 .text.SDL_AudioInit
                0x0000000080010a68      0x314 /usr/local/xenon/usr/lib/libSDL.a(SDL_audio.o)
                0x0000000080010a68                SDL_AudioInit
 .text.SDL_AudioQuit
                0x0000000080010d7c      0x160 /usr/local/xenon/usr/lib/libSDL.a(SDL_audio.o)
                0x0000000080010d7c                SDL_AudioQuit
 .text.SDL_GobbleEvents
                0x0000000080010edc      0x140 /usr/local/xenon/usr/lib/libSDL.a(SDL_events.o)
 .text.SDL_StartEventThread
                0x000000008001101c      0x128 /usr/local/xenon/usr/lib/libSDL.a(SDL_events.o)
 .text.SDL_StopEventThread
                0x0000000080011144       0xd4 /usr/local/xenon/usr/lib/libSDL.a(SDL_events.o)
 .text.SDL_StopEventLoop
                0x0000000080011218       0x7c /usr/local/xenon/usr/lib/libSDL.a(SDL_events.o)
                0x0000000080011218                SDL_StopEventLoop
 .text.SDL_StartEventLoop
                0x0000000080011294      0x154 /usr/local/xenon/usr/lib/libSDL.a(SDL_events.o)
                0x0000000080011294                SDL_StartEventLoop
 .text.SDL_AddEvent
                0x00000000800113e8      0x1b0 /usr/local/xenon/usr/lib/libSDL.a(SDL_events.o)
 .text.SDL_CutEvent
                0x0000000080011598      0x1e8 /usr/local/xenon/usr/lib/libSDL.a(SDL_events.o)
 .text.SDL_PeepEvents
                0x0000000080011780      0x2a0 /usr/local/xenon/usr/lib/libSDL.a(SDL_events.o)
                0x0000000080011780                SDL_PeepEvents
 .text.SDL_PumpEvents
                0x0000000080011a20       0x88 /usr/local/xenon/usr/lib/libSDL.a(SDL_events.o)
                0x0000000080011a20                SDL_PumpEvents
 .text.SDL_PollEvent
                0x0000000080011aa8       0x64 /usr/local/xenon/usr/lib/libSDL.a(SDL_events.o)
                0x0000000080011aa8                SDL_PollEvent
 .text.SDL_PushEvent
                0x0000000080011b0c       0x60 /usr/local/xenon/usr/lib/libSDL.a(SDL_events.o)
                0x0000000080011b0c                SDL_PushEvent
 .text.SDL_KeyboardInit
                0x0000000080011b6c     0x170c /usr/local/xenon/usr/lib/libSDL.a(SDL_keyboard.o)
                0x0000000080011b6c                SDL_KeyboardInit
 .text.SDL_KeyboardQuit
                0x0000000080013278       0x1c /usr/local/xenon/usr/lib/libSDL.a(SDL_keyboard.o)
                0x0000000080013278                SDL_KeyboardQuit
 .text.SDL_ResetKeyboard
                0x0000000080013294       0xac /usr/local/xenon/usr/lib/libSDL.a(SDL_keyboard.o)
                0x0000000080013294                SDL_ResetKeyboard
 .text.SDL_EnableUNICODE
                0x0000000080013340       0x54 /usr/local/xenon/usr/lib/libSDL.a(SDL_keyboard.o)
                0x0000000080013340                SDL_EnableUNICODE
 .text.SDL_PrivateKeyboard
                0x0000000080013394      0x678 /usr/local/xenon/usr/lib/libSDL.a(SDL_keyboard.o)
                0x0000000080013394                SDL_PrivateKeyboard
 .text.SDL_CheckKeyRepeat
                0x0000000080013a0c      0x154 /usr/local/xenon/usr/lib/libSDL.a(SDL_keyboard.o)
                0x0000000080013a0c                SDL_CheckKeyRepeat
 .text.SDL_EnableKeyRepeat
                0x0000000080013b60       0xbc /usr/local/xenon/usr/lib/libSDL.a(SDL_keyboard.o)
                0x0000000080013b60                SDL_EnableKeyRepeat
 .text.SDL_MouseInit
                0x0000000080013c1c       0x94 /usr/local/xenon/usr/lib/libSDL.a(SDL_mouse.o)
                0x0000000080013c1c                SDL_MouseInit
 .text.SDL_MouseQuit
                0x0000000080013cb0       0x1c /usr/local/xenon/usr/lib/libSDL.a(SDL_mouse.o)
                0x0000000080013cb0                SDL_MouseQuit
 .text.SDL_ResetMouse
                0x0000000080013ccc       0xa4 /usr/local/xenon/usr/lib/libSDL.a(SDL_mouse.o)
                0x0000000080013ccc                SDL_ResetMouse
 .text.SDL_GetMouseState
                0x0000000080013d70       0x90 /usr/local/xenon/usr/lib/libSDL.a(SDL_mouse.o)
                0x0000000080013d70                SDL_GetMouseState
 .text.SDL_GetRelativeMouseState
                0x0000000080013e00       0xb0 /usr/local/xenon/usr/lib/libSDL.a(SDL_mouse.o)
                0x0000000080013e00                SDL_GetRelativeMouseState
 .text.ClipOffset
                0x0000000080013eb0      0x16c /usr/local/xenon/usr/lib/libSDL.a(SDL_mouse.o)
 .text.SDL_SetMouseRange
                0x000000008001401c       0x4c /usr/local/xenon/usr/lib/libSDL.a(SDL_mouse.o)
                0x000000008001401c                SDL_SetMouseRange
 .text.SDL_PrivateMouseButton
                0x0000000080014068      0x384 /usr/local/xenon/usr/lib/libSDL.a(SDL_mouse.o)
                0x0000000080014068                SDL_PrivateMouseButton
 .text.SDL_QuitInit
                0x00000000800143ec       0x24 /usr/local/xenon/usr/lib/libSDL.a(SDL_quit.o)
                0x00000000800143ec                SDL_QuitInit
 .text.SDL_QuitQuit
                0x0000000080014410       0x1c /usr/local/xenon/usr/lib/libSDL.a(SDL_quit.o)
                0x0000000080014410                SDL_QuitQuit
 .text.SDL_getenv
                0x000000008001442c      0x15c /usr/local/xenon/usr/lib/libSDL.a(SDL_getenv.o)
                0x000000008001442c                SDL_getenv
 .text.segment_holding
                0x0000000080014588       0xa4 /usr/local/xenon/usr/lib/libSDL.a(SDL_malloc.o)
 .text.init_mparams
                0x000000008001462c      0x120 /usr/local/xenon/usr/lib/libSDL.a(SDL_malloc.o)
 .text.init_top
                0x000000008001474c       0xe4 /usr/local/xenon/usr/lib/libSDL.a(SDL_malloc.o)
 .text.init_bins
                0x0000000080014830       0x88 /usr/local/xenon/usr/lib/libSDL.a(SDL_malloc.o)
 .text.prepend_alloc
                0x00000000800148b8      0xc78 /usr/local/xenon/usr/lib/libSDL.a(SDL_malloc.o)
 .text.add_segment
                0x0000000080015530      0x784 /usr/local/xenon/usr/lib/libSDL.a(SDL_malloc.o)
 .text.sys_alloc
                0x0000000080015cb4      0x938 /usr/local/xenon/usr/lib/libSDL.a(SDL_malloc.o)
 .text.sys_trim
                0x00000000800165ec      0x270 /usr/local/xenon/usr/lib/libSDL.a(SDL_malloc.o)
 .text.tmalloc_large
                0x000000008001685c      0xe40 /usr/local/xenon/usr/lib/libSDL.a(SDL_malloc.o)
 .text.tmalloc_small
                0x000000008001769c      0x7f4 /usr/local/xenon/usr/lib/libSDL.a(SDL_malloc.o)
 .text.internal_realloc
                0x0000000080017e90      0x404 /usr/local/xenon/usr/lib/libSDL.a(SDL_malloc.o)
 .text.SDL_malloc
                0x0000000080018294      0x928 /usr/local/xenon/usr/lib/libSDL.a(SDL_malloc.o)
                0x0000000080018294                SDL_malloc
 .text.SDL_free
                0x0000000080018bbc     0x144c /usr/local/xenon/usr/lib/libSDL.a(SDL_malloc.o)
                0x0000000080018bbc                SDL_free
 .text.SDL_realloc
                0x000000008001a008       0x74 /usr/local/xenon/usr/lib/libSDL.a(SDL_malloc.o)
                0x000000008001a008                SDL_realloc
 .text.SDL_ScanLong
                0x000000008001a07c      0x238 /usr/local/xenon/usr/lib/libSDL.a(SDL_string.o)
 .text.SDL_memset
                0x000000008001a2b4      0x184 /usr/local/xenon/usr/lib/libSDL.a(SDL_string.o)
                0x000000008001a2b4                SDL_memset
 .text.SDL_memcpy
                0x000000008001a438       0xa8 /usr/local/xenon/usr/lib/libSDL.a(SDL_string.o)
                0x000000008001a438                SDL_memcpy
 .text.SDL_revcpy
                0x000000008001a4e0       0xd0 /usr/local/xenon/usr/lib/libSDL.a(SDL_string.o)
                0x000000008001a4e0                SDL_revcpy
 .text.SDL_memcmp
                0x000000008001a5b0       0xe0 /usr/local/xenon/usr/lib/libSDL.a(SDL_string.o)
                0x000000008001a5b0                SDL_memcmp
 .text.SDL_strlen
                0x000000008001a690       0x74 /usr/local/xenon/usr/lib/libSDL.a(SDL_string.o)
                0x000000008001a690                SDL_strlen
 .text.SDL_strlcpy
                0x000000008001a704       0xa0 /usr/local/xenon/usr/lib/libSDL.a(SDL_string.o)
                0x000000008001a704                SDL_strlcpy
 .text.SDL_strtol
                0x000000008001a7a4       0xd4 /usr/local/xenon/usr/lib/libSDL.a(SDL_string.o)
                0x000000008001a7a4                SDL_strtol
 .text.SDL_strcmp
                0x000000008001a878       0xcc /usr/local/xenon/usr/lib/libSDL.a(SDL_string.o)
                0x000000008001a878                SDL_strcmp
 .text.SDL_strncmp
                0x000000008001a944       0xfc /usr/local/xenon/usr/lib/libSDL.a(SDL_string.o)
                0x000000008001a944                SDL_strncmp
 .text.SDL_strcasecmp
                0x000000008001aa40      0x178 /usr/local/xenon/usr/lib/libSDL.a(SDL_string.o)
                0x000000008001aa40                SDL_strcasecmp
 .text.SDL_ThreadsInit
                0x000000008001abb8       0x6c /usr/local/xenon/usr/lib/libSDL.a(SDL_thread.o)
                0x000000008001abb8                SDL_ThreadsInit
 .text.SDL_AddThread
                0x000000008001ac24      0x158 /usr/local/xenon/usr/lib/libSDL.a(SDL_thread.o)
 .text.SDL_DelThread
                0x000000008001ad7c      0x1bc /usr/local/xenon/usr/lib/libSDL.a(SDL_thread.o)
 .text.SDL_CreateThread
                0x000000008001af38      0x1a4 /usr/local/xenon/usr/lib/libSDL.a(SDL_thread.o)
                0x000000008001af38                SDL_CreateThread
 .text.SDL_WaitThread
                0x000000008001b0dc       0x7c /usr/local/xenon/usr/lib/libSDL.a(SDL_thread.o)
                0x000000008001b0dc                SDL_WaitThread
 .text.SDL_SetTimerThreaded
                0x000000008001b158       0x80 /usr/local/xenon/usr/lib/libSDL.a(SDL_timer.o)
                0x000000008001b158                SDL_SetTimerThreaded
 .text.SDL_ThreadedTimerCheck
                0x000000008001b1d8      0x2ac /usr/local/xenon/usr/lib/libSDL.a(SDL_timer.o)
                0x000000008001b1d8                SDL_ThreadedTimerCheck
 .text.SDL_CursorQuit
                0x000000008001b484      0x114 /usr/local/xenon/usr/lib/libSDL.a(SDL_cursor.o)
                0x000000008001b484                SDL_CursorQuit
 .text.SDL_CursorInit
                0x000000008001b598       0xc4 /usr/local/xenon/usr/lib/libSDL.a(SDL_cursor.o)
                0x000000008001b598                SDL_CursorInit
 .text.SDL_CreateCursor
                0x000000008001b65c      0x3a4 /usr/local/xenon/usr/lib/libSDL.a(SDL_cursor.o)
                0x000000008001b65c                SDL_CreateCursor
 .text.SDL_SetCursor
                0x000000008001ba00      0x3c4 /usr/local/xenon/usr/lib/libSDL.a(SDL_cursor.o)
                0x000000008001ba00                SDL_SetCursor
 .text.SDL_FreeCursor
                0x000000008001bdc4      0x150 /usr/local/xenon/usr/lib/libSDL.a(SDL_cursor.o)
                0x000000008001bdc4                SDL_FreeCursor
 .text.SDL_MoveCursor
                0x000000008001bf14      0x198 /usr/local/xenon/usr/lib/libSDL.a(SDL_cursor.o)
                0x000000008001bf14                SDL_MoveCursor
 .text.SDL_MouseRect
                0x000000008001c0ac      0x258 /usr/local/xenon/usr/lib/libSDL.a(SDL_cursor.o)
                0x000000008001c0ac                SDL_MouseRect
 .text.SDL_DrawCursorFast
                0x000000008001c304      0x9a8 /usr/local/xenon/usr/lib/libSDL.a(SDL_cursor.o)
 .text.SDL_DrawCursorSlow
                0x000000008001ccac      0x598 /usr/local/xenon/usr/lib/libSDL.a(SDL_cursor.o)
 .text.SDL_ConvertCursorSave
                0x000000008001d244      0x16c /usr/local/xenon/usr/lib/libSDL.a(SDL_cursor.o)
 .text.SDL_DrawCursorNoLock
                0x000000008001d3b0      0x35c /usr/local/xenon/usr/lib/libSDL.a(SDL_cursor.o)
                0x000000008001d3b0                SDL_DrawCursorNoLock
 .text.SDL_DrawCursor
                0x000000008001d70c      0x16c /usr/local/xenon/usr/lib/libSDL.a(SDL_cursor.o)
                0x000000008001d70c                SDL_DrawCursor
 .text.SDL_EraseCursorNoLock
                0x000000008001d878      0x2d4 /usr/local/xenon/usr/lib/libSDL.a(SDL_cursor.o)
                0x000000008001d878                SDL_EraseCursorNoLock
 .text.SDL_EraseCursor
                0x000000008001db4c      0x16c /usr/local/xenon/usr/lib/libSDL.a(SDL_cursor.o)
                0x000000008001db4c                SDL_EraseCursor
 .text.SDL_ResetCursor
                0x000000008001dcb8       0xd4 /usr/local/xenon/usr/lib/libSDL.a(SDL_cursor.o)
                0x000000008001dcb8                SDL_ResetCursor
 .text.SDL_AllocFormat
                0x000000008001dd8c      0xcf4 /usr/local/xenon/usr/lib/libSDL.a(SDL_pixels.o)
                0x000000008001dd8c                SDL_AllocFormat
 .text.SDL_ReallocFormat
                0x000000008001ea80       0xac /usr/local/xenon/usr/lib/libSDL.a(SDL_pixels.o)
                0x000000008001ea80                SDL_ReallocFormat
 .text.SDL_FormatChanged
                0x000000008001eb2c       0xa0 /usr/local/xenon/usr/lib/libSDL.a(SDL_pixels.o)
                0x000000008001eb2c                SDL_FormatChanged
 .text.SDL_FreeFormat
                0x000000008001ebcc       0xa4 /usr/local/xenon/usr/lib/libSDL.a(SDL_pixels.o)
                0x000000008001ebcc                SDL_FreeFormat
 .text.SDL_DitherColors
                0x000000008001ec70      0x14c /usr/local/xenon/usr/lib/libSDL.a(SDL_pixels.o)
                0x000000008001ec70                SDL_DitherColors
 .text.SDL_CalculatePitch
                0x000000008001edbc       0xd0 /usr/local/xenon/usr/lib/libSDL.a(SDL_pixels.o)
                0x000000008001edbc                SDL_CalculatePitch
 .text.SDL_FindColor
                0x000000008001ee8c      0x190 /usr/local/xenon/usr/lib/libSDL.a(SDL_pixels.o)
                0x000000008001ee8c                SDL_FindColor
 .text.SDL_MapRGB
                0x000000008001f01c      0x14c /usr/local/xenon/usr/lib/libSDL.a(SDL_pixels.o)
                0x000000008001f01c                SDL_MapRGB
 .text.Map1to1  0x000000008001f168      0x1dc /usr/local/xenon/usr/lib/libSDL.a(SDL_pixels.o)
 .text.Map1toN  0x000000008001f344      0x510 /usr/local/xenon/usr/lib/libSDL.a(SDL_pixels.o)
 .text.MapNto1  0x000000008001f854       0x98 /usr/local/xenon/usr/lib/libSDL.a(SDL_pixels.o)
 .text.SDL_AllocBlitMap
                0x000000008001f8ec       0xd4 /usr/local/xenon/usr/lib/libSDL.a(SDL_pixels.o)
                0x000000008001f8ec                SDL_AllocBlitMap
 .text.SDL_InvalidateMap
                0x000000008001f9c0       0x9c /usr/local/xenon/usr/lib/libSDL.a(SDL_pixels.o)
                0x000000008001f9c0                SDL_InvalidateMap
 .text.SDL_MapSurface
                0x000000008001fa5c      0x340 /usr/local/xenon/usr/lib/libSDL.a(SDL_pixels.o)
                0x000000008001fa5c                SDL_MapSurface
 .text.SDL_FreeBlitMap
                0x000000008001fd9c       0x74 /usr/local/xenon/usr/lib/libSDL.a(SDL_pixels.o)
                0x000000008001fd9c                SDL_FreeBlitMap
 .text.SDL_CreateRGBSurface
                0x000000008001fe10      0x598 /usr/local/xenon/usr/lib/libSDL.a(SDL_surface.o)
                0x000000008001fe10                SDL_CreateRGBSurface
 .text.SDL_IntersectRect
                0x00000000800203a8      0x210 /usr/local/xenon/usr/lib/libSDL.a(SDL_surface.o)
 .text.SDL_SetClipRect
                0x00000000800205b8       0xc8 /usr/local/xenon/usr/lib/libSDL.a(SDL_surface.o)
                0x00000000800205b8                SDL_SetClipRect
 .text.SDL_LowerBlit
                0x0000000080020680      0x27c /usr/local/xenon/usr/lib/libSDL.a(SDL_surface.o)
                0x0000000080020680                SDL_LowerBlit
 .text.SDL_FillRect1
                0x00000000800208fc       0x50 /usr/local/xenon/usr/lib/libSDL.a(SDL_surface.o)
 .text.SDL_FillRect4
                0x000000008002094c       0x50 /usr/local/xenon/usr/lib/libSDL.a(SDL_surface.o)
 .text.SDL_FillRect
                0x000000008002099c      0xc18 /usr/local/xenon/usr/lib/libSDL.a(SDL_surface.o)
                0x000000008002099c                SDL_FillRect
 .text.SDL_LockSurface
                0x00000000800215b4      0x13c /usr/local/xenon/usr/lib/libSDL.a(SDL_surface.o)
                0x00000000800215b4                SDL_LockSurface
 .text.SDL_UnlockSurface
                0x00000000800216f0      0x14c /usr/local/xenon/usr/lib/libSDL.a(SDL_surface.o)
                0x00000000800216f0                SDL_UnlockSurface
 .text.SDL_FreeSurface
                0x000000008002183c      0x22c /usr/local/xenon/usr/lib/libSDL.a(SDL_surface.o)
                0x000000008002183c                SDL_FreeSurface
 .text.SDL_VideoInit
                0x0000000080021a68      0x5c4 /usr/local/xenon/usr/lib/libSDL.a(SDL_video.o)
                0x0000000080021a68                SDL_VideoInit
 .text.SDL_ListModes
                0x000000008002202c       0xd4 /usr/local/xenon/usr/lib/libSDL.a(SDL_video.o)
                0x000000008002202c                SDL_ListModes
 .text.SDL_VideoModeOK
                0x0000000080022100      0x388 /usr/local/xenon/usr/lib/libSDL.a(SDL_video.o)
                0x0000000080022100                SDL_VideoModeOK
 .text.SDL_GetVideoMode
                0x0000000080022488      0x588 /usr/local/xenon/usr/lib/libSDL.a(SDL_video.o)
 .text.SDL_ClearSurface
                0x0000000080022a10      0x130 /usr/local/xenon/usr/lib/libSDL.a(SDL_video.o)
 .text.SDL_CreateShadowSurface
                0x0000000080022b40      0x464 /usr/local/xenon/usr/lib/libSDL.a(SDL_video.o)
 .text.SDL_SetVideoMode
                0x0000000080022fa4      0x9fc /usr/local/xenon/usr/lib/libSDL.a(SDL_video.o)
                0x0000000080022fa4                SDL_SetVideoMode
 .text.SDL_UpdateRect
                0x00000000800239a0      0x120 /usr/local/xenon/usr/lib/libSDL.a(SDL_video.o)
                0x00000000800239a0                SDL_UpdateRect
 .text.SDL_UpdateRects
                0x0000000080023ac0      0x54c /usr/local/xenon/usr/lib/libSDL.a(SDL_video.o)
                0x0000000080023ac0                SDL_UpdateRects
 .text.SDL_Flip
                0x000000008002400c      0x354 /usr/local/xenon/usr/lib/libSDL.a(SDL_video.o)
                0x000000008002400c                SDL_Flip
 .text.SDL_VideoQuit
                0x0000000080024360      0x2b8 /usr/local/xenon/usr/lib/libSDL.a(SDL_video.o)
                0x0000000080024360                SDL_VideoQuit
 .text.SDL_WM_GrabInputRaw
                0x0000000080024618      0x170 /usr/local/xenon/usr/lib/libSDL.a(SDL_video.o)
 .text.SDL_WM_GrabInput
                0x0000000080024788      0x108 /usr/local/xenon/usr/lib/libSDL.a(SDL_video.o)
                0x0000000080024788                SDL_WM_GrabInput
 .text.SDL_WM_GrabInputOff
                0x0000000080024890       0x4c /usr/local/xenon/usr/lib/libSDL.a(SDL_video.o)
 .text.DUMMYAUD_Available
                0x00000000800248dc       0x78 /usr/local/xenon/usr/lib/libSDL.a(SDL_dummyaudio.o)
 .text.DUMMYAUD_DeleteDevice
                0x0000000080024954       0x4c /usr/local/xenon/usr/lib/libSDL.a(SDL_dummyaudio.o)
 .text.DUMMYAUD_CreateDevice
                0x00000000800249a0      0x158 /usr/local/xenon/usr/lib/libSDL.a(SDL_dummyaudio.o)
 .text.DUMMYAUD_WaitAudio
                0x0000000080024af8       0x8c /usr/local/xenon/usr/lib/libSDL.a(SDL_dummyaudio.o)
 .text.DUMMYAUD_PlayAudio
                0x0000000080024b84       0x20 /usr/local/xenon/usr/lib/libSDL.a(SDL_dummyaudio.o)
 .text.DUMMYAUD_GetAudioBuf
                0x0000000080024ba4       0x38 /usr/local/xenon/usr/lib/libSDL.a(SDL_dummyaudio.o)
 .text.DUMMYAUD_CloseAudio
                0x0000000080024bdc       0x80 /usr/local/xenon/usr/lib/libSDL.a(SDL_dummyaudio.o)
 .text.DUMMYAUD_OpenAudio
                0x0000000080024c5c      0x20c /usr/local/xenon/usr/lib/libSDL.a(SDL_dummyaudio.o)
 .text.XENON_Available
                0x0000000080024e68       0x24 /usr/local/xenon/usr/lib/libSDL.a(SDL_nullvideo.o)
 .text.XENON_DeleteDevice
                0x0000000080024e8c       0x4c /usr/local/xenon/usr/lib/libSDL.a(SDL_nullvideo.o)
 .text.XENON_CreateDevice
                0x0000000080024ed8      0x298 /usr/local/xenon/usr/lib/libSDL.a(SDL_nullvideo.o)
 .text.XENON_VideoInit
                0x0000000080025170      0x260 /usr/local/xenon/usr/lib/libSDL.a(SDL_nullvideo.o)
 .text.XENON_ListModes
                0x00000000800253d0       0x34 /usr/local/xenon/usr/lib/libSDL.a(SDL_nullvideo.o)
 .text.XENON_SetVideoMode
                0x0000000080025404      0x318 /usr/local/xenon/usr/lib/libSDL.a(SDL_nullvideo.o)
 .text.XENON_AllocHWSurface
                0x000000008002571c       0x2c /usr/local/xenon/usr/lib/libSDL.a(SDL_nullvideo.o)
 .text.XENON_FlipHWSurface
                0x0000000080025748      0x484 /usr/local/xenon/usr/lib/libSDL.a(SDL_nullvideo.o)
 .text.XENON_FreeHWSurface
                0x0000000080025bcc       0x24 /usr/local/xenon/usr/lib/libSDL.a(SDL_nullvideo.o)
 .text.XENON_LockHWSurface
                0x0000000080025bf0      0x1b4 /usr/local/xenon/usr/lib/libSDL.a(SDL_nullvideo.o)
 .text.XENON_UnlockHWSurface
                0x0000000080025da4       0xa0 /usr/local/xenon/usr/lib/libSDL.a(SDL_nullvideo.o)
 .text.XENON_UpdateRects
                0x0000000080025e44      0x490 /usr/local/xenon/usr/lib/libSDL.a(SDL_nullvideo.o)
 .text.XENON_SetColors
                0x00000000800262d4       0x34 /usr/local/xenon/usr/lib/libSDL.a(SDL_nullvideo.o)
 .text.XENON_VideoQuit
                0x0000000080026308       0x80 /usr/local/xenon/usr/lib/libSDL.a(SDL_nullvideo.o)
 .text.SDL_CreateMutex
                0x0000000080026388       0xc0 /usr/local/xenon/usr/lib/libSDL.a(SDL_sysmutex.o)
                0x0000000080026388                SDL_CreateMutex
 .text.SDL_DestroyMutex
                0x0000000080026448       0x6c /usr/local/xenon/usr/lib/libSDL.a(SDL_sysmutex.o)
                0x0000000080026448                SDL_DestroyMutex
 .text.SDL_mutexP
                0x00000000800264b4       0x28 /usr/local/xenon/usr/lib/libSDL.a(SDL_sysmutex.o)
                0x00000000800264b4                SDL_mutexP
 .text.SDL_mutexV
                0x00000000800264dc       0x28 /usr/local/xenon/usr/lib/libSDL.a(SDL_sysmutex.o)
                0x00000000800264dc                SDL_mutexV
 .text.SDL_CreateSemaphore
                0x0000000080026504       0x48 /usr/local/xenon/usr/lib/libSDL.a(SDL_syssem.o)
                0x0000000080026504                SDL_CreateSemaphore
 .text.SDL_DestroySemaphore
                0x000000008002654c       0x20 /usr/local/xenon/usr/lib/libSDL.a(SDL_syssem.o)
                0x000000008002654c                SDL_DestroySemaphore
 .text.SDL_SemWait
                0x000000008002656c       0x48 /usr/local/xenon/usr/lib/libSDL.a(SDL_syssem.o)
                0x000000008002656c                SDL_SemWait
 .text.SDL_SYS_CreateThread
                0x00000000800265b4       0x4c /usr/local/xenon/usr/lib/libSDL.a(SDL_systhread.o)
                0x00000000800265b4                SDL_SYS_CreateThread
 .text.SDL_ThreadID
                0x0000000080026600       0x24 /usr/local/xenon/usr/lib/libSDL.a(SDL_systhread.o)
                0x0000000080026600                SDL_ThreadID
 .text.SDL_SYS_WaitThread
                0x0000000080026624       0x20 /usr/local/xenon/usr/lib/libSDL.a(SDL_systhread.o)
                0x0000000080026624                SDL_SYS_WaitThread
 .text.SDL_GetTicks
                0x0000000080026644       0x3c /usr/local/xenon/usr/lib/libSDL.a(SDL_systimer.o)
                0x0000000080026644                SDL_GetTicks
 .text.SDL_Delay
                0x0000000080026680       0x38 /usr/local/xenon/usr/lib/libSDL.a(SDL_systimer.o)
                0x0000000080026680                SDL_Delay
 *fill*         0x00000000800266b8        0x8 00
 .text          0x00000000800266c0      0x1d0 /usr/local/xenon/usr/lib/libSDL.a(shader_sdl.o)
                0x00000000800266c0                prim_textured_vertex_shader
                0x00000000800267b0                prim_textured_pixel_shader
 .text.SDL_AppActiveInit
                0x0000000080026890       0x34 /usr/local/xenon/usr/lib/libSDL.a(SDL_active.o)
                0x0000000080026890                SDL_AppActiveInit
 .text.SDL_AppActiveQuit
                0x00000000800268c4       0x1c /usr/local/xenon/usr/lib/libSDL.a(SDL_active.o)
                0x00000000800268c4                SDL_AppActiveQuit
 .text.SDL_PrivateResize
                0x00000000800268e0      0x1e0 /usr/local/xenon/usr/lib/libSDL.a(SDL_resize.o)
                0x00000000800268e0                SDL_PrivateResize
 .text.RLEClipBlit
                0x0000000080026ac0     0x30e0 /usr/local/xenon/usr/lib/libSDL.a(SDL_RLEaccel.o)
 .text.SDL_RLEBlit
                0x0000000080029ba0     0x29e4 /usr/local/xenon/usr/lib/libSDL.a(SDL_RLEaccel.o)
                0x0000000080029ba0                SDL_RLEBlit
 .text.RLEAlphaClipBlit
                0x000000008002c584      0xd70 /usr/local/xenon/usr/lib/libSDL.a(SDL_RLEaccel.o)
 .text.SDL_RLEAlphaBlit
                0x000000008002d2f4      0xcb0 /usr/local/xenon/usr/lib/libSDL.a(SDL_RLEaccel.o)
                0x000000008002d2f4                SDL_RLEAlphaBlit
 .text.copy_opaque_16
                0x000000008002dfa4      0x208 /usr/local/xenon/usr/lib/libSDL.a(SDL_RLEaccel.o)
 .text.uncopy_opaque_16
                0x000000008002e1ac      0x260 /usr/local/xenon/usr/lib/libSDL.a(SDL_RLEaccel.o)
 .text.copy_transl_565
                0x000000008002e40c      0x23c /usr/local/xenon/usr/lib/libSDL.a(SDL_RLEaccel.o)
 .text.copy_transl_555
                0x000000008002e648      0x23c /usr/local/xenon/usr/lib/libSDL.a(SDL_RLEaccel.o)
 .text.uncopy_transl_16
                0x000000008002e884      0x248 /usr/local/xenon/usr/lib/libSDL.a(SDL_RLEaccel.o)
 .text.copy_32  0x000000008002eacc      0x200 /usr/local/xenon/usr/lib/libSDL.a(SDL_RLEaccel.o)
 .text.uncopy_32
                0x000000008002eccc      0x228 /usr/local/xenon/usr/lib/libSDL.a(SDL_RLEaccel.o)
 .text.RLEAlphaSurface
                0x000000008002eef4      0xd04 /usr/local/xenon/usr/lib/libSDL.a(SDL_RLEaccel.o)
 .text.getpix_8
                0x000000008002fbf8       0x34 /usr/local/xenon/usr/lib/libSDL.a(SDL_RLEaccel.o)
 .text.getpix_16
                0x000000008002fc2c       0x34 /usr/local/xenon/usr/lib/libSDL.a(SDL_RLEaccel.o)
 .text.getpix_24
                0x000000008002fc60       0x70 /usr/local/xenon/usr/lib/libSDL.a(SDL_RLEaccel.o)
 .text.getpix_32
                0x000000008002fcd0       0x30 /usr/local/xenon/usr/lib/libSDL.a(SDL_RLEaccel.o)
 .text.RLEColorkeySurface
                0x000000008002fd00      0x7f8 /usr/local/xenon/usr/lib/libSDL.a(SDL_RLEaccel.o)
 .text.SDL_RLESurface
                0x00000000800304f8      0x1b4 /usr/local/xenon/usr/lib/libSDL.a(SDL_RLEaccel.o)
                0x00000000800304f8                SDL_RLESurface
 .text.UnRLEAlpha
                0x00000000800306ac      0x394 /usr/local/xenon/usr/lib/libSDL.a(SDL_RLEaccel.o)
 .text.SDL_UnRLESurface
                0x0000000080030a40      0x2b4 /usr/local/xenon/usr/lib/libSDL.a(SDL_RLEaccel.o)
                0x0000000080030a40                SDL_UnRLESurface
 .text.SDL_SoftBlit
                0x0000000080030cf4      0x3d8 /usr/local/xenon/usr/lib/libSDL.a(SDL_blit.o)
 .text.SDL_BlitCopy
                0x00000000800310cc      0x124 /usr/local/xenon/usr/lib/libSDL.a(SDL_blit.o)
 .text.SDL_BlitCopyOverlap
                0x00000000800311f0      0x1e0 /usr/local/xenon/usr/lib/libSDL.a(SDL_blit.o)
 .text.SDL_CalculateBlit
                0x00000000800313d0      0x79c /usr/local/xenon/usr/lib/libSDL.a(SDL_blit.o)
                0x00000000800313d0                SDL_CalculateBlit
 .text.BlitBto1
                0x0000000080031b6c      0x2b0 /usr/local/xenon/usr/lib/libSDL.a(SDL_blit_0.o)
 .text.BlitBto2
                0x0000000080031e1c      0x1c4 /usr/local/xenon/usr/lib/libSDL.a(SDL_blit_0.o)
 .text.BlitBto3
                0x0000000080031fe0      0x22c /usr/local/xenon/usr/lib/libSDL.a(SDL_blit_0.o)
 .text.BlitBto4
                0x000000008003220c      0x1c0 /usr/local/xenon/usr/lib/libSDL.a(SDL_blit_0.o)
 .text.BlitBto1Key
                0x00000000800323cc      0x2f0 /usr/local/xenon/usr/lib/libSDL.a(SDL_blit_0.o)
 .text.BlitBto2Key
                0x00000000800326bc      0x1f8 /usr/local/xenon/usr/lib/libSDL.a(SDL_blit_0.o)
 .text.BlitBto3Key
                0x00000000800328b4      0x1ec /usr/local/xenon/usr/lib/libSDL.a(SDL_blit_0.o)
 .text.BlitBto4Key
                0x0000000080032aa0      0x1f4 /usr/local/xenon/usr/lib/libSDL.a(SDL_blit_0.o)
 .text.BlitBtoNAlpha
                0x0000000080032c94      0x634 /usr/local/xenon/usr/lib/libSDL.a(SDL_blit_0.o)
 .text.BlitBtoNAlphaKey
                0x00000000800332c8      0x65c /usr/local/xenon/usr/lib/libSDL.a(SDL_blit_0.o)
 .text.SDL_CalculateBlit0
                0x0000000080033924      0x170 /usr/local/xenon/usr/lib/libSDL.a(SDL_blit_0.o)
                0x0000000080033924                SDL_CalculateBlit0
 .text.Blit1to1
                0x0000000080033a94      0x38c /usr/local/xenon/usr/lib/libSDL.a(SDL_blit_1.o)
 .text.Blit1to2
                0x0000000080033e20      0x36c /usr/local/xenon/usr/lib/libSDL.a(SDL_blit_1.o)
 .text.Blit1to3
                0x000000008003418c      0x74c /usr/local/xenon/usr/lib/libSDL.a(SDL_blit_1.o)
 .text.Blit1to4
                0x00000000800348d8      0x398 /usr/local/xenon/usr/lib/libSDL.a(SDL_blit_1.o)
 .text.Blit1to1Key
                0x0000000080034c70      0x814 /usr/local/xenon/usr/lib/libSDL.a(SDL_blit_1.o)
 .text.Blit1to2Key
                0x0000000080035484      0x4d8 /usr/local/xenon/usr/lib/libSDL.a(SDL_blit_1.o)
 .text.Blit1to3Key
                0x000000008003595c      0x864 /usr/local/xenon/usr/lib/libSDL.a(SDL_blit_1.o)
 .text.Blit1to4Key
                0x00000000800361c0      0x4b8 /usr/local/xenon/usr/lib/libSDL.a(SDL_blit_1.o)
 .text.Blit1toNAlpha
                0x0000000080036678     0x13c8 /usr/local/xenon/usr/lib/libSDL.a(SDL_blit_1.o)
 .text.Blit1toNAlphaKey
                0x0000000080037a40     0x2714 /usr/local/xenon/usr/lib/libSDL.a(SDL_blit_1.o)
 .text.SDL_CalculateBlit1
                0x000000008003a154      0x138 /usr/local/xenon/usr/lib/libSDL.a(SDL_blit_1.o)
                0x000000008003a154                SDL_CalculateBlit1
 .text.Blit_RGB888_index8
                0x000000008003a28c      0xa6c /usr/local/xenon/usr/lib/libSDL.a(SDL_blit_N.o)
 .text.Blit_RGB888_RGB555
                0x000000008003acf8      0x534 /usr/local/xenon/usr/lib/libSDL.a(SDL_blit_N.o)
 .text.Blit_RGB888_RGB565
                0x000000008003b22c      0x534 /usr/local/xenon/usr/lib/libSDL.a(SDL_blit_N.o)
 .text.Blit_RGB565_32
                0x000000008003b760      0x52c /usr/local/xenon/usr/lib/libSDL.a(SDL_blit_N.o)
 .text.Blit_RGB565_ARGB8888
                0x000000008003bc8c       0x40 /usr/local/xenon/usr/lib/libSDL.a(SDL_blit_N.o)
 .text.Blit_RGB565_ABGR8888
                0x000000008003bccc       0x40 /usr/local/xenon/usr/lib/libSDL.a(SDL_blit_N.o)
 .text.Blit_RGB565_RGBA8888
                0x000000008003bd0c       0x40 /usr/local/xenon/usr/lib/libSDL.a(SDL_blit_N.o)
 .text.Blit_RGB565_BGRA8888
                0x000000008003bd4c       0x40 /usr/local/xenon/usr/lib/libSDL.a(SDL_blit_N.o)
 .text.Blit_RGB888_index8_map
                0x000000008003bd8c      0x618 /usr/local/xenon/usr/lib/libSDL.a(SDL_blit_N.o)
 .text.BlitNto1
                0x000000008003c3a4     0x1f40 /usr/local/xenon/usr/lib/libSDL.a(SDL_blit_N.o)
 .text.Blit4to4MaskAlpha
                0x000000008003e2e4      0x620 /usr/local/xenon/usr/lib/libSDL.a(SDL_blit_N.o)
 .text.BlitNtoN
                0x000000008003e904     0x2174 /usr/local/xenon/usr/lib/libSDL.a(SDL_blit_N.o)
 .text.BlitNtoNCopyAlpha
                0x0000000080040a78      0x594 /usr/local/xenon/usr/lib/libSDL.a(SDL_blit_N.o)
 .text.BlitNto1Key
                0x000000008004100c     0x20d4 /usr/local/xenon/usr/lib/libSDL.a(SDL_blit_N.o)
 .text.Blit2to2Key
                0x00000000800430e0      0x488 /usr/local/xenon/usr/lib/libSDL.a(SDL_blit_N.o)
 .text.BlitNtoNKey
                0x0000000080043568     0x2270 /usr/local/xenon/usr/lib/libSDL.a(SDL_blit_N.o)
 .text.BlitNtoNKeyCopyAlpha
                0x00000000800457d8     0x2598 /usr/local/xenon/usr/lib/libSDL.a(SDL_blit_N.o)
 .text.SDL_CalculateBlitN
                0x0000000080047d70      0x688 /usr/local/xenon/usr/lib/libSDL.a(SDL_blit_N.o)
                0x0000000080047d70                SDL_CalculateBlitN
 .text.DUMMY_PumpEvents
                0x00000000800483f8       0x20 /usr/local/xenon/usr/lib/libSDL.a(SDL_nullevents.o)
                0x00000000800483f8                DUMMY_PumpEvents
 .text.DUMMY_InitOSKeymap
                0x0000000080048418       0x20 /usr/local/xenon/usr/lib/libSDL.a(SDL_nullevents.o)
                0x0000000080048418                DUMMY_InitOSKeymap
 .text.CPU_haveCPUID
                0x0000000080048438       0x2c /usr/local/xenon/usr/lib/libSDL.a(SDL_cpuinfo.o)
 .text.CPU_getCPUIDFeatures
                0x0000000080048464       0x2c /usr/local/xenon/usr/lib/libSDL.a(SDL_cpuinfo.o)
 .text.CPU_getCPUIDFeaturesExt
                0x0000000080048490       0x2c /usr/local/xenon/usr/lib/libSDL.a(SDL_cpuinfo.o)
 .text.CPU_haveRDTSC
                0x00000000800484bc       0x54 /usr/local/xenon/usr/lib/libSDL.a(SDL_cpuinfo.o)
 .text.CPU_haveMMX
                0x0000000080048510       0x54 /usr/local/xenon/usr/lib/libSDL.a(SDL_cpuinfo.o)
 .text.CPU_haveMMXExt
                0x0000000080048564       0x54 /usr/local/xenon/usr/lib/libSDL.a(SDL_cpuinfo.o)
 .text.CPU_have3DNow
                0x00000000800485b8       0x54 /usr/local/xenon/usr/lib/libSDL.a(SDL_cpuinfo.o)
 .text.CPU_have3DNowExt
                0x000000008004860c       0x54 /usr/local/xenon/usr/lib/libSDL.a(SDL_cpuinfo.o)
 .text.CPU_haveSSE
                0x0000000080048660       0x54 /usr/local/xenon/usr/lib/libSDL.a(SDL_cpuinfo.o)
 .text.CPU_haveSSE2
                0x00000000800486b4       0x54 /usr/local/xenon/usr/lib/libSDL.a(SDL_cpuinfo.o)
 .text.CPU_haveAltiVec
                0x0000000080048708       0x2c /usr/local/xenon/usr/lib/libSDL.a(SDL_cpuinfo.o)
 .text.SDL_GetCPUFeatures
                0x0000000080048734      0x1c4 /usr/local/xenon/usr/lib/libSDL.a(SDL_cpuinfo.o)
 .text.SDL_HasMMX
                0x00000000800488f8       0x50 /usr/local/xenon/usr/lib/libSDL.a(SDL_cpuinfo.o)
                0x00000000800488f8                SDL_HasMMX
 .text.BlitNto1SurfaceAlpha
                0x0000000080048948      0xf60 /usr/local/xenon/usr/lib/libSDL.a(SDL_blit_A.o)
 .text.BlitNto1PixelAlpha
                0x00000000800498a8     0x10bc /usr/local/xenon/usr/lib/libSDL.a(SDL_blit_A.o)
 .text.BlitNto1SurfaceAlphaKey
                0x000000008004a964     0x1dc4 /usr/local/xenon/usr/lib/libSDL.a(SDL_blit_A.o)
 .text.BlitRGBtoRGBSurfaceAlpha128
                0x000000008004c728      0x378 /usr/local/xenon/usr/lib/libSDL.a(SDL_blit_A.o)
 .text.BlitRGBtoRGBSurfaceAlpha
                0x000000008004caa0      0x6a0 /usr/local/xenon/usr/lib/libSDL.a(SDL_blit_A.o)
 .text.BlitRGBtoRGBPixelAlpha
                0x000000008004d140      0x678 /usr/local/xenon/usr/lib/libSDL.a(SDL_blit_A.o)
 .text.Blit16to16SurfaceAlpha128
                0x000000008004d7b8      0x648 /usr/local/xenon/usr/lib/libSDL.a(SDL_blit_A.o)
 .text.Blit565to565SurfaceAlpha
                0x000000008004de00      0x520 /usr/local/xenon/usr/lib/libSDL.a(SDL_blit_A.o)
 .text.Blit555to555SurfaceAlpha
                0x000000008004e320      0x520 /usr/local/xenon/usr/lib/libSDL.a(SDL_blit_A.o)
 .text.BlitARGBto565PixelAlpha
                0x000000008004e840      0x6d8 /usr/local/xenon/usr/lib/libSDL.a(SDL_blit_A.o)
 .text.BlitARGBto555PixelAlpha
                0x000000008004ef18      0x6d8 /usr/local/xenon/usr/lib/libSDL.a(SDL_blit_A.o)
 .text.BlitNtoNSurfaceAlpha
                0x000000008004f5f0     0x1934 /usr/local/xenon/usr/lib/libSDL.a(SDL_blit_A.o)
 .text.BlitNtoNSurfaceAlphaKey
                0x0000000080050f24     0x19a8 /usr/local/xenon/usr/lib/libSDL.a(SDL_blit_A.o)
 .text.BlitNtoNPixelAlpha
                0x00000000800528cc     0x1c00 /usr/local/xenon/usr/lib/libSDL.a(SDL_blit_A.o)
 .text.SDL_CalculateAlphaBlit
                0x00000000800544cc      0x3f4 /usr/local/xenon/usr/lib/libSDL.a(SDL_blit_A.o)
                0x00000000800544cc                SDL_CalculateAlphaBlit
 .text          0x00000000800548c0       0x88 /usr/local/xenon/xenon/lib/32/libc.a(lib_a-assert.o)
                0x00000000800548c4                __assert_func
                0x0000000080054930                __assert
 .text          0x0000000080054948       0x50 /usr/local/xenon/xenon/lib/32/libc.a(lib_a-atoi.o)
                0x0000000080054948                _atoi_r
                0x0000000080054970                atoi
 .text          0x0000000080054998       0x40 /usr/local/xenon/xenon/lib/32/libc.a(lib_a-errno.o)
                0x000000008005499c                __errno
 .text          0x00000000800549d8       0x58 /usr/local/xenon/xenon/lib/32/libc.a(lib_a-exit.o)
                0x00000000800549dc                exit
 .text          0x0000000080054a30      0x12c /usr/local/xenon/xenon/lib/32/libc.a(lib_a-fiprintf.o)
                0x0000000080054ae0                _fiprintf_r
                0x0000000080054a34                fiprintf
 *fill*         0x0000000080054b5c        0x4 00
 .text          0x0000000080054b60       0x90 /usr/local/xenon/xenon/lib/32/libc.a(lib_a-malloc.o)
                0x0000000080054bac                malloc
                0x0000000080054b64                free
 .text          0x0000000080054bf0      0x880 /usr/local/xenon/xenon/lib/32/libc.a(lib_a-mallocr.o)
                0x0000000080054bf4                _malloc_r
 .text          0x0000000080055470      0x128 /usr/local/xenon/xenon/lib/32/libc.a(lib_a-memchr.o)
                0x0000000080055470                memchr
 .text          0x0000000080055598       0xd8 /usr/local/xenon/xenon/lib/32/libc.a(lib_a-memcmp.o)
                0x0000000080055598                memcmp
 .text          0x0000000080055670      0x12c /usr/local/xenon/xenon/lib/32/libc.a(lib_a-memcpy.o)
                0x0000000080055670                memcpy
 *fill*         0x000000008005579c        0x4 00
 .text          0x00000000800557a0      0x138 /usr/local/xenon/xenon/lib/32/libc.a(lib_a-memset.o)
                0x00000000800557a0                memset
 .text          0x00000000800558d8        0xc /usr/local/xenon/xenon/lib/32/libc.a(lib_a-mlock.o)
                0x00000000800558e0                __malloc_unlock
                0x00000000800558d8                __malloc_lock
 *fill*         0x00000000800558e4        0x4 00
 .text          0x00000000800558e8      0x140 /usr/local/xenon/xenon/lib/32/libc.a(lib_a-printf.o)
                0x00000000800558ec                printf
                0x00000000800559a0                _printf_r
 .text          0x0000000080055a28       0x74 /usr/local/xenon/xenon/lib/32/libc.a(lib_a-putchar.o)
                0x0000000080055a2c                putchar
                0x0000000080055a78                _putchar_r
 *fill*         0x0000000080055a9c        0x4 00
 .text          0x0000000080055aa0      0x208 /usr/local/xenon/xenon/lib/32/libc.a(lib_a-putc.o)
                0x0000000080055bc8                _putc_r
                0x0000000080055aa4                putc
 .text          0x0000000080055ca8      0x130 /usr/local/xenon/xenon/lib/32/libc.a(lib_a-puts.o)
                0x0000000080055cac                _puts_r
                0x0000000080055d94                puts
 .text          0x0000000080055dd8       0x94 /usr/local/xenon/xenon/lib/32/libc.a(lib_a-sbrkr.o)
                0x0000000080055ddc                _sbrk_r
 *fill*         0x0000000080055e6c        0x4 00
 .text          0x0000000080055e70      0x250 /usr/local/xenon/xenon/lib/32/libc.a(lib_a-snprintf.o)
                0x0000000080055e74                snprintf
                0x0000000080055fa8                _snprintf_r
 .text          0x00000000800560c0      0x1a4 /usr/local/xenon/xenon/lib/32/libc.a(lib_a-sprintf.o)
                0x00000000800561a8                _sprintf_r
                0x00000000800560c4                sprintf
 *fill*         0x0000000080056264        0x4 00
 .text          0x0000000080056268      0x108 /usr/local/xenon/xenon/lib/32/libc.a(lib_a-strcasecmp.o)
                0x000000008005626c                strcasecmp
 .text          0x0000000080056370       0x8c /usr/local/xenon/xenon/lib/32/libc.a(lib_a-strcat.o)
                0x0000000080056370                strcat
 *fill*         0x00000000800563fc        0x4 00
 .text          0x0000000080056400      0x1e4 /usr/local/xenon/xenon/lib/32/libc.a(lib_a-strchr.o)
                0x0000000080056400                strchr
 *fill*         0x00000000800565e4        0x4 00
 .text          0x00000000800565e8       0xe8 /usr/local/xenon/xenon/lib/32/libc.a(lib_a-strcmp.o)
                0x00000000800565e8                strcmp
 .text          0x00000000800566d0       0x90 /usr/local/xenon/xenon/lib/32/libc.a(lib_a-strcpy.o)
                0x00000000800566d0                strcpy
 .text          0x0000000080056760       0x88 /usr/local/xenon/xenon/lib/32/libc.a(lib_a-strlcpy.o)
                0x0000000080056760                strlcpy
 .text          0x00000000800567e8       0xb4 /usr/local/xenon/xenon/lib/32/libc.a(lib_a-strlen.o)
                0x00000000800567e8                strlen
 *fill*         0x000000008005689c        0x4 00
 .text          0x00000000800568a0       0xe8 /usr/local/xenon/xenon/lib/32/libc.a(lib_a-strncasecmp.o)
                0x00000000800568a4                strncasecmp
 .text          0x0000000080056988      0x180 /usr/local/xenon/xenon/lib/32/libc.a(lib_a-strncmp.o)
                0x0000000080056988                strncmp
 .text          0x0000000080056b08      0x108 /usr/local/xenon/xenon/lib/32/libc.a(lib_a-strncpy.o)
                0x0000000080056b08                strncpy
 .text          0x0000000080056c10       0x98 /usr/local/xenon/xenon/lib/32/libc.a(lib_a-strrchr.o)
                0x0000000080056c10                strrchr
 .text          0x0000000080056ca8      0x12c /usr/local/xenon/xenon/lib/32/libc.a(lib_a-strtok_r.o)
                0x0000000080056db0                strtok_r
                0x0000000080056ca8                __strtok_r
 *fill*         0x0000000080056dd4        0x4 00
 .text          0x0000000080056dd8      0x2a4 /usr/local/xenon/xenon/lib/32/libc.a(lib_a-strtol.o)
                0x000000008005702c                strtol
                0x0000000080056ddc                _strtol_r
 *fill*         0x000000008005707c        0x4 00
 .text          0x0000000080057080     0x2144 /usr/local/xenon/xenon/lib/32/libc.a(lib_a-svfprintf.o)
                0x000000008005736c                _svfprintf_r
 *fill*         0x00000000800591c4        0x4 00
 .text          0x00000000800591c8     0x1224 /usr/local/xenon/xenon/lib/32/libc.a(lib_a-vfiprintf.o)
                0x000000008005a39c                vfiprintf
                0x0000000080059234                _vfiprintf_r
 *fill*         0x000000008005a3ec        0x4 00
 .text          0x000000008005a3f0     0x1ffc /usr/local/xenon/xenon/lib/32/libc.a(lib_a-vfprintf.o)
                0x000000008005a45c                _vfprintf_r
                0x000000008005c39c                vfprintf
 *fill*         0x000000008005c3ec        0x4 00
 .text          0x000000008005c3f0      0x1e4 /usr/local/xenon/xenon/lib/32/libc.a(lib_a-wbuf.o)
                0x000000008005c3f0                __swbuf_r
                0x000000008005c58c                __swbuf
 *fill*         0x000000008005c5d4        0x4 00
 .text          0x000000008005c5d8      0x1a8 /usr/local/xenon/xenon/lib/32/libc.a(lib_a-wsetup.o)
                0x000000008005c5dc                __swsetup_r
 .text          0x000000008005c780       0x1c /usr/local/xenon/xenon/lib/32/libc.a(lib_a-abort.o)
                0x000000008005c780                abort
 *fill*         0x000000008005c79c        0x4 00
 .text          0x000000008005c7a0      0x1f4 /usr/local/xenon/xenon/lib/32/libc.a(lib_a-__call_atexit.o)
                0x000000008005c7a4                __call_exitprocs
 *fill*         0x000000008005c994        0x4 00
 .text          0x000000008005c998     0x144c /usr/local/xenon/xenon/lib/32/libc.a(lib_a-dtoa.o)
                0x000000008005cbd4                _dtoa_r
 *fill*         0x000000008005dde4        0x4 00
 .text          0x000000008005dde8      0x2ec /usr/local/xenon/xenon/lib/32/libc.a(lib_a-fflush.o)
                0x000000008005e064                fflush
                0x000000008005dde8                _fflush_r
 *fill*         0x000000008005e0d4        0x4 00
 .text          0x000000008005e0d8      0x49c /usr/local/xenon/xenon/lib/32/libc.a(lib_a-findfp.o)
                0x000000008005e2d4                __sinit
                0x000000008005e388                __sfmoreglue
                0x000000008005e1ec                _cleanup
                0x000000008005e1ac                _cleanup_r
                0x000000008005e15c                __fp_lock_all
                0x000000008005e0d8                __sfp_lock_acquire
                0x000000008005e40c                __sfp
                0x000000008005e0f0                __sinit_lock_release
                0x000000008005e10c                __fp_unlock_all
                0x000000008005e0e0                __sfp_lock_release
                0x000000008005e0e8                __sinit_lock_acquire
 *fill*         0x000000008005e574        0x4 00
 .text          0x000000008005e578      0x428 /usr/local/xenon/xenon/lib/32/libc.a(lib_a-freer.o)
                0x000000008005e6dc                _free_r
                0x000000008005e57c                _malloc_trim_r
 .text          0x000000008005e9a0      0x58c /usr/local/xenon/xenon/lib/32/libc.a(lib_a-fvwrite.o)
                0x000000008005e9a0                __sfvwrite_r
 *fill*         0x000000008005ef2c        0x4 00
 .text          0x000000008005ef30      0x18c /usr/local/xenon/xenon/lib/32/libc.a(lib_a-fwalk.o)
                0x000000008005f000                _fwalk
                0x000000008005ef30                _fwalk_reent
 *fill*         0x000000008005f0bc        0x4 00
 .text          0x000000008005f0c0      0x1ec /usr/local/xenon/xenon/lib/32/libc.a(lib_a-locale.o)
                0x000000008005f18c                _setlocale_r
                0x000000008005f0c4                __locale_charset
                0x000000008005f104                _localeconv_r
                0x000000008005f264                setlocale
                0x000000008005f144                localeconv
 *fill*         0x000000008005f2ac        0x4 00
 .text          0x000000008005f2b0      0x22c /usr/local/xenon/xenon/lib/32/libc.a(lib_a-makebuf.o)
                0x000000008005f2b4                __smakebuf_r
 *fill*         0x000000008005f4dc        0x4 00
 .text          0x000000008005f4e0      0x16c /usr/local/xenon/xenon/lib/32/libc.a(lib_a-memmove.o)
                0x000000008005f4e0                memmove
 *fill*         0x000000008005f64c        0x4 00
 .text          0x000000008005f650     0x1334 /usr/local/xenon/xenon/lib/32/libc.a(lib_a-mprec.o)
                0x000000008005fb9c                _mprec_log10
                0x000000008005fca8                __any_on
                0x000000008005fd50                _Balloc
                0x000000008005fab0                __ratio
                0x0000000080060580                __i2b
                0x000000008005f920                __b2d
                0x0000000080060850                __s2b
                0x000000008005f7e0                __mcmp
                0x000000008005f678                __hi0bits
                0x00000000800606ec                __pow5mult
                0x0000000080060198                __lshift
                0x0000000080060328                __multiply
                0x000000008005fe10                __d2b
                0x000000008005fc18                __copybits
                0x000000008005f870                __ulp
                0x000000008005ffc0                __mdiff
                0x000000008005f6f0                __lo0bits
                0x00000000800605c0                __multadd
                0x000000008005f650                _Bfree
 *fill*         0x0000000080060984        0x4 00
 .text          0x0000000080060988      0x650 /usr/local/xenon/xenon/lib/32/libc.a(lib_a-reallocr.o)
                0x000000008006098c                _realloc_r
 .text          0x0000000080060fd8      0x3dc /usr/local/xenon/xenon/lib/32/libc.a(lib_a-signal.o)
                0x00000000800612d8                _signal_r
                0x0000000080060fd8                _raise_r
                0x00000000800611d0                __sigtramp_r
                0x000000008006136c                signal
                0x000000008006118c                _init_signal
                0x0000000080061108                _init_signal_r
                0x0000000080061294                __sigtramp
                0x00000000800610c4                raise
 *fill*         0x00000000800613b4        0x4 00
 .text          0x00000000800613b8       0xbc /usr/local/xenon/xenon/lib/32/libc.a(lib_a-signalr.o)
                0x00000000800613dc                _kill_r
                0x00000000800613b8                _getpid_r
 *fill*         0x0000000080061474        0x4 00
 .text          0x0000000080061478       0x44 /usr/local/xenon/xenon/lib/32/libc.a(lib_a-s_isinfd.o)
                0x0000000080061478                __isinfd
 *fill*         0x00000000800614bc        0x4 00
 .text          0x00000000800614c0       0x38 /usr/local/xenon/xenon/lib/32/libc.a(lib_a-s_isnand.o)
                0x00000000800614c0                __isnand
 .text          0x00000000800614f8      0x1a8 /usr/local/xenon/xenon/lib/32/libc.a(lib_a-stdio.o)
                0x0000000080061520                __sseek
                0x0000000080061638                __sread
                0x00000000800614f8                __sclose
                0x0000000080061590                __swrite
 .text          0x00000000800616a0       0x9c /usr/local/xenon/xenon/lib/32/libc.a(lib_a-writer.o)
                0x00000000800616a4                _write_r
 *fill*         0x000000008006173c        0x4 00
 .text          0x0000000080061740       0xd0 /usr/local/xenon/xenon/lib/32/libc.a(lib_a-callocr.o)
                0x0000000080061740                _calloc_r
 .text          0x0000000080061810       0x94 /usr/local/xenon/xenon/lib/32/libc.a(lib_a-closer.o)
                0x0000000080061814                _close_r
 *fill*         0x00000000800618a4        0x4 00
 .text          0x00000000800618a8      0x1b8 /usr/local/xenon/xenon/lib/32/libc.a(lib_a-fclose.o)
                0x00000000800618a8                _fclose_r
                0x0000000080061a1c                fclose
 .text          0x0000000080061a60       0x9c /usr/local/xenon/xenon/lib/32/libc.a(lib_a-fstatr.o)
                0x0000000080061a64                _fstat_r
 *fill*         0x0000000080061afc        0x4 00
 .text          0x0000000080061b00       0x94 /usr/local/xenon/xenon/lib/32/libc.a(lib_a-isattyr.o)
                0x0000000080061b04                _isatty_r
 *fill*         0x0000000080061b94        0x4 00
 .text          0x0000000080061b98       0x9c /usr/local/xenon/xenon/lib/32/libc.a(lib_a-lseekr.o)
                0x0000000080061b9c                _lseek_r
 *fill*         0x0000000080061c34        0x4 00
 .text          0x0000000080061c38       0x9c /usr/local/xenon/xenon/lib/32/libc.a(lib_a-readr.o)
                0x0000000080061c3c                _read_r
 *(.init*)

.elfldr         0x0000000080061cd4        0x0
                0x0000000080061cd4                elfldr_start = .
 *(.elfldr)
                0x0000000080061cd4                elfldr_end = .

.data           0x0000000080061cd8     0x588c
 *(.data*)
 .data.console_color
                0x0000000080061cd8        0x8 /usr/local/xenon/usr/lib/libxenon.a(console.o)
 .data.mounts   0x0000000080061ce0      0x480 /usr/local/xenon/usr/lib/libxenon.a(newlib.o)
 .data.vfs_console_ops
                0x0000000080062160       0x18 /usr/local/xenon/usr/lib/libxenon.a(newlib.o)
                0x0000000080062160                vfs_console_ops
 .data.vfs_console_mount_ops
                0x0000000080062178       0x10 /usr/local/xenon/usr/lib/libxenon.a(newlib.o)
                0x0000000080062178                vfs_console_mount_ops
 .data.fd_array
                0x0000000080062188      0xc00 /usr/local/xenon/usr/lib/libxenon.a(newlib.o)
 .data.ana_1280x1024
                0x0000000080062d88      0x400 /usr/local/xenon/usr/lib/libxenon.a(xenos.o)
                0x0000000080062d88                ana_1280x1024
 .data.ana_640x480p
                0x0000000080063188      0x400 /usr/local/xenon/usr/lib/libxenon.a(xenos.o)
                0x0000000080063188                ana_640x480p
 .data.ana_1360x768
                0x0000000080063588      0x400 /usr/local/xenon/usr/lib/libxenon.a(xenos.o)
                0x0000000080063588                ana_1360x768
 .data.ana_1280x720
                0x0000000080063988      0x400 /usr/local/xenon/usr/lib/libxenon.a(xenos.o)
                0x0000000080063988                ana_1280x720
 .data.ana_ntsc_480i
                0x0000000080063d88      0x400 /usr/local/xenon/usr/lib/libxenon.a(xenos.o)
                0x0000000080063d88                ana_ntsc_480i
 .data.ana_1024x768
                0x0000000080064188      0x400 /usr/local/xenon/usr/lib/libxenon.a(xenos.o)
                0x0000000080064188                ana_1024x768
 .data.ana_pal  0x0000000080064588      0x400 /usr/local/xenon/usr/lib/libxenon.a(xenos.o)
                0x0000000080064588                ana_pal
 .data.ana_yuv_720p
                0x0000000080064988      0x400 /usr/local/xenon/usr/lib/libxenon.a(xenos.o)
                0x0000000080064988                ana_yuv_720p
 .data.ana_yuv_480p
                0x0000000080064d88      0x400 /usr/local/xenon/usr/lib/libxenon.a(xenos.o)
                0x0000000080064d88                ana_yuv_480p
 .data.ana_hdmi_720p
                0x0000000080065188      0x400 /usr/local/xenon/usr/lib/libxenon.a(xenos.o)
                0x0000000080065188                ana_hdmi_720p
 .data.xenos_modes
                0x0000000080065588      0x2d8 /usr/local/xenon/usr/lib/libxenon.a(xenos.o)
                0x0000000080065588                xenos_modes
 .data.ana_640_480_composite
                0x0000000080065860      0x400 /usr/local/xenon/usr/lib/libxenon.a(xenos.o)
                0x0000000080065860                ana_640_480_composite
 .data.ana_1440x900
                0x0000000080065c60      0x400 /usr/local/xenon/usr/lib/libxenon.a(xenos.o)
                0x0000000080065c60                ana_1440x900
 .data.ana_1280x768
                0x0000000080066060      0x400 /usr/local/xenon/usr/lib/libxenon.a(xenos.o)
                0x0000000080066060                ana_1280x768
 .data.ohci_driver
                0x0000000080066460       0x2c /usr/local/xenon/usr/lib/libxenon.a(ohci.o)
                0x0000000080066460                ohci_driver
 .data.usb_drivers
                0x000000008006648c       0x70 /usr/local/xenon/usr/lib/libxenon.a(usbdevs.o)
                0x000000008006648c                usb_drivers
 .data.usbhid_driver
                0x00000000800664fc        0xc /usr/local/xenon/usr/lib/libxenon.a(usbhid.o)
                0x00000000800664fc                usbhid_driver
 .data.usbhid_scantable
                0x0000000080066508      0x650 /usr/local/xenon/usr/lib/libxenon.a(usbhid.o)
 .data.usbhub_driver
                0x0000000080066b58        0xc /usr/local/xenon/usr/lib/libxenon.a(usbhub.o)
                0x0000000080066b58                usbhub_driver
 .data.usbroothub_driver
                0x0000000080066b64        0xc /usr/local/xenon/usr/lib/libxenon.a(usbhub.o)
                0x0000000080066b64                usbroothub_driver
 .data.usbmass_driver
                0x0000000080066b70        0xc /usr/local/xenon/usr/lib/libxenon.a(usbmass.o)
                0x0000000080066b70                usbmass_driver
 .data.vfs_fat_mount_ops
                0x0000000080066b7c       0x10 /usr/local/xenon/usr/lib/libxenon.a(fat.o)
                0x0000000080066b7c                vfs_fat_mount_ops
 .data.vfs_fat_file_ops
                0x0000000080066b8c       0x18 /usr/local/xenon/usr/lib/libxenon.a(fat.o)
                0x0000000080066b8c                vfs_fat_file_ops
 .data.vfs_iso9660_mount_ops
                0x0000000080066ba4       0x10 /usr/local/xenon/usr/lib/libxenon.a(iso9660.o)
                0x0000000080066ba4                vfs_iso9660_mount_ops
 .data.vfs_iso9660_file_ops
                0x0000000080066bb4       0x18 /usr/local/xenon/usr/lib/libxenon.a(iso9660.o)
                0x0000000080066bb4                vfs_iso9660_file_ops
 .data.usbctrl_driver
                0x0000000080066bcc        0xc /usr/local/xenon/usr/lib/libxenon.a(usbctrl.o)
                0x0000000080066bcc                usbctrl_driver
 .data.bootstrap
                0x0000000080066bd8        0x8 /usr/local/xenon/usr/lib/libSDL.a(SDL_audio.o)
 .data.default_cdata
                0x0000000080066be0       0x20 /usr/local/xenon/usr/lib/libSDL.a(SDL_cursor.o)
 .data.default_cmask
                0x0000000080066c00       0x20 /usr/local/xenon/usr/lib/libSDL.a(SDL_cursor.o)
 .data.palette_changed
                0x0000000080066c20        0x4 /usr/local/xenon/usr/lib/libSDL.a(SDL_cursor.o)
 .data.bootstrap
                0x0000000080066c24        0x8 /usr/local/xenon/usr/lib/libSDL.a(SDL_video.o)
 .data.SDL_closest_depths
                0x0000000080066c2c       0x20 /usr/local/xenon/usr/lib/libSDL.a(SDL_video.o)
 .data.DUMMYAUD_bootstrap
                0x0000000080066c4c       0x10 /usr/local/xenon/usr/lib/libSDL.a(SDL_dummyaudio.o)
                0x0000000080066c4c                DUMMYAUD_bootstrap
 .data.XENON_bootstrap
                0x0000000080066c5c       0x10 /usr/local/xenon/usr/lib/libSDL.a(SDL_nullvideo.o)
                0x0000000080066c5c                XENON_bootstrap
 .data.vid_modes
                0x0000000080066c6c       0x20 /usr/local/xenon/usr/lib/libSDL.a(SDL_nullvideo.o)
 .data.getpixes
                0x0000000080066c8c       0x10 /usr/local/xenon/usr/lib/libSDL.a(SDL_RLEaccel.o)
 .data.bitmap_blit
                0x0000000080066c9c       0x14 /usr/local/xenon/usr/lib/libSDL.a(SDL_blit_0.o)
 .data.colorkey_blit
                0x0000000080066cb0       0x14 /usr/local/xenon/usr/lib/libSDL.a(SDL_blit_0.o)
 .data.one_blit
                0x0000000080066cc4       0x14 /usr/local/xenon/usr/lib/libSDL.a(SDL_blit_1.o)
 .data.one_blitkey
                0x0000000080066cd8       0x14 /usr/local/xenon/usr/lib/libSDL.a(SDL_blit_1.o)
 .data.normal_blit
                0x0000000080066cec       0x10 /usr/local/xenon/usr/lib/libSDL.a(SDL_blit_N.o)
 .data.SDL_CPUFeatures
                0x0000000080066cfc        0x4 /usr/local/xenon/usr/lib/libSDL.a(SDL_cpuinfo.o)
 .data.rel.local
                0x0000000080066d00      0x428 /usr/local/xenon/xenon/lib/32/libc.a(lib_a-impure.o)
 .data.rel      0x0000000080067128      0x408 /usr/local/xenon/xenon/lib/32/libc.a(lib_a-mallocr.o)
                0x0000000080067128                __malloc_av_
 .data.rel.ro.local
                0x0000000080067530       0x34 /usr/local/xenon/xenon/lib/32/libc.a(lib_a-locale.o)

.got2           0x0000000080067564      0x1dc
 .got2          0x0000000080067564       0x10 /usr/local/xenon/xenon/lib/32/libc.a(lib_a-assert.o)
 .got2          0x0000000080067574        0x4 /usr/local/xenon/xenon/lib/32/libc.a(lib_a-errno.o)
 .got2          0x0000000080067578        0x4 /usr/local/xenon/xenon/lib/32/libc.a(lib_a-exit.o)
 .got2          0x000000008006757c        0x4 /usr/local/xenon/xenon/lib/32/libc.a(lib_a-fiprintf.o)
 .got2          0x0000000080067580        0x4 /usr/local/xenon/xenon/lib/32/libc.a(lib_a-malloc.o)
 .got2          0x0000000080067584       0x1c /usr/local/xenon/xenon/lib/32/libc.a(lib_a-mallocr.o)
 .got2          0x00000000800675a0        0x4 /usr/local/xenon/xenon/lib/32/libc.a(lib_a-printf.o)
 .got2          0x00000000800675a4        0x4 /usr/local/xenon/xenon/lib/32/libc.a(lib_a-putchar.o)
 .got2          0x00000000800675a8        0x4 /usr/local/xenon/xenon/lib/32/libc.a(lib_a-putc.o)
 .got2          0x00000000800675ac        0x8 /usr/local/xenon/xenon/lib/32/libc.a(lib_a-puts.o)
 .got2          0x00000000800675b4        0x4 /usr/local/xenon/xenon/lib/32/libc.a(lib_a-sbrkr.o)
 .got2          0x00000000800675b8        0x4 /usr/local/xenon/xenon/lib/32/libc.a(lib_a-snprintf.o)
 .got2          0x00000000800675bc        0x4 /usr/local/xenon/xenon/lib/32/libc.a(lib_a-sprintf.o)
 .got2          0x00000000800675c0        0x4 /usr/local/xenon/xenon/lib/32/libc.a(lib_a-strcasecmp.o)
 .got2          0x00000000800675c4        0x4 /usr/local/xenon/xenon/lib/32/libc.a(lib_a-strncasecmp.o)
 .got2          0x00000000800675c8        0x8 /usr/local/xenon/xenon/lib/32/libc.a(lib_a-strtol.o)
 .got2          0x00000000800675d0       0x30 /usr/local/xenon/xenon/lib/32/libc.a(lib_a-svfprintf.o)
 .got2          0x0000000080067600       0x1c /usr/local/xenon/xenon/lib/32/libc.a(lib_a-vfiprintf.o)
 .got2          0x000000008006761c       0x34 /usr/local/xenon/xenon/lib/32/libc.a(lib_a-vfprintf.o)
 .got2          0x0000000080067650        0x4 /usr/local/xenon/xenon/lib/32/libc.a(lib_a-wbuf.o)
 .got2          0x0000000080067654        0x4 /usr/local/xenon/xenon/lib/32/libc.a(lib_a-wsetup.o)
 .got2          0x0000000080067658        0x4 /usr/local/xenon/xenon/lib/32/libc.a(lib_a-__call_atexit.o)
 .got2          0x000000008006765c       0x48 /usr/local/xenon/xenon/lib/32/libc.a(lib_a-dtoa.o)
 .got2          0x00000000800676a4        0xc /usr/local/xenon/xenon/lib/32/libc.a(lib_a-fflush.o)
 .got2          0x00000000800676b0       0x28 /usr/local/xenon/xenon/lib/32/libc.a(lib_a-findfp.o)
 .got2          0x00000000800676d8       0x18 /usr/local/xenon/xenon/lib/32/libc.a(lib_a-freer.o)
 .got2          0x00000000800676f0       0x10 /usr/local/xenon/xenon/lib/32/libc.a(lib_a-locale.o)
 .got2          0x0000000080067700        0x8 /usr/local/xenon/xenon/lib/32/libc.a(lib_a-makebuf.o)
 .got2          0x0000000080067708       0x10 /usr/local/xenon/xenon/lib/32/libc.a(lib_a-mprec.o)
 .got2          0x0000000080067718        0x4 /usr/local/xenon/xenon/lib/32/libc.a(lib_a-reallocr.o)
 .got2          0x000000008006771c        0x4 /usr/local/xenon/xenon/lib/32/libc.a(lib_a-signal.o)
 .got2          0x0000000080067720        0x4 /usr/local/xenon/xenon/lib/32/libc.a(lib_a-signalr.o)
 .got2          0x0000000080067724        0x4 /usr/local/xenon/xenon/lib/32/libc.a(lib_a-writer.o)
 .got2          0x0000000080067728        0x4 /usr/local/xenon/xenon/lib/32/libc.a(lib_a-closer.o)
 .got2          0x000000008006772c        0x4 /usr/local/xenon/xenon/lib/32/libc.a(lib_a-fclose.o)
 .got2          0x0000000080067730        0x4 /usr/local/xenon/xenon/lib/32/libc.a(lib_a-fstatr.o)
 .got2          0x0000000080067734        0x4 /usr/local/xenon/xenon/lib/32/libc.a(lib_a-isattyr.o)
 .got2          0x0000000080067738        0x4 /usr/local/xenon/xenon/lib/32/libc.a(lib_a-lseekr.o)
 .got2          0x000000008006773c        0x4 /usr/local/xenon/xenon/lib/32/libc.a(lib_a-readr.o)

.sdata          0x0000000080067740       0x30
 *(.sdata*)
 .sdata.usbmass_ops
                0x0000000080067740        0x4 /usr/local/xenon/usr/lib/libxenon.a(usbmass.o)
                0x0000000080067740                usbmass_ops
 .sdata.vfs_fat_dir_ops
                0x0000000080067744        0x8 /usr/local/xenon/usr/lib/libxenon.a(fat.o)
                0x0000000080067744                vfs_fat_dir_ops
 .sdata.vfs_iso9660_dir_ops
                0x000000008006774c        0x8 /usr/local/xenon/usr/lib/libxenon.a(iso9660.o)
                0x000000008006774c                vfs_iso9660_dir_ops
 .sdata.SDL_cursorstate
                0x0000000080067754        0x4 /usr/local/xenon/usr/lib/libSDL.a(SDL_cursor.o)
                0x0000000080067754                SDL_cursorstate
 .sdata         0x0000000080067758        0x8 /usr/local/xenon/xenon/lib/32/libc.a(lib_a-ctype_.o)
                0x0000000080067758                __ctype_ptr
                0x000000008006775c                __ctype_ptr__
 .sdata         0x0000000080067760        0x8 /usr/local/xenon/xenon/lib/32/libc.a(lib_a-impure.o)
                0x0000000080067764                _global_impure_ptr
                0x0000000080067760                _impure_ptr
 .sdata         0x0000000080067768        0x8 /usr/local/xenon/xenon/lib/32/libc.a(lib_a-mallocr.o)
                0x000000008006776c                __malloc_sbrk_base
                0x0000000080067768                __malloc_trim_threshold

.rodata         0x0000000080067770     0x71e8
 *(.rodata*)
 .rodata.str1.1
                0x0000000080067770       0x33 /usr/local/xenon/usr/lib/libxenon.a(console.o)
 *fill*         0x00000000800677a3        0x5 00
 .rodata.fontdata_8x16
                0x00000000800677a8     0x1000 /usr/local/xenon/usr/lib/libxenon.a(console.o)
                0x00000000800677a8                fontdata_8x16
 .rodata.str1.1
                0x00000000800687a8       0x1d /usr/local/xenon/usr/lib/libxenon.a(newlib.o)
 .rodata.str1.1
                0x00000000800687c5       0x4b /usr/local/xenon/usr/lib/libxenon.a(lib_malloc.o)
 .rodata.str1.1
                0x0000000080068810       0x97 /usr/local/xenon/usr/lib/libxenon.a(usbmain.o)
 *fill*         0x00000000800688a7        0x1 00
 .rodata.C.12.3395
                0x00000000800688a8       0x40 /usr/local/xenon/usr/lib/libxenon.a(xenos.o)
 .rodata.CSWTCH.31
                0x00000000800688e8       0x10 /usr/local/xenon/usr/lib/libxenon.a(xenos.o)
 .rodata.C.9.3386
                0x00000000800688f8       0x44 /usr/local/xenon/usr/lib/libxenon.a(xenos.o)
 .rodata.C.13.3414
                0x000000008006893c       0x5c /usr/local/xenon/usr/lib/libxenon.a(xenos.o)
 .rodata.str1.1
                0x0000000080068998      0x1e0 /usr/local/xenon/usr/lib/libxenon.a(xenos.o)
 .rodata.__FUNCTION__.3425
                0x0000000080068b78       0x12 /usr/local/xenon/usr/lib/libxenon.a(xenos.o)
 *fill*         0x0000000080068b8a        0x6 00
 .rodata.__FUNCTION__.3630
                0x0000000080068b90       0x12 /usr/local/xenon/usr/lib/libxenon.a(xenos.o)
 *fill*         0x0000000080068ba2        0x2 00
 .rodata.C.6.3366
                0x0000000080068ba4       0x1c /usr/local/xenon/usr/lib/libxenon.a(xenos.o)
 .rodata.C.10.3387
                0x0000000080068bc0       0x44 /usr/local/xenon/usr/lib/libxenon.a(xenos.o)
 .rodata.ohci_xfer
                0x0000000080068c04       0x50 /usr/local/xenon/usr/lib/libxenon.a(ohci.o)
 .rodata.ohci_root_ifdsc
                0x0000000080068c54        0x9 /usr/local/xenon/usr/lib/libxenon.a(ohci.o)
 *fill*         0x0000000080068c5d        0x3 00
 .rodata.ohci_revbits
                0x0000000080068c60       0x80 /usr/local/xenon/usr/lib/libxenon.a(ohci.o)
 .rodata.ohci_root_cfgdsc
                0x0000000080068ce0        0x9 /usr/local/xenon/usr/lib/libxenon.a(ohci.o)
 .rodata.str1.1
                0x0000000080068ce9       0x11 /usr/local/xenon/usr/lib/libxenon.a(ohci.o)
 .rodata.ohci_root_devdsc
                0x0000000080068cfa       0x12 /usr/local/xenon/usr/lib/libxenon.a(ohci.o)
 .rodata.ohci_root_hubdsc
                0x0000000080068d0c       0x47 /usr/local/xenon/usr/lib/libxenon.a(ohci.o)
 .rodata.ohci_root_epdsc
                0x0000000080068d53        0x7 /usr/local/xenon/usr/lib/libxenon.a(ohci.o)
 .rodata.str1.1
                0x0000000080068d5a      0x100 /usr/local/xenon/usr/lib/libxenon.a(usbd.o)
 .rodata.str1.1
                0x0000000080068e5a       0x47 /usr/local/xenon/usr/lib/libxenon.a(usbdevs.o)
 .rodata.str1.1
                0x0000000080068ea1       0x4a /usr/local/xenon/usr/lib/libxenon.a(usbhid.o)
 *fill*         0x0000000080068eeb        0x1 00
 .rodata.usbhid_devtypes
                0x0000000080068eec        0xc /usr/local/xenon/usr/lib/libxenon.a(usbhid.o)
 .rodata.str1.1
                0x0000000080068ef8      0x241 /usr/local/xenon/usr/lib/libxenon.a(usbhub.o)
                                        0x24a (size before relaxing)
 .rodata.str1.1
                0x0000000080069139       0x63 /usr/local/xenon/usr/lib/libxenon.a(usbmass.o)
 .rodata.str1.1
                0x000000008006919c      0x10b /usr/local/xenon/usr/lib/libxenon.a(xenon_smc.o)
 .rodata.str1.1
                0x00000000800692a7       0x40 /usr/local/xenon/usr/lib/libxenon.a(xenon_config.o)
 .rodata.str1.1
                0x00000000800692e7       0x78 /usr/local/xenon/usr/lib/libxenon.a(diskio.o)
                                         0x79 (size before relaxing)
 *fill*         0x000000008006935f        0x1 00
 .rodata.daysinmonth.4271
                0x0000000080069360        0xc /usr/local/xenon/usr/lib/libxenon.a(fat_rb.o)
 *fill*         0x000000008006936c        0x4 00
 .rodata.FATLONG_NAME_SIZE
                0x0000000080069370        0x3 /usr/local/xenon/usr/lib/libxenon.a(fat_rb.o)
 .rodata.str1.1
                0x0000000080069373      0x640 /usr/local/xenon/usr/lib/libxenon.a(fat_rb.o)
                                        0x642 (size before relaxing)
 *fill*         0x00000000800699b3        0x5 00
 .rodata.invalid_chars.4528
                0x00000000800699b8        0xa /usr/local/xenon/usr/lib/libxenon.a(fat_rb.o)
 *fill*         0x00000000800699c2        0x6 00
 .rodata.FATLONG_NAME_POS
                0x00000000800699c8        0x3 /usr/local/xenon/usr/lib/libxenon.a(fat_rb.o)
 *fill*         0x00000000800699cb        0x5 00
 .rodata.invalid_chars.4663
                0x00000000800699d0       0x11 /usr/local/xenon/usr/lib/libxenon.a(fat_rb.o)
 .rodata.str1.1
                0x00000000800699e1      0x1a4 /usr/local/xenon/usr/lib/libxenon.a(file_rb.o)
 .rodata.str1.1
                0x0000000080069b85      0x112 /usr/local/xenon/usr/lib/libxenon.a(dir_rb.o)
                                        0x141 (size before relaxing)
 .rodata.str1.1
                0x0000000080069c97       0xba /usr/local/xenon/usr/lib/libxenon.a(iso9660.o)
 .rodata.str1.1
                0x0000000080069d51       0x73 /usr/local/xenon/usr/lib/libxenon.a(usbctrl.o)
 .rodata.str1.1
                0x0000000080069dc4      0x61a /usr/local/xenon/usr/lib/libxenon.a(usbdebug.o)
                                        0x672 (size before relaxing)
 *fill*         0x000000008006a3de        0x2 00
 .rodata.eptattribs.3323
                0x000000008006a3e0       0x10 /usr/local/xenon/usr/lib/libxenon.a(usbdebug.o)
 .rodata.utf8comp
                0x000000008006a3f0        0x6 /usr/local/xenon/usr/lib/libxenon.a(unicode_rb.o)
 .rodata.str1.1
                0x000000008006a3f6      0x11d /usr/local/xenon/usr/lib/libxenon.a(xenon_sfcx.o)
 .rodata.str1.1
                0x000000008006a513       0xb3 /usr/local/xenon/usr/lib/libxenon.a(disk_rb.o)
 *fill*         0x000000008006a5c6        0x2 00
 .rodata.fat_partition_types
                0x000000008006a5c8        0xa /usr/local/xenon/usr/lib/libxenon.a(disk_rb.o)
 *fill*         0x000000008006a5d2        0x6 00
 .rodata        0x000000008006a5d8       0x89 /usr/local/xenon/usr/lib/libSDL.a(SDL.o)
 *fill*         0x000000008006a661        0x7 00
 .rodata        0x000000008006a668       0x8a /usr/local/xenon/usr/lib/libSDL.a(SDL_error.o)
 *fill*         0x000000008006a6f2        0x6 00
 .rodata        0x000000008006a6f8      0x12d /usr/local/xenon/usr/lib/libSDL.a(SDL_audio.o)
 *fill*         0x000000008006a825        0x3 00
 .rodata        0x000000008006a828       0x1a /usr/local/xenon/usr/lib/libSDL.a(SDL_events.o)
 *fill*         0x000000008006a842        0x6 00
 .rodata        0x000000008006a848      0xaad /usr/local/xenon/usr/lib/libSDL.a(SDL_keyboard.o)
 *fill*         0x000000008006b2f5        0x3 00
 .rodata        0x000000008006b2f8       0x20 /usr/local/xenon/usr/lib/libSDL.a(SDL_string.o)
 .rodata        0x000000008006b318       0xa9 /usr/local/xenon/usr/lib/libSDL.a(SDL_timer.o)
 *fill*         0x000000008006b3c1        0x7 00
 .rodata        0x000000008006b3c8       0x5e /usr/local/xenon/usr/lib/libSDL.a(SDL_cursor.o)
 *fill*         0x000000008006b426        0x2 00
 .rodata        0x000000008006b428      0x12a /usr/local/xenon/usr/lib/libSDL.a(SDL_surface.o)
 *fill*         0x000000008006b552        0x6 00
 .rodata        0x000000008006b558      0x2db /usr/local/xenon/usr/lib/libSDL.a(SDL_video.o)
 *fill*         0x000000008006b833        0x5 00
 .rodata        0x000000008006b838       0x34 /usr/local/xenon/usr/lib/libSDL.a(SDL_dummyaudio.o)
 *fill*         0x000000008006b86c        0x4 00
 .rodata        0x000000008006b870      0x2a0 /usr/local/xenon/usr/lib/libSDL.a(SDL_nullvideo.o)
 .rodata.RECT_1280x720
                0x000000008006bb10        0x8 /usr/local/xenon/usr/lib/libSDL.a(SDL_nullvideo.o)
 .rodata.RECT_800x600
                0x000000008006bb18        0x8 /usr/local/xenon/usr/lib/libSDL.a(SDL_nullvideo.o)
 .rodata.RECT_640x480
                0x000000008006bb20        0x8 /usr/local/xenon/usr/lib/libSDL.a(SDL_nullvideo.o)
 .rodata.RECT_512x384
                0x000000008006bb28        0x8 /usr/local/xenon/usr/lib/libSDL.a(SDL_nullvideo.o)
 .rodata.RECT_400x300
                0x000000008006bb30        0x8 /usr/local/xenon/usr/lib/libSDL.a(SDL_nullvideo.o)
 .rodata.RECT_320x240
                0x000000008006bb38        0x8 /usr/local/xenon/usr/lib/libSDL.a(SDL_nullvideo.o)
 .rodata.RECT_320x200
                0x000000008006bb40        0x8 /usr/local/xenon/usr/lib/libSDL.a(SDL_nullvideo.o)
 .rodata.XENON_SetVideoMode
                0x000000008006bb48       0x64 /usr/local/xenon/usr/lib/libSDL.a(SDL_nullvideo.o)
 .rodata.vbf.3278
                0x000000008006bbac       0x7c /usr/local/xenon/usr/lib/libSDL.a(SDL_nullvideo.o)
 .rodata        0x000000008006bc28       0x27 /usr/local/xenon/usr/lib/libSDL.a(SDL_syssem.o)
 *fill*         0x000000008006bc4f        0x1 00
 .rodata        0x000000008006bc50       0x2b /usr/local/xenon/usr/lib/libSDL.a(SDL_systhread.o)
 *fill*         0x000000008006bc7b        0x5 00
 .rodata        0x000000008006bc80       0x1f /usr/local/xenon/usr/lib/libSDL.a(SDL_blit.o)
 *fill*         0x000000008006bc9f        0x1 00
 .rodata.Blit1to1
                0x000000008006bca0       0x20 /usr/local/xenon/usr/lib/libSDL.a(SDL_blit_1.o)
 .rodata.Blit1to2
                0x000000008006bcc0       0x20 /usr/local/xenon/usr/lib/libSDL.a(SDL_blit_1.o)
 .rodata.Blit1to3
                0x000000008006bce0       0x20 /usr/local/xenon/usr/lib/libSDL.a(SDL_blit_1.o)
 .rodata.Blit1to4
                0x000000008006bd00       0x20 /usr/local/xenon/usr/lib/libSDL.a(SDL_blit_1.o)
 .rodata.Blit1to1Key
                0x000000008006bd20       0x40 /usr/local/xenon/usr/lib/libSDL.a(SDL_blit_1.o)
 .rodata.Blit1to2Key
                0x000000008006bd60       0x20 /usr/local/xenon/usr/lib/libSDL.a(SDL_blit_1.o)
 .rodata.Blit1to3Key
                0x000000008006bd80       0x20 /usr/local/xenon/usr/lib/libSDL.a(SDL_blit_1.o)
 .rodata.Blit1to4Key
                0x000000008006bda0       0x20 /usr/local/xenon/usr/lib/libSDL.a(SDL_blit_1.o)
 .rodata.Blit1toNAlphaKey
                0x000000008006bdc0       0x20 /usr/local/xenon/usr/lib/libSDL.a(SDL_blit_1.o)
 .rodata.Blit_RGB888_index8
                0x000000008006bde0       0x40 /usr/local/xenon/usr/lib/libSDL.a(SDL_blit_N.o)
 .rodata.Blit_RGB888_RGB555
                0x000000008006be20       0x20 /usr/local/xenon/usr/lib/libSDL.a(SDL_blit_N.o)
 .rodata.Blit_RGB888_RGB565
                0x000000008006be40       0x20 /usr/local/xenon/usr/lib/libSDL.a(SDL_blit_N.o)
 .rodata.Blit_RGB565_32
                0x000000008006be60       0x20 /usr/local/xenon/usr/lib/libSDL.a(SDL_blit_N.o)
 .rodata.RGB565_ARGB8888_LUT
                0x000000008006be80      0x800 /usr/local/xenon/usr/lib/libSDL.a(SDL_blit_N.o)
 .rodata.RGB565_ABGR8888_LUT
                0x000000008006c680      0x800 /usr/local/xenon/usr/lib/libSDL.a(SDL_blit_N.o)
 .rodata.RGB565_RGBA8888_LUT
                0x000000008006ce80      0x800 /usr/local/xenon/usr/lib/libSDL.a(SDL_blit_N.o)
 .rodata.RGB565_BGRA8888_LUT
                0x000000008006d680      0x800 /usr/local/xenon/usr/lib/libSDL.a(SDL_blit_N.o)
 .rodata.Blit_RGB888_index8_map
                0x000000008006de80       0x20 /usr/local/xenon/usr/lib/libSDL.a(SDL_blit_N.o)
 .rodata.BlitNto1
                0x000000008006dea0       0x40 /usr/local/xenon/usr/lib/libSDL.a(SDL_blit_N.o)
 .rodata.Blit4to4MaskAlpha
                0x000000008006dee0       0x40 /usr/local/xenon/usr/lib/libSDL.a(SDL_blit_N.o)
 .rodata.BlitNtoN
                0x000000008006df20       0x20 /usr/local/xenon/usr/lib/libSDL.a(SDL_blit_N.o)
 .rodata.BlitNto1Key
                0x000000008006df40       0x40 /usr/local/xenon/usr/lib/libSDL.a(SDL_blit_N.o)
 .rodata.Blit2to2Key
                0x000000008006df80       0x20 /usr/local/xenon/usr/lib/libSDL.a(SDL_blit_N.o)
 .rodata.BlitNtoNKey
                0x000000008006dfa0       0x20 /usr/local/xenon/usr/lib/libSDL.a(SDL_blit_N.o)
 .rodata.BlitNtoNKeyCopyAlpha
                0x000000008006dfc0       0x20 /usr/local/xenon/usr/lib/libSDL.a(SDL_blit_N.o)
 .rodata.normal_blit_1
                0x000000008006dfe0       0x2c /usr/local/xenon/usr/lib/libSDL.a(SDL_blit_N.o)
 .rodata.normal_blit_2
                0x000000008006e00c       0xdc /usr/local/xenon/usr/lib/libSDL.a(SDL_blit_N.o)
 .rodata.normal_blit_3
                0x000000008006e0e8       0x2c /usr/local/xenon/usr/lib/libSDL.a(SDL_blit_N.o)
 .rodata.normal_blit_4
                0x000000008006e114       0x84 /usr/local/xenon/usr/lib/libSDL.a(SDL_blit_N.o)
 .rodata.BlitNto1SurfaceAlphaKey
                0x000000008006e198       0x20 /usr/local/xenon/usr/lib/libSDL.a(SDL_blit_A.o)
 .rodata.str1.4
                0x000000008006e1b8       0x3f /usr/local/xenon/xenon/lib/32/libc.a(lib_a-assert.o)
                                         0x43 (size before relaxing)
 *fill*         0x000000008006e1f7        0x1 00
 .rodata        0x000000008006e1f8      0x101 /usr/local/xenon/xenon/lib/32/libc.a(lib_a-ctype_.o)
                0x000000008006e1f8                _ctype_
 *fill*         0x000000008006e2f9        0x3 00
 .rodata.str1.4
                0x000000008006e2fc        0x2 /usr/local/xenon/xenon/lib/32/libc.a(lib_a-impure.o)
 *fill*         0x000000008006e2fe        0x2 00
 .rodata.str1.4
                0x000000008006e300        0x2 /usr/local/xenon/xenon/lib/32/libc.a(lib_a-puts.o)
 *fill*         0x000000008006e302        0x2 00
 .rodata        0x000000008006e304      0x184 /usr/local/xenon/xenon/lib/32/libc.a(lib_a-svfprintf.o)
 .rodata.cst4   0x000000008006e488        0x4 /usr/local/xenon/xenon/lib/32/libc.a(lib_a-svfprintf.o)
 .rodata.str1.4
                0x000000008006e48c       0x42 /usr/local/xenon/xenon/lib/32/libc.a(lib_a-svfprintf.o)
 *fill*         0x000000008006e4ce        0x2 00
 .rodata        0x000000008006e4d0      0x184 /usr/local/xenon/xenon/lib/32/libc.a(lib_a-vfiprintf.o)
 .rodata.str1.4
                0x0000000000000000       0x2f /usr/local/xenon/xenon/lib/32/libc.a(lib_a-vfiprintf.o)
 .rodata        0x000000008006e654      0x184 /usr/local/xenon/xenon/lib/32/libc.a(lib_a-vfprintf.o)
 .rodata.cst4   0x0000000000000000        0x4 /usr/local/xenon/xenon/lib/32/libc.a(lib_a-vfprintf.o)
 .rodata.str1.4
                0x0000000000000000       0x42 /usr/local/xenon/xenon/lib/32/libc.a(lib_a-vfprintf.o)
 .rodata.cst4   0x000000008006e7d8       0x20 /usr/local/xenon/xenon/lib/32/libc.a(lib_a-dtoa.o)
                                         0x24 (size before relaxing)
 .rodata.cst8   0x000000008006e7f8       0x18 /usr/local/xenon/xenon/lib/32/libc.a(lib_a-dtoa.o)
 .rodata.str1.4
                0x000000008006e810       0x10 /usr/local/xenon/xenon/lib/32/libc.a(lib_a-dtoa.o)
                                         0x12 (size before relaxing)
 .rodata.str1.4
                0x000000008006e820       0x10 /usr/local/xenon/xenon/lib/32/libc.a(lib_a-locale.o)
                                         0x17 (size before relaxing)
 .rodata        0x000000008006e830      0x128 /usr/local/xenon/xenon/lib/32/libc.a(lib_a-mprec.o)
                0x000000008006e930                __mprec_tinytens
                0x000000008006e840                __mprec_tens
                0x000000008006e908                __mprec_bigtens
 .rodata.cst4   0x0000000000000000        0x8 /usr/local/xenon/xenon/lib/32/libc.a(lib_a-mprec.o)

.ctors          0x000000008006e958        0x0
                0x000000008006e958                __CTOR_LIST__ = .
 *(.ctors)
                0x000000008006e958                __CTOR_END__ = .

.dtors          0x000000008006e958        0x0
                0x000000008006e958                __DTOR_LIST__ = .
 *(.dtors)
                0x000000008006e958                __DTOR_END__ = .

.eh_frame_hdr   0x000000008006e958      0xb24
 *(.eh_frame_hdr)
 .eh_frame_hdr  0x000000008006e958      0xb24 /usr/local/xenon/lib/gcc/xenon/4.4.0/../../../../xenon/lib/../lib/crt1.o

.eh_frame       0x000000008006f47c     0x2d08
 *(.eh_frame)
 .eh_frame      0x000000008006f47c       0x38 /usr/local/xenon/lib/gcc/xenon/4.4.0/../../../../xenon/lib/../lib/crt1.o
 .eh_frame      0x000000008006f4b4        0x0 /usr/local/xenon/lib/gcc/xenon/4.4.0/32/crtbegin.o
 .eh_frame      0x000000008006f4b4       0x80 main.o
                                         0x94 (size before relaxing)
 .eh_frame      0x000000008006f534       0xa8 /usr/local/xenon/usr/lib/libxenon.a(console.o)
                                         0xf8 (size before relaxing)
 .eh_frame      0x000000008006f5dc      0x180 /usr/local/xenon/usr/lib/libxenon.a(newlib.o)
                                        0x250 (size before relaxing)
 .eh_frame      0x000000008006f75c       0x5c /usr/local/xenon/usr/lib/libxenon.a(lib_malloc.o)
                                         0xc0 (size before relaxing)
 .eh_frame      0x000000008006f7b8       0x5c /usr/local/xenon/usr/lib/libxenon.a(usbmain.o)
                                         0x70 (size before relaxing)
 .eh_frame      0x000000008006f814       0x20 /usr/local/xenon/usr/lib/libxenon.a(xenon_uart.o)
                                         0x5c (size before relaxing)
 .eh_frame      0x000000008006f834      0x1a0 /usr/local/xenon/usr/lib/libxenon.a(xenos.o)
                                        0x1b4 (size before relaxing)
 .eh_frame      0x000000008006f9d4       0x50 /usr/local/xenon/usr/lib/libxenon.a(io.o)
                                         0x64 (size before relaxing)
 .eh_frame      0x000000008006fa24       0x3c /usr/local/xenon/usr/lib/libxenon.a(time.o)
                                         0x50 (size before relaxing)
 .eh_frame      0x000000008006fa60      0x1d4 /usr/local/xenon/usr/lib/libxenon.a(ohci.o)
                                        0x1e8 (size before relaxing)
 .eh_frame      0x000000008006fc34      0x374 /usr/local/xenon/usr/lib/libxenon.a(usbd.o)
                                        0x3bc (size before relaxing)
 .eh_frame      0x000000008006ffa8       0x24 /usr/local/xenon/usr/lib/libxenon.a(usbdevs.o)
                                         0x38 (size before relaxing)
 .eh_frame      0x000000008006ffcc       0x7c /usr/local/xenon/usr/lib/libxenon.a(usbhid.o)
                                         0x90 (size before relaxing)
 .eh_frame      0x0000000080070048      0x144 /usr/local/xenon/usr/lib/libxenon.a(usbhub.o)
                                        0x190 (size before relaxing)
 .eh_frame      0x000000008007018c       0xe4 /usr/local/xenon/usr/lib/libxenon.a(usbmass.o)
                                        0x124 (size before relaxing)
 .eh_frame      0x0000000080070270       0x48 /usr/local/xenon/usr/lib/libxenon.a(xenon_gpio.o)
                                         0x7c (size before relaxing)
 .eh_frame      0x00000000800702b8       0xf0 /usr/local/xenon/usr/lib/libxenon.a(xenon_smc.o)
                                        0x1bc (size before relaxing)
 .eh_frame      0x00000000800703a8       0x34 /usr/local/xenon/usr/lib/libxenon.a(xenon_config.o)
                                         0x70 (size before relaxing)
 .eh_frame      0x00000000800703dc       0x5c /usr/local/xenon/usr/lib/libxenon.a(diskio.o)
                                         0xd0 (size before relaxing)
 .eh_frame      0x0000000080070438      0x114 /usr/local/xenon/usr/lib/libxenon.a(fat.o)
                                        0x128 (size before relaxing)
 .eh_frame      0x000000008007054c      0x430 /usr/local/xenon/usr/lib/libxenon.a(fat_rb.o)
                                        0x560 (size before relaxing)
 .eh_frame      0x000000008007097c      0x148 /usr/local/xenon/usr/lib/libxenon.a(file_rb.o)
                                        0x1d4 (size before relaxing)
 .eh_frame      0x0000000080070ac4       0x64 /usr/local/xenon/usr/lib/libxenon.a(dir_rb.o)
                                         0xd4 (size before relaxing)
 .eh_frame      0x0000000080070b28      0x234 /usr/local/xenon/usr/lib/libxenon.a(iso9660.o)
                                        0x248 (size before relaxing)
 .eh_frame      0x0000000080070d5c       0x28 /usr/local/xenon/usr/lib/libxenon.a(lib_queue.o)
                                         0xa0 (size before relaxing)
 .eh_frame      0x0000000080070d84       0x60 /usr/local/xenon/usr/lib/libxenon.a(usbctrl.o)
                                         0x74 (size before relaxing)
 .eh_frame      0x0000000080070de4       0x94 /usr/local/xenon/usr/lib/libxenon.a(usbdebug.o)
                                        0x104 (size before relaxing)
 .eh_frame      0x0000000080070e78       0x3c /usr/local/xenon/usr/lib/libxenon.a(unicode_rb.o)
                                         0xac (size before relaxing)
 .eh_frame      0x0000000080070eb4       0x70 /usr/local/xenon/usr/lib/libxenon.a(xenon_sfcx.o)
                                        0x1e8 (size before relaxing)
 .eh_frame      0x0000000080070f24       0x9c /usr/local/xenon/usr/lib/libxenon.a(disk_rb.o)
                                         0xf0 (size before relaxing)
 .eh_frame      0x0000000080070fc0       0x20 /usr/local/xenon/usr/lib/libxenon.a(input.o)
                                         0x50 (size before relaxing)
 .eh_frame      0x0000000080070fe0       0x38 /usr/local/xenon/xenon/lib/32/libc.a(lib_a-assert.o)
                                         0x4c (size before relaxing)
 .eh_frame      0x0000000080071018       0x30 /usr/local/xenon/xenon/lib/32/libc.a(lib_a-atoi.o)
                                         0x44 (size before relaxing)
 .eh_frame      0x0000000080071048       0x20 /usr/local/xenon/xenon/lib/32/libc.a(lib_a-errno.o)
                                         0x34 (size before relaxing)
 .eh_frame      0x0000000080071068       0x24 /usr/local/xenon/xenon/lib/32/libc.a(lib_a-exit.o)
                                         0x38 (size before relaxing)
 .eh_frame      0x000000008007108c       0x38 /usr/local/xenon/xenon/lib/32/libc.a(lib_a-fiprintf.o)
                                         0x4c (size before relaxing)
 .eh_frame      0x00000000800710c4       0x40 /usr/local/xenon/xenon/lib/32/libc.a(lib_a-malloc.o)
                                         0x54 (size before relaxing)
 .eh_frame      0x0000000080071104       0x34 /usr/local/xenon/xenon/lib/32/libc.a(lib_a-mallocr.o)
                                         0x48 (size before relaxing)
 .eh_frame      0x0000000080071138       0x1c /usr/local/xenon/xenon/lib/32/libc.a(lib_a-memchr.o)
                                         0x30 (size before relaxing)
 .eh_frame      0x0000000080071154       0x1c /usr/local/xenon/xenon/lib/32/libc.a(lib_a-memcmp.o)
                                         0x30 (size before relaxing)
 .eh_frame      0x0000000080071170       0x1c /usr/local/xenon/xenon/lib/32/libc.a(lib_a-memcpy.o)
                                         0x30 (size before relaxing)
 .eh_frame      0x000000008007118c       0x1c /usr/local/xenon/xenon/lib/32/libc.a(lib_a-memset.o)
                                         0x30 (size before relaxing)
 .eh_frame      0x00000000800711a8       0x28 /usr/local/xenon/xenon/lib/32/libc.a(lib_a-mlock.o)
                                         0x3c (size before relaxing)
 .eh_frame      0x00000000800711d0       0x38 /usr/local/xenon/xenon/lib/32/libc.a(lib_a-printf.o)
                                         0x4c (size before relaxing)
 .eh_frame      0x0000000080071208       0x38 /usr/local/xenon/xenon/lib/32/libc.a(lib_a-putchar.o)
                                         0x4c (size before relaxing)
 .eh_frame      0x0000000080071240       0x48 /usr/local/xenon/xenon/lib/32/libc.a(lib_a-putc.o)
                                         0x5c (size before relaxing)
 .eh_frame      0x0000000080071288       0x44 /usr/local/xenon/xenon/lib/32/libc.a(lib_a-puts.o)
                                         0x58 (size before relaxing)
 .eh_frame      0x00000000800712cc       0x24 /usr/local/xenon/xenon/lib/32/libc.a(lib_a-sbrkr.o)
                                         0x38 (size before relaxing)
 .eh_frame      0x00000000800712f0       0x50 /usr/local/xenon/xenon/lib/32/libc.a(lib_a-snprintf.o)
                                         0x64 (size before relaxing)
 .eh_frame      0x0000000080071340       0x40 /usr/local/xenon/xenon/lib/32/libc.a(lib_a-sprintf.o)
                                         0x54 (size before relaxing)
 .eh_frame      0x0000000080071380       0x1c /usr/local/xenon/xenon/lib/32/libc.a(lib_a-strcasecmp.o)
                                         0x30 (size before relaxing)
 .eh_frame      0x000000008007139c       0x20 /usr/local/xenon/xenon/lib/32/libc.a(lib_a-strcat.o)
                                         0x34 (size before relaxing)
 .eh_frame      0x00000000800713bc       0x1c /usr/local/xenon/xenon/lib/32/libc.a(lib_a-strchr.o)
                                         0x30 (size before relaxing)
 .eh_frame      0x00000000800713d8       0x1c /usr/local/xenon/xenon/lib/32/libc.a(lib_a-strcmp.o)
                                         0x30 (size before relaxing)
 .eh_frame      0x00000000800713f4       0x1c /usr/local/xenon/xenon/lib/32/libc.a(lib_a-strcpy.o)
                                         0x30 (size before relaxing)
 .eh_frame      0x0000000080071410       0x1c /usr/local/xenon/xenon/lib/32/libc.a(lib_a-strlcpy.o)
                                         0x30 (size before relaxing)
 .eh_frame      0x000000008007142c       0x1c /usr/local/xenon/xenon/lib/32/libc.a(lib_a-strlen.o)
                                         0x30 (size before relaxing)
 .eh_frame      0x0000000080071448       0x28 /usr/local/xenon/xenon/lib/32/libc.a(lib_a-strncasecmp.o)
                                         0x3c (size before relaxing)
 .eh_frame      0x0000000080071470       0x1c /usr/local/xenon/xenon/lib/32/libc.a(lib_a-strncmp.o)
                                         0x30 (size before relaxing)
 .eh_frame      0x000000008007148c       0x1c /usr/local/xenon/xenon/lib/32/libc.a(lib_a-strncpy.o)
                                         0x30 (size before relaxing)
 .eh_frame      0x00000000800714a8       0x20 /usr/local/xenon/xenon/lib/32/libc.a(lib_a-strrchr.o)
                                         0x34 (size before relaxing)
 .eh_frame      0x00000000800714c8       0x34 /usr/local/xenon/xenon/lib/32/libc.a(lib_a-strtok_r.o)
                                         0x48 (size before relaxing)
 .eh_frame      0x00000000800714fc       0x50 /usr/local/xenon/xenon/lib/32/libc.a(lib_a-strtol.o)
                                         0x64 (size before relaxing)
 .eh_frame      0x000000008007154c       0x84 /usr/local/xenon/xenon/lib/32/libc.a(lib_a-svfprintf.o)
                                         0x98 (size before relaxing)
 .eh_frame      0x00000000800715d0       0x88 /usr/local/xenon/xenon/lib/32/libc.a(lib_a-vfiprintf.o)
                                         0x9c (size before relaxing)
 .eh_frame      0x0000000080071658       0x8c /usr/local/xenon/xenon/lib/32/libc.a(lib_a-vfprintf.o)
                                         0xa0 (size before relaxing)
 .eh_frame      0x00000000800716e4       0x48 /usr/local/xenon/xenon/lib/32/libc.a(lib_a-wbuf.o)
                                         0x5c (size before relaxing)
 .eh_frame      0x000000008007172c       0x24 /usr/local/xenon/xenon/lib/32/libc.a(lib_a-wsetup.o)
                                         0x38 (size before relaxing)
 .eh_frame      0x0000000080071750       0x18 /usr/local/xenon/xenon/lib/32/libc.a(lib_a-abort.o)
                                         0x2c (size before relaxing)
 .eh_frame      0x0000000080071768       0x40 /usr/local/xenon/xenon/lib/32/libc.a(lib_a-__call_atexit.o)
                                         0x54 (size before relaxing)
 .eh_frame      0x00000000800717a8       0x80 /usr/local/xenon/xenon/lib/32/libc.a(lib_a-dtoa.o)
                                         0x94 (size before relaxing)
 .eh_frame      0x0000000080071828       0x48 /usr/local/xenon/xenon/lib/32/libc.a(lib_a-fflush.o)
                                         0x5c (size before relaxing)
 .eh_frame      0x0000000080071870      0x190 /usr/local/xenon/xenon/lib/32/libc.a(lib_a-findfp.o)
                                        0x1a4 (size before relaxing)
 .eh_frame      0x0000000080071a00       0x4c /usr/local/xenon/xenon/lib/32/libc.a(lib_a-freer.o)
                                         0x60 (size before relaxing)
 .eh_frame      0x0000000080071a4c       0x34 /usr/local/xenon/xenon/lib/32/libc.a(lib_a-fvwrite.o)
                                         0x48 (size before relaxing)
 .eh_frame      0x0000000080071a80       0x54 /usr/local/xenon/xenon/lib/32/libc.a(lib_a-fwalk.o)
                                         0x68 (size before relaxing)
 .eh_frame      0x0000000080071ad4       0xa8 /usr/local/xenon/xenon/lib/32/libc.a(lib_a-locale.o)
                                         0xbc (size before relaxing)
 .eh_frame      0x0000000080071b7c       0x28 /usr/local/xenon/xenon/lib/32/libc.a(lib_a-makebuf.o)
                                         0x3c (size before relaxing)
 .eh_frame      0x0000000080071ba4       0x1c /usr/local/xenon/xenon/lib/32/libc.a(lib_a-memmove.o)
                                         0x30 (size before relaxing)
 .eh_frame      0x0000000080071bc0      0x270 /usr/local/xenon/xenon/lib/32/libc.a(lib_a-mprec.o)
                                        0x284 (size before relaxing)
 .eh_frame      0x0000000080071e30       0x38 /usr/local/xenon/xenon/lib/32/libc.a(lib_a-reallocr.o)
                                         0x4c (size before relaxing)
 .eh_frame      0x0000000080071e68        0x0 /usr/local/xenon/xenon/lib/32/libc.a(lib_a-reent.o)
                                         0x84 (size before relaxing)
 .eh_frame      0x0000000080071e68      0x104 /usr/local/xenon/xenon/lib/32/libc.a(lib_a-signal.o)
                                        0x118 (size before relaxing)
 .eh_frame      0x0000000080071f6c       0x3c /usr/local/xenon/xenon/lib/32/libc.a(lib_a-signalr.o)
                                         0x50 (size before relaxing)
 .eh_frame      0x0000000080071fa8       0x14 /usr/local/xenon/xenon/lib/32/libc.a(lib_a-s_isinfd.o)
                                         0x28 (size before relaxing)
 .eh_frame      0x0000000080071fbc       0x14 /usr/local/xenon/xenon/lib/32/libc.a(lib_a-s_isnand.o)
                                         0x28 (size before relaxing)
 .eh_frame      0x0000000080071fd0       0x74 /usr/local/xenon/xenon/lib/32/libc.a(lib_a-stdio.o)
                                         0x88 (size before relaxing)
 .eh_frame      0x0000000080072044       0x24 /usr/local/xenon/xenon/lib/32/libc.a(lib_a-writer.o)
                                         0x38 (size before relaxing)
 .eh_frame      0x0000000080072068       0x1c /usr/local/xenon/xenon/lib/32/libc.a(lib_a-callocr.o)
                                         0x30 (size before relaxing)
 .eh_frame      0x0000000080072084       0x24 /usr/local/xenon/xenon/lib/32/libc.a(lib_a-closer.o)
                                         0x38 (size before relaxing)
 .eh_frame      0x00000000800720a8       0x48 /usr/local/xenon/xenon/lib/32/libc.a(lib_a-fclose.o)
                                         0x5c (size before relaxing)
 .eh_frame      0x00000000800720f0       0x24 /usr/local/xenon/xenon/lib/32/libc.a(lib_a-fstatr.o)
                                         0x38 (size before relaxing)
 .eh_frame      0x0000000080072114       0x24 /usr/local/xenon/xenon/lib/32/libc.a(lib_a-isattyr.o)
                                         0x38 (size before relaxing)
 .eh_frame      0x0000000080072138       0x24 /usr/local/xenon/xenon/lib/32/libc.a(lib_a-lseekr.o)
                                         0x38 (size before relaxing)
 .eh_frame      0x000000008007215c       0x24 /usr/local/xenon/xenon/lib/32/libc.a(lib_a-readr.o)
                                         0x38 (size before relaxing)
 .eh_frame      0x0000000080072180        0x4 /usr/local/xenon/lib/gcc/xenon/4.4.0/32/crtend.o

.rela.dyn       0x0000000080072184        0x0
 .rela.text.call_ctors
                0x0000000000000000        0x0 /usr/local/xenon/lib/gcc/xenon/4.4.0/../../../../xenon/lib/../lib/crt1.o
 .rela.got2     0x0000000000000000        0x0 /usr/local/xenon/lib/gcc/xenon/4.4.0/../../../../xenon/lib/../lib/crt1.o
 .rela.text     0x0000000000000000        0x0 /usr/local/xenon/lib/gcc/xenon/4.4.0/../../../../xenon/lib/../lib/crt1.o
 .rela.text.console_close
                0x0000000000000000        0x0 /usr/local/xenon/lib/gcc/xenon/4.4.0/../../../../xenon/lib/../lib/crt1.o
 .rela.text.console_init
                0x0000000000000000        0x0 /usr/local/xenon/lib/gcc/xenon/4.4.0/../../../../xenon/lib/../lib/crt1.o
 .rela.text.sbrk
                0x0000000000000000        0x0 /usr/local/xenon/lib/gcc/xenon/4.4.0/../../../../xenon/lib/../lib/crt1.o
 .rela.text.kmem_init
                0x0000000000000000        0x0 /usr/local/xenon/lib/gcc/xenon/4.4.0/../../../../xenon/lib/../lib/crt1.o
 .rela.text.usb_do_poll
                0x0000000000000000        0x0 /usr/local/xenon/lib/gcc/xenon/4.4.0/../../../../xenon/lib/../lib/crt1.o
 .rela.text.usb_init_one_ohci
                0x0000000000000000        0x0 /usr/local/xenon/lib/gcc/xenon/4.4.0/../../../../xenon/lib/../lib/crt1.o
 .rela.text._ohci_dma_alloc
                0x0000000000000000        0x0 /usr/local/xenon/lib/gcc/xenon/4.4.0/../../../../xenon/lib/../lib/crt1.o
 .rela.text.ohci_create
                0x0000000000000000        0x0 /usr/local/xenon/lib/gcc/xenon/4.4.0/../../../../xenon/lib/../lib/crt1.o
 .rela.text.usb_create_pipe
                0x0000000000000000        0x0 /usr/local/xenon/lib/gcc/xenon/4.4.0/../../../../xenon/lib/../lib/crt1.o
 .rela.text.usb_free_request
                0x0000000000000000        0x0 /usr/local/xenon/lib/gcc/xenon/4.4.0/../../../../xenon/lib/../lib/crt1.o
 .rela.text.usb_destroy_all_pipes
                0x0000000000000000        0x0 /usr/local/xenon/lib/gcc/xenon/4.4.0/../../../../xenon/lib/../lib/crt1.o
 .rela.text.usb_destroy_device
                0x0000000000000000        0x0 /usr/local/xenon/lib/gcc/xenon/4.4.0/../../../../xenon/lib/../lib/crt1.o
 .rela.text.usb_destroy_pipe
                0x0000000000000000        0x0 /usr/local/xenon/lib/gcc/xenon/4.4.0/../../../../xenon/lib/../lib/crt1.o
 .rela.text.usb_make_request
                0x0000000000000000        0x0 /usr/local/xenon/lib/gcc/xenon/4.4.0/../../../../xenon/lib/../lib/crt1.o
 .rela.text.usb_clear_stall
                0x0000000000000000        0x0 /usr/local/xenon/lib/gcc/xenon/4.4.0/../../../../xenon/lib/../lib/crt1.o
 .rela.text.usb_std_request
                0x0000000000000000        0x0 /usr/local/xenon/lib/gcc/xenon/4.4.0/../../../../xenon/lib/../lib/crt1.o
 .rela.text.usb_get_string
                0x0000000000000000        0x0 /usr/local/xenon/lib/gcc/xenon/4.4.0/../../../../xenon/lib/../lib/crt1.o
 .rela.text.usb_get_config_descriptor
                0x0000000000000000        0x0 /usr/local/xenon/lib/gcc/xenon/4.4.0/../../../../xenon/lib/../lib/crt1.o
 .rela.text.usb_get_device_descriptor
                0x0000000000000000        0x0 /usr/local/xenon/lib/gcc/xenon/4.4.0/../../../../xenon/lib/../lib/crt1.o
 .rela.text.usb_create_device
                0x0000000000000000        0x0 /usr/local/xenon/lib/gcc/xenon/4.4.0/../../../../xenon/lib/../lib/crt1.o
 .rela.text.usb_initroot
                0x0000000000000000        0x0 /usr/local/xenon/lib/gcc/xenon/4.4.0/../../../../xenon/lib/../lib/crt1.o
 .rela.data.usb_drivers
                0x0000000000000000        0x0 /usr/local/xenon/lib/gcc/xenon/4.4.0/../../../../xenon/lib/../lib/crt1.o
 .rela.text.usbhid_attach
                0x0000000000000000        0x0 /usr/local/xenon/lib/gcc/xenon/4.4.0/../../../../xenon/lib/../lib/crt1.o
 .rela.text.usbhub_detach
                0x0000000000000000        0x0 /usr/local/xenon/lib/gcc/xenon/4.4.0/../../../../xenon/lib/../lib/crt1.o
 .rela.text.usbhub_scan1
                0x0000000000000000        0x0 /usr/local/xenon/lib/gcc/xenon/4.4.0/../../../../xenon/lib/../lib/crt1.o
 .rela.text.usbhub_attach
                0x0000000000000000        0x0 /usr/local/xenon/lib/gcc/xenon/4.4.0/../../../../xenon/lib/../lib/crt1.o
 .rela.text.usbmass_detach
                0x0000000000000000        0x0 /usr/local/xenon/lib/gcc/xenon/4.4.0/../../../../xenon/lib/../lib/crt1.o
 .rela.text.usbmass_attach
                0x0000000000000000        0x0 /usr/local/xenon/lib/gcc/xenon/4.4.0/../../../../xenon/lib/../lib/crt1.o
 .rela.text.usbmass_request_sense
                0x0000000000000000        0x0 /usr/local/xenon/lib/gcc/xenon/4.4.0/../../../../xenon/lib/../lib/crt1.o
 .rela.text.usbmass_read_capacity
                0x0000000000000000        0x0 /usr/local/xenon/lib/gcc/xenon/4.4.0/../../../../xenon/lib/../lib/crt1.o
 .rela.text.usbmass_read_sector
                0x0000000000000000        0x0 /usr/local/xenon/lib/gcc/xenon/4.4.0/../../../../xenon/lib/../lib/crt1.o
 .rela.text.xenon_config_init
                0x0000000000000000        0x0 /usr/local/xenon/lib/gcc/xenon/4.4.0/../../../../xenon/lib/../lib/crt1.o
 .rela.text.bdev_enum
                0x0000000000000000        0x0 /usr/local/xenon/lib/gcc/xenon/4.4.0/../../../../xenon/lib/../lib/crt1.o
 .rela.text.bdev_open
                0x0000000000000000        0x0 /usr/local/xenon/lib/gcc/xenon/4.4.0/../../../../xenon/lib/../lib/crt1.o
 .rela.text.determine_filesystem
                0x0000000000000000        0x0 /usr/local/xenon/lib/gcc/xenon/4.4.0/../../../../xenon/lib/../lib/crt1.o
 .rela.text.register_bdev
                0x0000000000000000        0x0 /usr/local/xenon/lib/gcc/xenon/4.4.0/../../../../xenon/lib/../lib/crt1.o
 .rela.text.fat_init
                0x0000000000000000        0x0 /usr/local/xenon/lib/gcc/xenon/4.4.0/../../../../xenon/lib/../lib/crt1.o
 .rela.text.fat_lock
                0x0000000000000000        0x0 /usr/local/xenon/lib/gcc/xenon/4.4.0/../../../../xenon/lib/../lib/crt1.o
 .rela.text.fat_unlock
                0x0000000000000000        0x0 /usr/local/xenon/lib/gcc/xenon/4.4.0/../../../../xenon/lib/../lib/crt1.o
 .rela.text.cache_fat_sector
                0x0000000000000000        0x0 /usr/local/xenon/lib/gcc/xenon/4.4.0/../../../../xenon/lib/../lib/crt1.o
 .rela.text.flush_fat
                0x0000000000000000        0x0 /usr/local/xenon/lib/gcc/xenon/4.4.0/../../../../xenon/lib/../lib/crt1.o
 .rela.text.fat_unmount
                0x0000000000000000        0x0 /usr/local/xenon/lib/gcc/xenon/4.4.0/../../../../xenon/lib/../lib/crt1.o
 .rela.text.fat_getnext
                0x0000000000000000        0x0 /usr/local/xenon/lib/gcc/xenon/4.4.0/../../../../xenon/lib/../lib/crt1.o
 .rela.text.char2dos
                0x0000000000000000        0x0 /usr/local/xenon/lib/gcc/xenon/4.4.0/../../../../xenon/lib/../lib/crt1.o
 .rela.text._iso9660_readdir
                0x0000000000000000        0x0 /usr/local/xenon/lib/gcc/xenon/4.4.0/../../../../xenon/lib/../lib/crt1.o
 .rela.text.find_object
                0x0000000000000000        0x0 /usr/local/xenon/lib/gcc/xenon/4.4.0/../../../../xenon/lib/../lib/crt1.o
 .rela.text.usbctrl_attach
                0x0000000000000000        0x0 /usr/local/xenon/lib/gcc/xenon/4.4.0/../../../../xenon/lib/../lib/crt1.o
 .rela.text.storage_write_sectors
                0x0000000000000000        0x0 /usr/local/xenon/lib/gcc/xenon/4.4.0/../../../../xenon/lib/../lib/crt1.o
 .rela.text.storage_read_sectors
                0x0000000000000000        0x0 /usr/local/xenon/lib/gcc/xenon/4.4.0/../../../../xenon/lib/../lib/crt1.o
 .rela.data.bootstrap
                0x0000000000000000        0x0 /usr/local/xenon/lib/gcc/xenon/4.4.0/../../../../xenon/lib/../lib/crt1.o
 .rela.text.SDL_GobbleEvents
                0x0000000000000000        0x0 /usr/local/xenon/lib/gcc/xenon/4.4.0/../../../../xenon/lib/../lib/crt1.o
 .rela.text.SDL_StartEventLoop
                0x0000000000000000        0x0 /usr/local/xenon/lib/gcc/xenon/4.4.0/../../../../xenon/lib/../lib/crt1.o
 .rela.text.SDL_PumpEvents
                0x0000000000000000        0x0 /usr/local/xenon/lib/gcc/xenon/4.4.0/../../../../xenon/lib/../lib/crt1.o
 .rela.text.SDL_EventState
                0x0000000000000000        0x0 /usr/local/xenon/lib/gcc/xenon/4.4.0/../../../../xenon/lib/../lib/crt1.o
 .rela.text.SDL_PrivateSysWMEvent
                0x0000000000000000        0x0 /usr/local/xenon/lib/gcc/xenon/4.4.0/../../../../xenon/lib/../lib/crt1.o
 .rela.text.SDL_KeyboardInit
                0x0000000000000000        0x0 /usr/local/xenon/lib/gcc/xenon/4.4.0/../../../../xenon/lib/../lib/crt1.o
 .rela.text.SDL_ResetKeyboard
                0x0000000000000000        0x0 /usr/local/xenon/lib/gcc/xenon/4.4.0/../../../../xenon/lib/../lib/crt1.o
 .rela.text.SDL_PrivateKeyboard
                0x0000000000000000        0x0 /usr/local/xenon/lib/gcc/xenon/4.4.0/../../../../xenon/lib/../lib/crt1.o
 .rela.text.SDL_CheckKeyRepeat
                0x0000000000000000        0x0 /usr/local/xenon/lib/gcc/xenon/4.4.0/../../../../xenon/lib/../lib/crt1.o
 .rela.text.SDL_EnableKeyRepeat
                0x0000000000000000        0x0 /usr/local/xenon/lib/gcc/xenon/4.4.0/../../../../xenon/lib/../lib/crt1.o
 .rela.text.SDL_GetKeyRepeat
                0x0000000000000000        0x0 /usr/local/xenon/lib/gcc/xenon/4.4.0/../../../../xenon/lib/../lib/crt1.o
 .rela.text.ClipOffset
                0x0000000000000000        0x0 /usr/local/xenon/lib/gcc/xenon/4.4.0/../../../../xenon/lib/../lib/crt1.o
 .rela.text.SDL_PrivateMouseMotion
                0x0000000000000000        0x0 /usr/local/xenon/lib/gcc/xenon/4.4.0/../../../../xenon/lib/../lib/crt1.o
 .rela.text.SDL_PrivateMouseButton
                0x0000000000000000        0x0 /usr/local/xenon/lib/gcc/xenon/4.4.0/../../../../xenon/lib/../lib/crt1.o
 .rela.text.SDL_PrivateQuit
                0x0000000000000000        0x0 /usr/local/xenon/lib/gcc/xenon/4.4.0/../../../../xenon/lib/../lib/crt1.o
 .rela.text.SDL_SetTimer
                0x0000000000000000        0x0 /usr/local/xenon/lib/gcc/xenon/4.4.0/../../../../xenon/lib/../lib/crt1.o
 .rela.text.SDL_CreateCursor
                0x0000000000000000        0x0 /usr/local/xenon/lib/gcc/xenon/4.4.0/../../../../xenon/lib/../lib/crt1.o
 .rela.text.SDL_SetCursor
                0x0000000000000000        0x0 /usr/local/xenon/lib/gcc/xenon/4.4.0/../../../../xenon/lib/../lib/crt1.o
 .rela.text.SDL_FreeCursor
                0x0000000000000000        0x0 /usr/local/xenon/lib/gcc/xenon/4.4.0/../../../../xenon/lib/../lib/crt1.o
 .rela.text.SDL_ShowCursor
                0x0000000000000000        0x0 /usr/local/xenon/lib/gcc/xenon/4.4.0/../../../../xenon/lib/../lib/crt1.o
 .rela.text.SDL_WarpMouse
                0x0000000000000000        0x0 /usr/local/xenon/lib/gcc/xenon/4.4.0/../../../../xenon/lib/../lib/crt1.o
 .rela.text.SDL_MoveCursor
                0x0000000000000000        0x0 /usr/local/xenon/lib/gcc/xenon/4.4.0/../../../../xenon/lib/../lib/crt1.o
 .rela.text.SDL_MouseRect
                0x0000000000000000        0x0 /usr/local/xenon/lib/gcc/xenon/4.4.0/../../../../xenon/lib/../lib/crt1.o
 .rela.text.SDL_ConvertCursorSave
                0x0000000000000000        0x0 /usr/local/xenon/lib/gcc/xenon/4.4.0/../../../../xenon/lib/../lib/crt1.o
 .rela.text.SDL_DrawCursorNoLock
                0x0000000000000000        0x0 /usr/local/xenon/lib/gcc/xenon/4.4.0/../../../../xenon/lib/../lib/crt1.o
 .rela.text.SDL_DrawCursor
                0x0000000000000000        0x0 /usr/local/xenon/lib/gcc/xenon/4.4.0/../../../../xenon/lib/../lib/crt1.o
 .rela.text.SDL_EraseCursorNoLock
                0x0000000000000000        0x0 /usr/local/xenon/lib/gcc/xenon/4.4.0/../../../../xenon/lib/../lib/crt1.o
 .rela.text.SDL_EraseCursor
                0x0000000000000000        0x0 /usr/local/xenon/lib/gcc/xenon/4.4.0/../../../../xenon/lib/../lib/crt1.o
 .rela.text.SDL_CreateRGBSurface
                0x0000000000000000        0x0 /usr/local/xenon/lib/gcc/xenon/4.4.0/../../../../xenon/lib/../lib/crt1.o
 .rela.text.SDL_SetColorKey
                0x0000000000000000        0x0 /usr/local/xenon/lib/gcc/xenon/4.4.0/../../../../xenon/lib/../lib/crt1.o
 .rela.text.SDL_SetAlpha
                0x0000000000000000        0x0 /usr/local/xenon/lib/gcc/xenon/4.4.0/../../../../xenon/lib/../lib/crt1.o
 .rela.text.SDL_LowerBlit
                0x0000000000000000        0x0 /usr/local/xenon/lib/gcc/xenon/4.4.0/../../../../xenon/lib/../lib/crt1.o
 .rela.text.SDL_FillRect
                0x0000000000000000        0x0 /usr/local/xenon/lib/gcc/xenon/4.4.0/../../../../xenon/lib/../lib/crt1.o
 .rela.text.SDL_LockSurface
                0x0000000000000000        0x0 /usr/local/xenon/lib/gcc/xenon/4.4.0/../../../../xenon/lib/../lib/crt1.o
 .rela.text.SDL_UnlockSurface
                0x0000000000000000        0x0 /usr/local/xenon/lib/gcc/xenon/4.4.0/../../../../xenon/lib/../lib/crt1.o
 .rela.text.SDL_FreeSurface
                0x0000000000000000        0x0 /usr/local/xenon/lib/gcc/xenon/4.4.0/../../../../xenon/lib/../lib/crt1.o
 .rela.text.XENON_CreateDevice
                0x0000000000000000        0x0 /usr/local/xenon/lib/gcc/xenon/4.4.0/../../../../xenon/lib/../lib/crt1.o
 .rela.text.XENON_VideoInit
                0x0000000000000000        0x0 /usr/local/xenon/lib/gcc/xenon/4.4.0/../../../../xenon/lib/../lib/crt1.o
 .rela.text.XENON_SetVideoMode
                0x0000000000000000        0x0 /usr/local/xenon/lib/gcc/xenon/4.4.0/../../../../xenon/lib/../lib/crt1.o
 .rela.text.XENON_FlipHWSurface
                0x0000000000000000        0x0 /usr/local/xenon/lib/gcc/xenon/4.4.0/../../../../xenon/lib/../lib/crt1.o
 .rela.text.XENON_LockHWSurface
                0x0000000000000000        0x0 /usr/local/xenon/lib/gcc/xenon/4.4.0/../../../../xenon/lib/../lib/crt1.o
 .rela.text.XENON_UnlockHWSurface
                0x0000000000000000        0x0 /usr/local/xenon/lib/gcc/xenon/4.4.0/../../../../xenon/lib/../lib/crt1.o
 .rela.text.XENON_UpdateRects
                0x0000000000000000        0x0 /usr/local/xenon/lib/gcc/xenon/4.4.0/../../../../xenon/lib/../lib/crt1.o
 .rela.text.SDL_PrivateAppActive
                0x0000000000000000        0x0 /usr/local/xenon/lib/gcc/xenon/4.4.0/../../../../xenon/lib/../lib/crt1.o
 .rela.text.SDL_PrivateResize
                0x0000000000000000        0x0 /usr/local/xenon/lib/gcc/xenon/4.4.0/../../../../xenon/lib/../lib/crt1.o

.gcc_except_table
 *(.gcc_except_table .gcc_except_table.*)
                0x0000000080072184                bss_start = .

.bss            0x0000000080072188   0x215924
 *(.bss*)
 .bss.console_size
                0x0000000080072188        0x4 /usr/local/xenon/usr/lib/libxenon.a(console.o)
 .bss.offset_x  0x000000008007218c        0x4 /usr/local/xenon/usr/lib/libxenon.a(console.o)
 .bss.console_width
                0x0000000080072190        0x4 /usr/local/xenon/usr/lib/libxenon.a(console.o)
 .bss.offset_y  0x0000000080072194        0x4 /usr/local/xenon/usr/lib/libxenon.a(console.o)
 .bss.console_fb
                0x0000000080072198        0x4 /usr/local/xenon/usr/lib/libxenon.a(console.o)
 .bss.console_height
                0x000000008007219c        0x4 /usr/local/xenon/usr/lib/libxenon.a(console.o)
 .bss.max_x     0x00000000800721a0        0x4 /usr/local/xenon/usr/lib/libxenon.a(console.o)
 .bss.max_y     0x00000000800721a4        0x4 /usr/local/xenon/usr/lib/libxenon.a(console.o)
 .bss.cursor_x  0x00000000800721a8        0x4 /usr/local/xenon/usr/lib/libxenon.a(console.o)
 .bss.cursor_y  0x00000000800721ac        0x4 /usr/local/xenon/usr/lib/libxenon.a(console.o)
 .bss.kmem_init_done
                0x00000000800721b0        0x4 /usr/local/xenon/usr/lib/libxenon.a(lib_malloc.o)
 *fill*         0x00000000800721b4        0x4 00
 .bss.heap      0x00000000800721b8   0x100000 /usr/local/xenon/usr/lib/libxenon.a(lib_malloc.o)
 .bss.initdone.3286
                0x00000000801721b8        0x4 /usr/local/xenon/usr/lib/libxenon.a(usbmain.o)
 .bss.in_poll.3252
                0x00000000801721bc        0x4 /usr/local/xenon/usr/lib/libxenon.a(usbmain.o)
 .bss.xenos_current_mode
                0x00000000801721c0        0x4 /usr/local/xenon/usr/lib/libxenon.a(xenos.o)
 .bss.num.3555  0x00000000801721c4        0x4 /usr/local/xenon/usr/lib/libxenon.a(usbmass.o)
 .bss.sfcx_page
                0x00000000801721c8      0x210 /usr/local/xenon/usr/lib/libxenon.a(xenon_config.o)
 .bss.secured_settings
                0x00000000801723d8      0x208 /usr/local/xenon/usr/lib/libxenon.a(xenon_config.o)
                0x00000000801723d8                secured_settings
 .bss.xenon_config_initialized
                0x00000000801725e0        0x4 /usr/local/xenon/usr/lib/libxenon.a(xenon_config.o)
 .bss.fat_cache_sectors
                0x00000000801725e4     0x4000 /usr/local/xenon/usr/lib/libxenon.a(fat_rb.o)
 .bss.fat_bpbs  0x00000000801765e4      0x640 /usr/local/xenon/usr/lib/libxenon.a(fat_rb.o)
 .bss.initialized
                0x0000000080176c24        0x1 /usr/local/xenon/usr/lib/libxenon.a(fat_rb.o)
 *fill*         0x0000000080176c25        0x3 00
 .bss.fat_cache
                0x0000000080176c28      0x180 /usr/local/xenon/usr/lib/libxenon.a(fat_rb.o)
 .bss.openfiles
                0x0000000080176da8     0x8f00 /usr/local/xenon/usr/lib/libxenon.a(file_rb.o)
 .bss.opendirs  0x000000008017fca8     0x2ae0 /usr/local/xenon/usr/lib/libxenon.a(dir_rb.o)
 .bss.fh_mutex  0x0000000080182788        0x4 /usr/local/xenon/usr/lib/libxenon.a(iso9660.o)
 .bss.joliet    0x000000008018278c        0x4 /usr/local/xenon/usr/lib/libxenon.a(iso9660.o)
 .bss.icache    0x0000000080182790       0x40 /usr/local/xenon/usr/lib/libxenon.a(iso9660.o)
 .bss.percd_done
                0x00000000801827d0        0x4 /usr/local/xenon/usr/lib/libxenon.a(iso9660.o)
 .bss.dcache    0x00000000801827d4       0x40 /usr/local/xenon/usr/lib/libxenon.a(iso9660.o)
 .bss.iso9660_dev
                0x0000000080182814        0x4 /usr/local/xenon/usr/lib/libxenon.a(iso9660.o)
 .bss.root_size
                0x0000000080182818        0x4 /usr/local/xenon/usr/lib/libxenon.a(iso9660.o)
 .bss.root_dirent
                0x000000008018281c       0x22 /usr/local/xenon/usr/lib/libxenon.a(iso9660.o)
 *fill*         0x000000008018283e        0x2 00
 .bss.cache_mutex
                0x0000000080182840        0x4 /usr/local/xenon/usr/lib/libxenon.a(iso9660.o)
 .bss.fh        0x0000000080182844      0x940 /usr/local/xenon/usr/lib/libxenon.a(iso9660.o)
 .bss.root_extent
                0x0000000080183184        0x4 /usr/local/xenon/usr/lib/libxenon.a(iso9660.o)
 .bss.controller_mask
                0x0000000080183188        0x4 /usr/local/xenon/usr/lib/libxenon.a(usbctrl.o)
 *fill*         0x000000008018318c        0x4 00
 .bss.buf.3306  0x0000000080183190      0x100 /usr/local/xenon/usr/lib/libxenon.a(usbdebug.o)
 .bss.sfc       0x0000000080183290       0x44 /usr/local/xenon/usr/lib/libxenon.a(xenon_sfcx.o)
                0x0000000080183290                sfc
 .bss.part      0x00000000801832d4      0x300 /usr/local/xenon/usr/lib/libxenon.a(disk_rb.o)
 *fill*         0x00000000801835d4        0x4 00
 .bss.block_cache_lba
                0x00000000801835d8       0x80 /usr/local/xenon/usr/lib/libxenon.a(disk_rb.o)
 .bss.block_cache
                0x0000000080183658   0x100000 /usr/local/xenon/usr/lib/libxenon.a(disk_rb.o)
 .bss.vol_drive
                0x0000000080283658       0x40 /usr/local/xenon/usr/lib/libxenon.a(disk_rb.o)
 .bss.valid     0x0000000080283698       0x10 /usr/local/xenon/usr/lib/libxenon.a(input.o)
 .bss.ctrl      0x00000000802836a8      0x120 /usr/local/xenon/usr/lib/libxenon.a(input.o)
 .bss.SDL_initialized
                0x00000000802837c8        0x4 /usr/local/xenon/usr/lib/libSDL.a(SDL.o)
 *fill*         0x00000000802837cc        0x4 00
 .bss.SDL_global_error
                0x00000000802837d0      0x308 /usr/local/xenon/usr/lib/libSDL.a(SDL_error.o)
 .bss.SDL_eventstate
                0x0000000080283ad8        0x4 /usr/local/xenon/usr/lib/libSDL.a(SDL_events.o)
 .bss.SDL_EventQ
                0x0000000080283adc      0xe14 /usr/local/xenon/usr/lib/libSDL.a(SDL_events.o)
 .bss.SDL_EventLock
                0x00000000802848f0        0x8 /usr/local/xenon/usr/lib/libSDL.a(SDL_events.o)
 .bss.SDL_EventThread
                0x00000000802848f8        0x4 /usr/local/xenon/usr/lib/libSDL.a(SDL_events.o)
 .bss.event_thread
                0x00000000802848fc        0x4 /usr/local/xenon/usr/lib/libSDL.a(SDL_events.o)
 .bss.SDL_KeyState
                0x0000000080284900      0x143 /usr/local/xenon/usr/lib/libSDL.a(SDL_keyboard.o)
 *fill*         0x0000000080284a43        0x1 00
 .bss.SDL_ModState
                0x0000000080284a44        0x4 /usr/local/xenon/usr/lib/libSDL.a(SDL_keyboard.o)
 .bss.keynames  0x0000000080284a48      0x50c /usr/local/xenon/usr/lib/libSDL.a(SDL_keyboard.o)
 .bss.SDL_NoLockKeys
                0x0000000080284f54        0x1 /usr/local/xenon/usr/lib/libSDL.a(SDL_keyboard.o)
 *fill*         0x0000000080284f55        0x1 00
 .bss.SDL_MouseX
                0x0000000080284f56        0x2 /usr/local/xenon/usr/lib/libSDL.a(SDL_mouse.o)
 .bss.SDL_MouseY
                0x0000000080284f58        0x2 /usr/local/xenon/usr/lib/libSDL.a(SDL_mouse.o)
 .bss.SDL_DeltaX
                0x0000000080284f5a        0x2 /usr/local/xenon/usr/lib/libSDL.a(SDL_mouse.o)
 .bss.SDL_DeltaY
                0x0000000080284f5c        0x2 /usr/local/xenon/usr/lib/libSDL.a(SDL_mouse.o)
 .bss.SDL_MouseMaxX
                0x0000000080284f5e        0x2 /usr/local/xenon/usr/lib/libSDL.a(SDL_mouse.o)
 .bss.SDL_MouseMaxY
                0x0000000080284f60        0x2 /usr/local/xenon/usr/lib/libSDL.a(SDL_mouse.o)
 .bss.SDL_ButtonState
                0x0000000080284f62        0x1 /usr/local/xenon/usr/lib/libSDL.a(SDL_mouse.o)
 *fill*         0x0000000080284f63        0x1 00
 .bss.SDL_env   0x0000000080284f64        0x4 /usr/local/xenon/usr/lib/libSDL.a(SDL_getenv.o)
 .bss.mparams   0x0000000080284f68       0x18 /usr/local/xenon/usr/lib/libSDL.a(SDL_malloc.o)
 .bss._gm_      0x0000000080284f80      0x1c8 /usr/local/xenon/usr/lib/libSDL.a(SDL_malloc.o)
 .bss.SDL_maxthreads
                0x0000000080285148        0x4 /usr/local/xenon/usr/lib/libSDL.a(SDL_thread.o)
 .bss.SDL_numthreads
                0x000000008028514c        0x4 /usr/local/xenon/usr/lib/libSDL.a(SDL_thread.o)
 .bss.SDL_Threads
                0x0000000080285150        0x4 /usr/local/xenon/usr/lib/libSDL.a(SDL_thread.o)
 .bss.thread_lock
                0x0000000080285154        0x4 /usr/local/xenon/usr/lib/libSDL.a(SDL_thread.o)
 .bss.SDL_timer_threaded
                0x0000000080285158        0x4 /usr/local/xenon/usr/lib/libSDL.a(SDL_timer.o)
 .bss.SDL_timers
                0x000000008028515c        0x4 /usr/local/xenon/usr/lib/libSDL.a(SDL_timer.o)
 .bss.SDL_timer_mutex
                0x0000000080285160        0x4 /usr/local/xenon/usr/lib/libSDL.a(SDL_timer.o)
 .bss.list_changed
                0x0000000080285164        0x4 /usr/local/xenon/usr/lib/libSDL.a(SDL_timer.o)
 .bss.SDL_defcursor
                0x0000000080285168        0x4 /usr/local/xenon/usr/lib/libSDL.a(SDL_cursor.o)
 *fill*         0x000000008028516c        0x4 00
 .bss.pixels8   0x0000000080285170        0x2 /usr/local/xenon/usr/lib/libSDL.a(SDL_cursor.o)
 *fill*         0x0000000080285172        0x2 00
 .bss.format_version.2522
                0x0000000080285174        0x4 /usr/local/xenon/usr/lib/libSDL.a(SDL_pixels.o)
 .bss.SDL_appstate
                0x0000000080285178        0x1 /usr/local/xenon/usr/lib/libSDL.a(SDL_active.o)
 *fill*         0x0000000080285179        0x3 00
 .bss.last_resize
                0x000000008028517c        0x8 /usr/local/xenon/usr/lib/libSDL.a(SDL_resize.o)
 .bss           0x0000000080285184       0x28 /usr/local/xenon/xenon/lib/32/libc.a(lib_a-mallocr.o)
                0x0000000080285184                __malloc_current_mallinfo
 COMMON         0x00000000802851ac        0xc /usr/local/xenon/usr/lib/libxenon.a(lib_malloc.o)
                0x00000000802851ac                kmempool
 COMMON         0x00000000802851b8       0x10 /usr/local/xenon/usr/lib/libxenon.a(usbmain.o)
                0x00000000802851b8                usb_buses
 COMMON         0x00000000802851c8      0x380 /usr/local/xenon/usr/lib/libxenon.a(diskio.o)
                0x00000000802851c8                devices
 COMMON         0x0000000080285548       0x20 /usr/local/xenon/usr/lib/libSDL.a(SDL_events.o)
                0x0000000080285548                SDL_ProcessEvents
 COMMON         0x0000000080285568       0x24 /usr/local/xenon/usr/lib/libSDL.a(SDL_keyboard.o)
                0x0000000080285568                SDL_KeyRepeat
 COMMON         0x000000008028558c     0x2520 /usr/local/xenon/usr/lib/libSDL.a(SDL_nullvideo.o)
                0x000000008028558c                _xe

.sbss           0x0000000080287aac       0x60
 *(.sbss*)
 .sbss          0x0000000000000000        0x0 /usr/local/xenon/lib/gcc/xenon/4.4.0/../../../../xenon/lib/../lib/crt1.o
 .sbss.stdout_hook
                0x0000000080287aac        0x4 /usr/local/xenon/usr/lib/libxenon.a(newlib.o)
                0x0000000080287aac                stdout_hook
 .sbss          0x0000000080287ab0        0x4 /usr/local/xenon/usr/lib/libxenon.a(newlib.o)
                0x0000000080287ab0                heap_ptr
 .sbss.usb_initialized
                0x0000000080287ab4        0x4 /usr/local/xenon/usr/lib/libxenon.a(usbmain.o)
                0x0000000080287ab4                usb_initialized
 .sbss.usb_buscnt
                0x0000000080287ab8        0x4 /usr/local/xenon/usr/lib/libxenon.a(usbmain.o)
                0x0000000080287ab8                usb_buscnt
 .sbss.xenos_id
                0x0000000080287abc        0x4 /usr/local/xenon/usr/lib/libxenon.a(xenos.o)
                0x0000000080287abc                xenos_id
 .sbss.usb_noisy
                0x0000000080287ac0        0x4 /usr/local/xenon/usr/lib/libxenon.a(usbd.o)
                0x0000000080287ac0                usb_noisy
 .sbss.usbmass_dev
                0x0000000080287ac4        0x4 /usr/local/xenon/usr/lib/libxenon.a(usbmass.o)
                0x0000000080287ac4                usbmass_dev
 .sbss          0x0000000080287ac8        0x4 /usr/local/xenon/usr/lib/libxenon.a(fat_rb.o)
                0x0000000080287ac8                cache_mutex
 .sbss.current_audio
                0x0000000080287acc        0x4 /usr/local/xenon/usr/lib/libSDL.a(SDL_audio.o)
                0x0000000080287acc                current_audio
 .sbss.SDL_EventOK
                0x0000000080287ad0        0x4 /usr/local/xenon/usr/lib/libSDL.a(SDL_events.o)
                0x0000000080287ad0                SDL_EventOK
 .sbss.SDL_TranslateUNICODE
                0x0000000080287ad4        0x4 /usr/local/xenon/usr/lib/libSDL.a(SDL_keyboard.o)
                0x0000000080287ad4                SDL_TranslateUNICODE
 .sbss.SDL_timer_started
                0x0000000080287ad8        0x4 /usr/local/xenon/usr/lib/libSDL.a(SDL_timer.o)
                0x0000000080287ad8                SDL_timer_started
 .sbss.SDL_timer_running
                0x0000000080287adc        0x4 /usr/local/xenon/usr/lib/libSDL.a(SDL_timer.o)
                0x0000000080287adc                SDL_timer_running
 .sbss.SDL_cursor
                0x0000000080287ae0        0x4 /usr/local/xenon/usr/lib/libSDL.a(SDL_cursor.o)
                0x0000000080287ae0                SDL_cursor
 .sbss.SDL_cursorlock
                0x0000000080287ae4        0x4 /usr/local/xenon/usr/lib/libSDL.a(SDL_cursor.o)
                0x0000000080287ae4                SDL_cursorlock
 .sbss.current_video
                0x0000000080287ae8        0x4 /usr/local/xenon/usr/lib/libSDL.a(SDL_video.o)
                0x0000000080287ae8                current_video
 .sbss          0x0000000080287aec       0x10 /usr/local/xenon/usr/lib/libSDL.a(SDL_nullvideo.o)
                0x0000000080287aec                xe
                0x0000000080287af0                sdl_ps
                0x0000000080287af4                sdl_vs
                0x0000000080287af8                fb
 .sbss          0x0000000080287afc        0xc /usr/local/xenon/xenon/lib/32/libc.a(lib_a-mallocr.o)
                0x0000000080287afc                __malloc_top_pad
                0x0000000080287b00                __malloc_max_sbrked_mem
                0x0000000080287b04                __malloc_max_total_mem
 .sbss          0x0000000080287b08        0x4 /usr/local/xenon/xenon/lib/32/libc.a(lib_a-reent.o)
                0x0000000080287b08                errno
                0x0000000080287b0c                bss_end = .
                0x0000000080287b0c                heap_begin = .
                0x0000000090000000                . = 0x90000000
                0x0000000090000000                __libc_stack_end = .
                0x0000000090000000                heap_end = .
                0x00000000a0000000                . = 0xa0000000
OUTPUT(/home/tiffany/Xbox-360-Homebrew/SDLSample/xenon.elf elf32-powerpc)

.debug_abbrev   0x0000000000000000     0x9913
 .debug_abbrev  0x0000000000000000       0x7d /usr/local/xenon/lib/gcc/xenon/4.4.0/../../../../xenon/lib/../lib/crt1.o
 .debug_abbrev  0x000000000000007d      0x17c main.o
 .debug_abbrev  0x00000000000001f9      0x1ee /usr/local/xenon/usr/lib/libxenon.a(console.o)
 .debug_abbrev  0x00000000000003e7      0x2ca /usr/local/xenon/usr/lib/libxenon.a(newlib.o)
 .debug_abbrev  0x00000000000006b1      0x26c /usr/local/xenon/usr/lib/libxenon.a(lib_malloc.o)
 .debug_abbrev  0x000000000000091d       0x63 /usr/local/xenon/usr/lib/libxenon.a(vm.o)
 .debug_abbrev  0x0000000000000980      0x1c3 /usr/local/xenon/usr/lib/libxenon.a(usbmain.o)
 .debug_abbrev  0x0000000000000b43       0xc8 /usr/local/xenon/usr/lib/libxenon.a(xenon_uart.o)
 .debug_abbrev  0x0000000000000c0b      0x205 /usr/local/xenon/usr/lib/libxenon.a(xenos.o)
 .debug_abbrev  0x0000000000000e10       0xad /usr/local/xenon/usr/lib/libxenon.a(io.o)
 .debug_abbrev  0x0000000000000ebd      0x11d /usr/local/xenon/usr/lib/libxenon.a(time.o)
 .debug_abbrev  0x0000000000000fda      0x357 /usr/local/xenon/usr/lib/libxenon.a(ohci.o)
 .debug_abbrev  0x0000000000001331      0x2ea /usr/local/xenon/usr/lib/libxenon.a(usbd.o)
 .debug_abbrev  0x000000000000161b      0x146 /usr/local/xenon/usr/lib/libxenon.a(usbdevs.o)
 .debug_abbrev  0x0000000000001761      0x20a /usr/local/xenon/usr/lib/libxenon.a(usbhid.o)
 .debug_abbrev  0x000000000000196b      0x308 /usr/local/xenon/usr/lib/libxenon.a(usbhub.o)
 .debug_abbrev  0x0000000000001c73      0x22d /usr/local/xenon/usr/lib/libxenon.a(usbmass.o)
 .debug_abbrev  0x0000000000001ea0       0xa5 /usr/local/xenon/usr/lib/libxenon.a(xenon_gpio.o)
 .debug_abbrev  0x0000000000001f45      0x10c /usr/local/xenon/usr/lib/libxenon.a(xenon_smc.o)
 .debug_abbrev  0x0000000000002051      0x173 /usr/local/xenon/usr/lib/libxenon.a(xenon_config.o)
 .debug_abbrev  0x00000000000021c4      0x1af /usr/local/xenon/usr/lib/libxenon.a(diskio.o)
 .debug_abbrev  0x0000000000002373      0x181 /usr/local/xenon/usr/lib/libxenon.a(fat.o)
 .debug_abbrev  0x00000000000024f4      0x36f /usr/local/xenon/usr/lib/libxenon.a(fat_rb.o)
 .debug_abbrev  0x0000000000002863      0x20d /usr/local/xenon/usr/lib/libxenon.a(file_rb.o)
 .debug_abbrev  0x0000000000002a70      0x1d0 /usr/local/xenon/usr/lib/libxenon.a(dir_rb.o)
 .debug_abbrev  0x0000000000002c40      0x430 /usr/local/xenon/usr/lib/libxenon.a(iso9660.o)
 .debug_abbrev  0x0000000000003070      0x13b /usr/local/xenon/usr/lib/libxenon.a(lib_queue.o)
 .debug_abbrev  0x00000000000031ab      0x218 /usr/local/xenon/usr/lib/libxenon.a(usbctrl.o)
 .debug_abbrev  0x00000000000033c3      0x1f2 /usr/local/xenon/usr/lib/libxenon.a(usbdebug.o)
 .debug_abbrev  0x00000000000035b5      0x101 /usr/local/xenon/usr/lib/libxenon.a(unicode_rb.o)
 .debug_abbrev  0x00000000000036b6      0x1f7 /usr/local/xenon/usr/lib/libxenon.a(xenon_sfcx.o)
 .debug_abbrev  0x00000000000038ad      0x191 /usr/local/xenon/usr/lib/libxenon.a(disk_rb.o)
 .debug_abbrev  0x0000000000003a3e       0xf2 /usr/local/xenon/usr/lib/libxenon.a(input.o)
 .debug_abbrev  0x0000000000003b30      0x177 /usr/local/xenon/xenon/lib/32/libc.a(lib_a-assert.o)
 .debug_abbrev  0x0000000000003ca7      0x17f /usr/local/xenon/xenon/lib/32/libc.a(lib_a-atoi.o)
 .debug_abbrev  0x0000000000003e26       0x5b /usr/local/xenon/xenon/lib/32/libc.a(lib_a-ctype_.o)
 .debug_abbrev  0x0000000000003e81      0x168 /usr/local/xenon/xenon/lib/32/libc.a(lib_a-errno.o)
 .debug_abbrev  0x0000000000003fe9      0x177 /usr/local/xenon/xenon/lib/32/libc.a(lib_a-exit.o)
 .debug_abbrev  0x0000000000004160      0x1b3 /usr/local/xenon/xenon/lib/32/libc.a(lib_a-fiprintf.o)
 .debug_abbrev  0x0000000000004313      0x160 /usr/local/xenon/xenon/lib/32/libc.a(lib_a-impure.o)
 .debug_abbrev  0x0000000000004473      0x190 /usr/local/xenon/xenon/lib/32/libc.a(lib_a-malloc.o)
 .debug_abbrev  0x0000000000004603      0x221 /usr/local/xenon/xenon/lib/32/libc.a(lib_a-mallocr.o)
 .debug_abbrev  0x0000000000004824       0xdc /usr/local/xenon/xenon/lib/32/libc.a(lib_a-memchr.o)
 .debug_abbrev  0x0000000000004900       0xa3 /usr/local/xenon/xenon/lib/32/libc.a(lib_a-memcmp.o)
 .debug_abbrev  0x00000000000049a3       0xb1 /usr/local/xenon/xenon/lib/32/libc.a(lib_a-memcpy.o)
 .debug_abbrev  0x0000000000004a54       0xa3 /usr/local/xenon/xenon/lib/32/libc.a(lib_a-memset.o)
 .debug_abbrev  0x0000000000004af7      0x173 /usr/local/xenon/xenon/lib/32/libc.a(lib_a-mlock.o)
 .debug_abbrev  0x0000000000004c6a      0x1c2 /usr/local/xenon/xenon/lib/32/libc.a(lib_a-printf.o)
 .debug_abbrev  0x0000000000004e2c      0x192 /usr/local/xenon/xenon/lib/32/libc.a(lib_a-putchar.o)
 .debug_abbrev  0x0000000000004fbe      0x1a1 /usr/local/xenon/xenon/lib/32/libc.a(lib_a-putc.o)
 .debug_abbrev  0x000000000000515f      0x1b5 /usr/local/xenon/xenon/lib/32/libc.a(lib_a-puts.o)
 .debug_abbrev  0x0000000000005314      0x197 /usr/local/xenon/xenon/lib/32/libc.a(lib_a-sbrkr.o)
 .debug_abbrev  0x00000000000054ab      0x1ab /usr/local/xenon/xenon/lib/32/libc.a(lib_a-snprintf.o)
 .debug_abbrev  0x0000000000005656      0x1b3 /usr/local/xenon/xenon/lib/32/libc.a(lib_a-sprintf.o)
 .debug_abbrev  0x0000000000005809       0xb7 /usr/local/xenon/xenon/lib/32/libc.a(lib_a-strcasecmp.o)
 .debug_abbrev  0x00000000000058c0       0x90 /usr/local/xenon/xenon/lib/32/libc.a(lib_a-strcat.o)
 .debug_abbrev  0x0000000000005950       0xa5 /usr/local/xenon/xenon/lib/32/libc.a(lib_a-strchr.o)
 .debug_abbrev  0x00000000000059f5       0x89 /usr/local/xenon/xenon/lib/32/libc.a(lib_a-strcmp.o)
 .debug_abbrev  0x0000000000005a7e       0x89 /usr/local/xenon/xenon/lib/32/libc.a(lib_a-strcpy.o)
 .debug_abbrev  0x0000000000005b07       0x94 /usr/local/xenon/xenon/lib/32/libc.a(lib_a-strlcpy.o)
 .debug_abbrev  0x0000000000005b9b       0x94 /usr/local/xenon/xenon/lib/32/libc.a(lib_a-strlen.o)
 .debug_abbrev  0x0000000000005c2f       0xc8 /usr/local/xenon/xenon/lib/32/libc.a(lib_a-strncasecmp.o)
 .debug_abbrev  0x0000000000005cf7       0x96 /usr/local/xenon/xenon/lib/32/libc.a(lib_a-strncmp.o)
 .debug_abbrev  0x0000000000005d8d       0xa5 /usr/local/xenon/xenon/lib/32/libc.a(lib_a-strncpy.o)
 .debug_abbrev  0x0000000000005e32       0x78 /usr/local/xenon/xenon/lib/32/libc.a(lib_a-strrchr.o)
 .debug_abbrev  0x0000000000005eaa       0xc9 /usr/local/xenon/xenon/lib/32/libc.a(lib_a-strtok_r.o)
 .debug_abbrev  0x0000000000005f73      0x1d5 /usr/local/xenon/xenon/lib/32/libc.a(lib_a-strtol.o)
 .debug_abbrev  0x0000000000006148      0x30d /usr/local/xenon/xenon/lib/32/libc.a(lib_a-svfprintf.o)
 .debug_abbrev  0x0000000000006455      0x2a3 /usr/local/xenon/xenon/lib/32/libc.a(lib_a-vfiprintf.o)
 .debug_abbrev  0x00000000000066f8      0x313 /usr/local/xenon/xenon/lib/32/libc.a(lib_a-vfprintf.o)
 .debug_abbrev  0x0000000000006a0b      0x1a1 /usr/local/xenon/xenon/lib/32/libc.a(lib_a-wbuf.o)
 .debug_abbrev  0x0000000000006bac      0x179 /usr/local/xenon/xenon/lib/32/libc.a(lib_a-wsetup.o)
 .debug_abbrev  0x0000000000006d25       0x48 /usr/local/xenon/xenon/lib/32/libc.a(lib_a-abort.o)
 .debug_abbrev  0x0000000000006d6d      0x1d0 /usr/local/xenon/xenon/lib/32/libc.a(lib_a-__call_atexit.o)
 .debug_abbrev  0x0000000000006f3d      0x23b /usr/local/xenon/xenon/lib/32/libc.a(lib_a-dtoa.o)
 .debug_abbrev  0x0000000000007178      0x1c4 /usr/local/xenon/xenon/lib/32/libc.a(lib_a-fflush.o)
 .debug_abbrev  0x000000000000733c      0x244 /usr/local/xenon/xenon/lib/32/libc.a(lib_a-findfp.o)
 .debug_abbrev  0x0000000000007580      0x1e2 /usr/local/xenon/xenon/lib/32/libc.a(lib_a-freer.o)
 .debug_abbrev  0x0000000000007762      0x1ac /usr/local/xenon/xenon/lib/32/libc.a(lib_a-fvwrite.o)
 .debug_abbrev  0x000000000000790e      0x1ee /usr/local/xenon/xenon/lib/32/libc.a(lib_a-fwalk.o)
 .debug_abbrev  0x0000000000007afc      0x1ee /usr/local/xenon/xenon/lib/32/libc.a(lib_a-locale.o)
 .debug_abbrev  0x0000000000007cea      0x193 /usr/local/xenon/xenon/lib/32/libc.a(lib_a-makebuf.o)
 .debug_abbrev  0x0000000000007e7d       0xb1 /usr/local/xenon/xenon/lib/32/libc.a(lib_a-memmove.o)
 .debug_abbrev  0x0000000000007f2e      0x2ad /usr/local/xenon/xenon/lib/32/libc.a(lib_a-mprec.o)
 .debug_abbrev  0x00000000000081db      0x1d5 /usr/local/xenon/xenon/lib/32/libc.a(lib_a-reallocr.o)
 .debug_abbrev  0x00000000000083b0      0x1fa /usr/local/xenon/xenon/lib/32/libc.a(lib_a-reent.o)
 .debug_abbrev  0x00000000000085aa      0x1bb /usr/local/xenon/xenon/lib/32/libc.a(lib_a-signal.o)
 .debug_abbrev  0x0000000000008765      0x195 /usr/local/xenon/xenon/lib/32/libc.a(lib_a-signalr.o)
 .debug_abbrev  0x00000000000088fa       0xdd /usr/local/xenon/xenon/lib/32/libc.a(lib_a-s_isinfd.o)
 .debug_abbrev  0x00000000000089d7       0xce /usr/local/xenon/xenon/lib/32/libc.a(lib_a-s_isnand.o)
 .debug_abbrev  0x0000000000008aa5      0x1aa /usr/local/xenon/xenon/lib/32/libc.a(lib_a-stdio.o)
 .debug_abbrev  0x0000000000008c4f      0x18d /usr/local/xenon/xenon/lib/32/libc.a(lib_a-writer.o)
 .debug_abbrev  0x0000000000008ddc      0x1c1 /usr/local/xenon/xenon/lib/32/libc.a(lib_a-callocr.o)
 .debug_abbrev  0x0000000000008f9d      0x188 /usr/local/xenon/xenon/lib/32/libc.a(lib_a-closer.o)
 .debug_abbrev  0x0000000000009125      0x1b0 /usr/local/xenon/xenon/lib/32/libc.a(lib_a-fclose.o)
 .debug_abbrev  0x00000000000092d5      0x197 /usr/local/xenon/xenon/lib/32/libc.a(lib_a-fstatr.o)
 .debug_abbrev  0x000000000000946c      0x188 /usr/local/xenon/xenon/lib/32/libc.a(lib_a-isattyr.o)
 .debug_abbrev  0x00000000000095f4      0x197 /usr/local/xenon/xenon/lib/32/libc.a(lib_a-lseekr.o)
 .debug_abbrev  0x000000000000978b      0x188 /usr/local/xenon/xenon/lib/32/libc.a(lib_a-readr.o)

.debug_info     0x0000000000000000    0x3492e
 .debug_info    0x0000000000000000       0x94 /usr/local/xenon/lib/gcc/xenon/4.4.0/../../../../xenon/lib/../lib/crt1.o
 .debug_info    0x0000000000000094     0x117f main.o
 .debug_info    0x0000000000001213      0x512 /usr/local/xenon/usr/lib/libxenon.a(console.o)
 .debug_info    0x0000000000001725      0xe63 /usr/local/xenon/usr/lib/libxenon.a(newlib.o)
 .debug_info    0x0000000000002588      0x4f4 /usr/local/xenon/usr/lib/libxenon.a(lib_malloc.o)
 .debug_info    0x0000000000002a7c       0x9c /usr/local/xenon/usr/lib/libxenon.a(vm.o)
 .debug_info    0x0000000000002b18      0x8a5 /usr/local/xenon/usr/lib/libxenon.a(usbmain.o)
 .debug_info    0x00000000000033bd      0x118 /usr/local/xenon/usr/lib/libxenon.a(xenon_uart.o)
 .debug_info    0x00000000000034d5      0x70e /usr/local/xenon/usr/lib/libxenon.a(xenos.o)
 .debug_info    0x0000000000003be3      0x131 /usr/local/xenon/usr/lib/libxenon.a(io.o)
 .debug_info    0x0000000000003d14      0x2cd /usr/local/xenon/usr/lib/libxenon.a(time.o)
 .debug_info    0x0000000000003fe1     0x2225 /usr/local/xenon/usr/lib/libxenon.a(ohci.o)
 .debug_info    0x0000000000006206     0x160b /usr/local/xenon/usr/lib/libxenon.a(usbd.o)
 .debug_info    0x0000000000007811      0x927 /usr/local/xenon/usr/lib/libxenon.a(usbdevs.o)
 .debug_info    0x0000000000008138      0xd1b /usr/local/xenon/usr/lib/libxenon.a(usbhid.o)
 .debug_info    0x0000000000008e53     0x12b9 /usr/local/xenon/usr/lib/libxenon.a(usbhub.o)
 .debug_info    0x000000000000a10c     0x1097 /usr/local/xenon/usr/lib/libxenon.a(usbmass.o)
 .debug_info    0x000000000000b1a3      0x15b /usr/local/xenon/usr/lib/libxenon.a(xenon_gpio.o)
 .debug_info    0x000000000000b2fe      0x45d /usr/local/xenon/usr/lib/libxenon.a(xenon_smc.o)
 .debug_info    0x000000000000b75b      0x4ee /usr/local/xenon/usr/lib/libxenon.a(xenon_config.o)
 .debug_info    0x000000000000bc49      0x8cc /usr/local/xenon/usr/lib/libxenon.a(diskio.o)
 .debug_info    0x000000000000c515      0xbfb /usr/local/xenon/usr/lib/libxenon.a(fat.o)
 .debug_info    0x000000000000d110     0x1eb5 /usr/local/xenon/usr/lib/libxenon.a(fat_rb.o)
 .debug_info    0x000000000000efc5      0x9d5 /usr/local/xenon/usr/lib/libxenon.a(file_rb.o)
 .debug_info    0x000000000000f99a      0x650 /usr/local/xenon/usr/lib/libxenon.a(dir_rb.o)
 .debug_info    0x000000000000ffea     0x18eb /usr/local/xenon/usr/lib/libxenon.a(iso9660.o)
 .debug_info    0x00000000000118d5      0x26c /usr/local/xenon/usr/lib/libxenon.a(lib_queue.o)
 .debug_info    0x0000000000011b41      0xcbc /usr/local/xenon/usr/lib/libxenon.a(usbctrl.o)
 .debug_info    0x00000000000127fd      0xcac /usr/local/xenon/usr/lib/libxenon.a(usbdebug.o)
 .debug_info    0x00000000000134a9      0x290 /usr/local/xenon/usr/lib/libxenon.a(unicode_rb.o)
 .debug_info    0x0000000000013739      0x672 /usr/local/xenon/usr/lib/libxenon.a(xenon_sfcx.o)
 .debug_info    0x0000000000013dab      0x486 /usr/local/xenon/usr/lib/libxenon.a(disk_rb.o)
 .debug_info    0x0000000000014231      0x23c /usr/local/xenon/usr/lib/libxenon.a(input.o)
 .debug_info    0x000000000001446d      0x9d7 /usr/local/xenon/xenon/lib/32/libc.a(lib_a-assert.o)
 .debug_info    0x0000000000014e44      0x98d /usr/local/xenon/xenon/lib/32/libc.a(lib_a-atoi.o)
 .debug_info    0x00000000000157d1       0x87 /usr/local/xenon/xenon/lib/32/libc.a(lib_a-ctype_.o)
 .debug_info    0x0000000000015858      0x959 /usr/local/xenon/xenon/lib/32/libc.a(lib_a-errno.o)
 .debug_info    0x00000000000161b1      0x968 /usr/local/xenon/xenon/lib/32/libc.a(lib_a-exit.o)
 .debug_info    0x0000000000016b19      0xa7e /usr/local/xenon/xenon/lib/32/libc.a(lib_a-fiprintf.o)
 .debug_info    0x0000000000017597      0x968 /usr/local/xenon/xenon/lib/32/libc.a(lib_a-impure.o)
 .debug_info    0x0000000000017eff      0x99b /usr/local/xenon/xenon/lib/32/libc.a(lib_a-malloc.o)
 .debug_info    0x000000000001889a      0xcfd /usr/local/xenon/xenon/lib/32/libc.a(lib_a-mallocr.o)
 .debug_info    0x0000000000019597      0x123 /usr/local/xenon/xenon/lib/32/libc.a(lib_a-memchr.o)
 .debug_info    0x00000000000196ba      0x10b /usr/local/xenon/xenon/lib/32/libc.a(lib_a-memcmp.o)
 .debug_info    0x00000000000197c5      0x140 /usr/local/xenon/xenon/lib/32/libc.a(lib_a-memcpy.o)
 .debug_info    0x0000000000019905      0x115 /usr/local/xenon/xenon/lib/32/libc.a(lib_a-memset.o)
 .debug_info    0x0000000000019a1a      0x980 /usr/local/xenon/xenon/lib/32/libc.a(lib_a-mlock.o)
 .debug_info    0x000000000001a39a      0xa60 /usr/local/xenon/xenon/lib/32/libc.a(lib_a-printf.o)
 .debug_info    0x000000000001adfa      0x9a0 /usr/local/xenon/xenon/lib/32/libc.a(lib_a-putchar.o)
 .debug_info    0x000000000001b79a      0x9eb /usr/local/xenon/xenon/lib/32/libc.a(lib_a-putc.o)
 .debug_info    0x000000000001c185      0xa51 /usr/local/xenon/xenon/lib/32/libc.a(lib_a-puts.o)
 .debug_info    0x000000000001cbd6      0x98f /usr/local/xenon/xenon/lib/32/libc.a(lib_a-sbrkr.o)
 .debug_info    0x000000000001d565      0xad5 /usr/local/xenon/xenon/lib/32/libc.a(lib_a-snprintf.o)
 .debug_info    0x000000000001e03a      0xa9f /usr/local/xenon/xenon/lib/32/libc.a(lib_a-sprintf.o)
 .debug_info    0x000000000001ead9      0x132 /usr/local/xenon/xenon/lib/32/libc.a(lib_a-strcasecmp.o)
 .debug_info    0x000000000001ec0b       0xe9 /usr/local/xenon/xenon/lib/32/libc.a(lib_a-strcat.o)
 .debug_info    0x000000000001ecf4      0x110 /usr/local/xenon/xenon/lib/32/libc.a(lib_a-strchr.o)
 .debug_info    0x000000000001ee04       0xdb /usr/local/xenon/xenon/lib/32/libc.a(lib_a-strcmp.o)
 .debug_info    0x000000000001eedf      0x108 /usr/local/xenon/xenon/lib/32/libc.a(lib_a-strcpy.o)
 .debug_info    0x000000000001efe7       0xfe /usr/local/xenon/xenon/lib/32/libc.a(lib_a-strlcpy.o)
 .debug_info    0x000000000001f0e5       0xd7 /usr/local/xenon/xenon/lib/32/libc.a(lib_a-strlen.o)
 .debug_info    0x000000000001f1bc      0x146 /usr/local/xenon/xenon/lib/32/libc.a(lib_a-strncasecmp.o)
 .debug_info    0x000000000001f302       0xf3 /usr/local/xenon/xenon/lib/32/libc.a(lib_a-strncmp.o)
 .debug_info    0x000000000001f3f5      0x128 /usr/local/xenon/xenon/lib/32/libc.a(lib_a-strncpy.o)
 .debug_info    0x000000000001f51d       0xca /usr/local/xenon/xenon/lib/32/libc.a(lib_a-strrchr.o)
 .debug_info    0x000000000001f5e7      0x164 /usr/local/xenon/xenon/lib/32/libc.a(lib_a-strtok_r.o)
 .debug_info    0x000000000001f74b      0xa4d /usr/local/xenon/xenon/lib/32/libc.a(lib_a-strtol.o)
 .debug_info    0x0000000000020198     0x107e /usr/local/xenon/xenon/lib/32/libc.a(lib_a-svfprintf.o)
 .debug_info    0x0000000000021216      0xe55 /usr/local/xenon/xenon/lib/32/libc.a(lib_a-vfiprintf.o)
 .debug_info    0x000000000002206b     0x113d /usr/local/xenon/xenon/lib/32/libc.a(lib_a-vfprintf.o)
 .debug_info    0x00000000000231a8      0x9da /usr/local/xenon/xenon/lib/32/libc.a(lib_a-wbuf.o)
 .debug_info    0x0000000000023b82      0x986 /usr/local/xenon/xenon/lib/32/libc.a(lib_a-wsetup.o)
 .debug_info    0x0000000000024508       0x8b /usr/local/xenon/xenon/lib/32/libc.a(lib_a-abort.o)
 .debug_info    0x0000000000024593      0x9e8 /usr/local/xenon/xenon/lib/32/libc.a(lib_a-__call_atexit.o)
 .debug_info    0x0000000000024f7b      0xd9e /usr/local/xenon/xenon/lib/32/libc.a(lib_a-dtoa.o)
 .debug_info    0x0000000000025d19      0xa22 /usr/local/xenon/xenon/lib/32/libc.a(lib_a-fflush.o)
 .debug_info    0x000000000002673b      0xbb0 /usr/local/xenon/xenon/lib/32/libc.a(lib_a-findfp.o)
 .debug_info    0x00000000000272eb      0xbf2 /usr/local/xenon/xenon/lib/32/libc.a(lib_a-freer.o)
 .debug_info    0x0000000000027edd      0xaad /usr/local/xenon/xenon/lib/32/libc.a(lib_a-fvwrite.o)
 .debug_info    0x000000000002898a      0xb1e /usr/local/xenon/xenon/lib/32/libc.a(lib_a-fwalk.o)
 .debug_info    0x00000000000294a8      0xbcb /usr/local/xenon/xenon/lib/32/libc.a(lib_a-locale.o)
 .debug_info    0x000000000002a073      0xb47 /usr/local/xenon/xenon/lib/32/libc.a(lib_a-makebuf.o)
 .debug_info    0x000000000002abba      0x140 /usr/local/xenon/xenon/lib/32/libc.a(lib_a-memmove.o)
 .debug_info    0x000000000002acfa     0x145d /usr/local/xenon/xenon/lib/32/libc.a(lib_a-mprec.o)
 .debug_info    0x000000000002c157      0xbde /usr/local/xenon/xenon/lib/32/libc.a(lib_a-reallocr.o)
 .debug_info    0x000000000002cd35      0xa4c /usr/local/xenon/xenon/lib/32/libc.a(lib_a-reent.o)
 .debug_info    0x000000000002d781      0xb1a /usr/local/xenon/xenon/lib/32/libc.a(lib_a-signal.o)
 .debug_info    0x000000000002e29b      0x9cb /usr/local/xenon/xenon/lib/32/libc.a(lib_a-signalr.o)
 .debug_info    0x000000000002ec66      0x14f /usr/local/xenon/xenon/lib/32/libc.a(lib_a-s_isinfd.o)
 .debug_info    0x000000000002edb5      0x14e /usr/local/xenon/xenon/lib/32/libc.a(lib_a-s_isnand.o)
 .debug_info    0x000000000002ef03      0xad9 /usr/local/xenon/xenon/lib/32/libc.a(lib_a-stdio.o)
 .debug_info    0x000000000002f9dc      0x9be /usr/local/xenon/xenon/lib/32/libc.a(lib_a-writer.o)
 .debug_info    0x000000000003039a      0xa44 /usr/local/xenon/xenon/lib/32/libc.a(lib_a-callocr.o)
 .debug_info    0x0000000000030dde      0x983 /usr/local/xenon/xenon/lib/32/libc.a(lib_a-closer.o)
 .debug_info    0x0000000000031761      0x9c0 /usr/local/xenon/xenon/lib/32/libc.a(lib_a-fclose.o)
 .debug_info    0x0000000000032121      0xb27 /usr/local/xenon/xenon/lib/32/libc.a(lib_a-fstatr.o)
 .debug_info    0x0000000000032c48      0x983 /usr/local/xenon/xenon/lib/32/libc.a(lib_a-isattyr.o)
 .debug_info    0x00000000000335cb      0x9ac /usr/local/xenon/xenon/lib/32/libc.a(lib_a-lseekr.o)
 .debug_info    0x0000000000033f77      0x9b7 /usr/local/xenon/xenon/lib/32/libc.a(lib_a-readr.o)

.debug_line     0x0000000000000000     0xbaed
 .debug_line    0x0000000000000000       0x56 /usr/local/xenon/lib/gcc/xenon/4.4.0/../../../../xenon/lib/../lib/crt1.o
 .debug_line    0x0000000000000056      0x19b main.o
 .debug_line    0x00000000000001f1      0x1f9 /usr/local/xenon/usr/lib/libxenon.a(console.o)
 .debug_line    0x00000000000003ea      0x383 /usr/local/xenon/usr/lib/libxenon.a(newlib.o)
 .debug_line    0x000000000000076d      0x1d1 /usr/local/xenon/usr/lib/libxenon.a(lib_malloc.o)
 .debug_line    0x000000000000093e       0x82 /usr/local/xenon/usr/lib/libxenon.a(vm.o)
 .debug_line    0x00000000000009c0      0x18b /usr/local/xenon/usr/lib/libxenon.a(usbmain.o)
 .debug_line    0x0000000000000b4b       0xcf /usr/local/xenon/usr/lib/libxenon.a(xenon_uart.o)
 .debug_line    0x0000000000000c1a      0x310 /usr/local/xenon/usr/lib/libxenon.a(xenos.o)
 .debug_line    0x0000000000000f2a       0xc1 /usr/local/xenon/usr/lib/libxenon.a(io.o)
 .debug_line    0x0000000000000feb      0x13d /usr/local/xenon/usr/lib/libxenon.a(time.o)
 .debug_line    0x0000000000001128      0x86b /usr/local/xenon/usr/lib/libxenon.a(ohci.o)
 .debug_line    0x0000000000001993      0x514 /usr/local/xenon/usr/lib/libxenon.a(usbd.o)
 .debug_line    0x0000000000001ea7      0x101 /usr/local/xenon/usr/lib/libxenon.a(usbdevs.o)
 .debug_line    0x0000000000001fa8      0x1ae /usr/local/xenon/usr/lib/libxenon.a(usbhid.o)
 .debug_line    0x0000000000002156      0x378 /usr/local/xenon/usr/lib/libxenon.a(usbhub.o)
 .debug_line    0x00000000000024ce      0x36d /usr/local/xenon/usr/lib/libxenon.a(usbmass.o)
 .debug_line    0x000000000000283b       0xdb /usr/local/xenon/usr/lib/libxenon.a(xenon_gpio.o)
 .debug_line    0x0000000000002916      0x27c /usr/local/xenon/usr/lib/libxenon.a(xenon_smc.o)
 .debug_line    0x0000000000002b92      0x13b /usr/local/xenon/usr/lib/libxenon.a(xenon_config.o)
 .debug_line    0x0000000000002ccd      0x1ec /usr/local/xenon/usr/lib/libxenon.a(diskio.o)
 .debug_line    0x0000000000002eb9      0x219 /usr/local/xenon/usr/lib/libxenon.a(fat.o)
 .debug_line    0x00000000000030d2      0xb49 /usr/local/xenon/usr/lib/libxenon.a(fat_rb.o)
 .debug_line    0x0000000000003c1b      0x3fa /usr/local/xenon/usr/lib/libxenon.a(file_rb.o)
 .debug_line    0x0000000000004015      0x16f /usr/local/xenon/usr/lib/libxenon.a(dir_rb.o)
 .debug_line    0x0000000000004184      0x655 /usr/local/xenon/usr/lib/libxenon.a(iso9660.o)
 .debug_line    0x00000000000047d9       0xd9 /usr/local/xenon/usr/lib/libxenon.a(lib_queue.o)
 .debug_line    0x00000000000048b2      0x1d3 /usr/local/xenon/usr/lib/libxenon.a(usbctrl.o)
 .debug_line    0x0000000000004a85      0x28b /usr/local/xenon/usr/lib/libxenon.a(usbdebug.o)
 .debug_line    0x0000000000004d10      0x10b /usr/local/xenon/usr/lib/libxenon.a(unicode_rb.o)
 .debug_line    0x0000000000004e1b      0x2c1 /usr/local/xenon/usr/lib/libxenon.a(xenon_sfcx.o)
 .debug_line    0x00000000000050dc      0x146 /usr/local/xenon/usr/lib/libxenon.a(disk_rb.o)
 .debug_line    0x0000000000005222       0x75 /usr/local/xenon/usr/lib/libxenon.a(input.o)
 .debug_line    0x0000000000005297      0x155 /usr/local/xenon/xenon/lib/32/libc.a(lib_a-assert.o)
 .debug_line    0x00000000000053ec      0x157 /usr/local/xenon/xenon/lib/32/libc.a(lib_a-atoi.o)
 .debug_line    0x0000000000005543       0xa0 /usr/local/xenon/xenon/lib/32/libc.a(lib_a-ctype_.o)
 .debug_line    0x00000000000055e3      0x10d /usr/local/xenon/xenon/lib/32/libc.a(lib_a-errno.o)
 .debug_line    0x00000000000056f0      0x14e /usr/local/xenon/xenon/lib/32/libc.a(lib_a-exit.o)
 .debug_line    0x000000000000583e      0x174 /usr/local/xenon/xenon/lib/32/libc.a(lib_a-fiprintf.o)
 .debug_line    0x00000000000059b2       0xf3 /usr/local/xenon/xenon/lib/32/libc.a(lib_a-impure.o)
 .debug_line    0x0000000000005aa5      0x151 /usr/local/xenon/xenon/lib/32/libc.a(lib_a-malloc.o)
 .debug_line    0x0000000000005bf6      0x28d /usr/local/xenon/xenon/lib/32/libc.a(lib_a-mallocr.o)
 .debug_line    0x0000000000005e83      0x120 /usr/local/xenon/xenon/lib/32/libc.a(lib_a-memchr.o)
 .debug_line    0x0000000000005fa3      0x11e /usr/local/xenon/xenon/lib/32/libc.a(lib_a-memcmp.o)
 .debug_line    0x00000000000060c1      0x14e /usr/local/xenon/xenon/lib/32/libc.a(lib_a-memcpy.o)
 .debug_line    0x000000000000620f      0x140 /usr/local/xenon/xenon/lib/32/libc.a(lib_a-memset.o)
 .debug_line    0x000000000000634f      0x105 /usr/local/xenon/xenon/lib/32/libc.a(lib_a-mlock.o)
 .debug_line    0x0000000000006454      0x17d /usr/local/xenon/xenon/lib/32/libc.a(lib_a-printf.o)
 .debug_line    0x00000000000065d1      0x150 /usr/local/xenon/xenon/lib/32/libc.a(lib_a-putchar.o)
 .debug_line    0x0000000000006721      0x16c /usr/local/xenon/xenon/lib/32/libc.a(lib_a-putc.o)
 .debug_line    0x000000000000688d      0x172 /usr/local/xenon/xenon/lib/32/libc.a(lib_a-puts.o)
 .debug_line    0x00000000000069ff      0x14f /usr/local/xenon/xenon/lib/32/libc.a(lib_a-sbrkr.o)
 .debug_line    0x0000000000006b4e      0x1b7 /usr/local/xenon/xenon/lib/32/libc.a(lib_a-snprintf.o)
 .debug_line    0x0000000000006d05      0x1a0 /usr/local/xenon/xenon/lib/32/libc.a(lib_a-sprintf.o)
 .debug_line    0x0000000000006ea5       0xcc /usr/local/xenon/xenon/lib/32/libc.a(lib_a-strcasecmp.o)
 .debug_line    0x0000000000006f71       0xc1 /usr/local/xenon/xenon/lib/32/libc.a(lib_a-strcat.o)
 .debug_line    0x0000000000007032       0xe8 /usr/local/xenon/xenon/lib/32/libc.a(lib_a-strchr.o)
 .debug_line    0x000000000000711a       0xce /usr/local/xenon/xenon/lib/32/libc.a(lib_a-strcmp.o)
 .debug_line    0x00000000000071e8       0xc0 /usr/local/xenon/xenon/lib/32/libc.a(lib_a-strcpy.o)
 .debug_line    0x00000000000072a8       0xfe /usr/local/xenon/xenon/lib/32/libc.a(lib_a-strlcpy.o)
 .debug_line    0x00000000000073a6       0xfb /usr/local/xenon/xenon/lib/32/libc.a(lib_a-strlen.o)
 .debug_line    0x00000000000074a1      0x108 /usr/local/xenon/xenon/lib/32/libc.a(lib_a-strncasecmp.o)
 .debug_line    0x00000000000075a9      0x130 /usr/local/xenon/xenon/lib/32/libc.a(lib_a-strncmp.o)
 .debug_line    0x00000000000076d9      0x112 /usr/local/xenon/xenon/lib/32/libc.a(lib_a-strncpy.o)
 .debug_line    0x00000000000077eb       0xc2 /usr/local/xenon/xenon/lib/32/libc.a(lib_a-strrchr.o)
 .debug_line    0x00000000000078ad       0xf2 /usr/local/xenon/xenon/lib/32/libc.a(lib_a-strtok_r.o)
 .debug_line    0x000000000000799f      0x1a9 /usr/local/xenon/xenon/lib/32/libc.a(lib_a-strtol.o)
 .debug_line    0x0000000000007b48      0x590 /usr/local/xenon/xenon/lib/32/libc.a(lib_a-svfprintf.o)
 .debug_line    0x00000000000080d8      0x391 /usr/local/xenon/xenon/lib/32/libc.a(lib_a-vfiprintf.o)
 .debug_line    0x0000000000008469      0x544 /usr/local/xenon/xenon/lib/32/libc.a(lib_a-vfprintf.o)
 .debug_line    0x00000000000089ad      0x183 /usr/local/xenon/xenon/lib/32/libc.a(lib_a-wbuf.o)
 .debug_line    0x0000000000008b30      0x175 /usr/local/xenon/xenon/lib/32/libc.a(lib_a-wsetup.o)
 .debug_line    0x0000000000008ca5       0xb6 /usr/local/xenon/xenon/lib/32/libc.a(lib_a-abort.o)
 .debug_line    0x0000000000008d5b      0x15d /usr/local/xenon/xenon/lib/32/libc.a(lib_a-__call_atexit.o)
 .debug_line    0x0000000000008eb8      0x502 /usr/local/xenon/xenon/lib/32/libc.a(lib_a-dtoa.o)
 .debug_line    0x00000000000093ba      0x1eb /usr/local/xenon/xenon/lib/32/libc.a(lib_a-fflush.o)
 .debug_line    0x00000000000095a5      0x1f3 /usr/local/xenon/xenon/lib/32/libc.a(lib_a-findfp.o)
 .debug_line    0x0000000000009798      0x191 /usr/local/xenon/xenon/lib/32/libc.a(lib_a-freer.o)
 .debug_line    0x0000000000009929      0x22e /usr/local/xenon/xenon/lib/32/libc.a(lib_a-fvwrite.o)
 .debug_line    0x0000000000009b57      0x178 /usr/local/xenon/xenon/lib/32/libc.a(lib_a-fwalk.o)
 .debug_line    0x0000000000009ccf      0x174 /usr/local/xenon/xenon/lib/32/libc.a(lib_a-locale.o)
 .debug_line    0x0000000000009e43      0x1c9 /usr/local/xenon/xenon/lib/32/libc.a(lib_a-makebuf.o)
 .debug_line    0x000000000000a00c      0x15d /usr/local/xenon/xenon/lib/32/libc.a(lib_a-memmove.o)
 .debug_line    0x000000000000a169      0x507 /usr/local/xenon/xenon/lib/32/libc.a(lib_a-mprec.o)
 .debug_line    0x000000000000a670      0x1dd /usr/local/xenon/xenon/lib/32/libc.a(lib_a-reallocr.o)
 .debug_line    0x000000000000a84d      0x142 /usr/local/xenon/xenon/lib/32/libc.a(lib_a-reent.o)
 .debug_line    0x000000000000a98f      0x1d0 /usr/local/xenon/xenon/lib/32/libc.a(lib_a-signal.o)
 .debug_line    0x000000000000ab5f      0x157 /usr/local/xenon/xenon/lib/32/libc.a(lib_a-signalr.o)
 .debug_line    0x000000000000acb6      0x11a /usr/local/xenon/xenon/lib/32/libc.a(lib_a-s_isinfd.o)
 .debug_line    0x000000000000add0      0x118 /usr/local/xenon/xenon/lib/32/libc.a(lib_a-s_isnand.o)
 .debug_line    0x000000000000aee8      0x181 /usr/local/xenon/xenon/lib/32/libc.a(lib_a-stdio.o)
 .debug_line    0x000000000000b069      0x152 /usr/local/xenon/xenon/lib/32/libc.a(lib_a-writer.o)
 .debug_line    0x000000000000b1bb      0x116 /usr/local/xenon/xenon/lib/32/libc.a(lib_a-callocr.o)
 .debug_line    0x000000000000b2d1      0x150 /usr/local/xenon/xenon/lib/32/libc.a(lib_a-closer.o)
 .debug_line    0x000000000000b421      0x173 /usr/local/xenon/xenon/lib/32/libc.a(lib_a-fclose.o)
 .debug_line    0x000000000000b594      0x165 /usr/local/xenon/xenon/lib/32/libc.a(lib_a-fstatr.o)
 .debug_line    0x000000000000b6f9      0x151 /usr/local/xenon/xenon/lib/32/libc.a(lib_a-isattyr.o)
 .debug_line    0x000000000000b84a      0x152 /usr/local/xenon/xenon/lib/32/libc.a(lib_a-lseekr.o)
 .debug_line    0x000000000000b99c      0x151 /usr/local/xenon/xenon/lib/32/libc.a(lib_a-readr.o)

.debug_loc      0x0000000000000000    0x14ac1
 .debug_loc     0x0000000000000000       0x27 /usr/local/xenon/lib/gcc/xenon/4.4.0/../../../../xenon/lib/../lib/crt1.o
 .debug_loc     0x0000000000000027      0x252 main.o
 .debug_loc     0x0000000000000279      0x1a8 /usr/local/xenon/usr/lib/libxenon.a(console.o)
 .debug_loc     0x0000000000000421      0x6db /usr/local/xenon/usr/lib/libxenon.a(newlib.o)
 .debug_loc     0x0000000000000afc      0x214 /usr/local/xenon/usr/lib/libxenon.a(lib_malloc.o)
 .debug_loc     0x0000000000000d10       0x80 /usr/local/xenon/usr/lib/libxenon.a(usbmain.o)
 .debug_loc     0x0000000000000d90       0x63 /usr/local/xenon/usr/lib/libxenon.a(xenon_uart.o)
 .debug_loc     0x0000000000000df3      0x369 /usr/local/xenon/usr/lib/libxenon.a(xenos.o)
 .debug_loc     0x000000000000115c       0x26 /usr/local/xenon/usr/lib/libxenon.a(io.o)
 .debug_loc     0x0000000000001182      0x136 /usr/local/xenon/usr/lib/libxenon.a(time.o)
 .debug_loc     0x00000000000012b8      0xe71 /usr/local/xenon/usr/lib/libxenon.a(ohci.o)
 .debug_loc     0x0000000000002129      0xe0e /usr/local/xenon/usr/lib/libxenon.a(usbd.o)
 .debug_loc     0x0000000000002f37       0x7e /usr/local/xenon/usr/lib/libxenon.a(usbdevs.o)
 .debug_loc     0x0000000000002fb5      0x1b7 /usr/local/xenon/usr/lib/libxenon.a(usbhid.o)
 .debug_loc     0x000000000000316c      0x62b /usr/local/xenon/usr/lib/libxenon.a(usbhub.o)
 .debug_loc     0x0000000000003797      0x440 /usr/local/xenon/usr/lib/libxenon.a(usbmass.o)
 .debug_loc     0x0000000000003bd7      0x104 /usr/local/xenon/usr/lib/libxenon.a(xenon_gpio.o)
 .debug_loc     0x0000000000003cdb      0x3c3 /usr/local/xenon/usr/lib/libxenon.a(xenon_smc.o)
 .debug_loc     0x000000000000409e       0x6d /usr/local/xenon/usr/lib/libxenon.a(xenon_config.o)
 .debug_loc     0x000000000000410b      0x23d /usr/local/xenon/usr/lib/libxenon.a(diskio.o)
 .debug_loc     0x0000000000004348      0x316 /usr/local/xenon/usr/lib/libxenon.a(fat.o)
 .debug_loc     0x000000000000465e     0x264c /usr/local/xenon/usr/lib/libxenon.a(fat_rb.o)
 .debug_loc     0x0000000000006caa      0xcb4 /usr/local/xenon/usr/lib/libxenon.a(file_rb.o)
 .debug_loc     0x000000000000795e      0x2ab /usr/local/xenon/usr/lib/libxenon.a(dir_rb.o)
 .debug_loc     0x0000000000007c09      0xc1b /usr/local/xenon/usr/lib/libxenon.a(iso9660.o)
 .debug_loc     0x0000000000008824      0x1a5 /usr/local/xenon/usr/lib/libxenon.a(lib_queue.o)
 .debug_loc     0x00000000000089c9      0x132 /usr/local/xenon/usr/lib/libxenon.a(usbctrl.o)
 .debug_loc     0x0000000000008afb      0x2ee /usr/local/xenon/usr/lib/libxenon.a(usbdebug.o)
 .debug_loc     0x0000000000008de9      0x2a2 /usr/local/xenon/usr/lib/libxenon.a(unicode_rb.o)
 .debug_loc     0x000000000000908b      0x53e /usr/local/xenon/usr/lib/libxenon.a(xenon_sfcx.o)
 .debug_loc     0x00000000000095c9      0x349 /usr/local/xenon/usr/lib/libxenon.a(disk_rb.o)
 .debug_loc     0x0000000000009912       0xea /usr/local/xenon/usr/lib/libxenon.a(input.o)
 .debug_loc     0x00000000000099fc       0xfa /usr/local/xenon/xenon/lib/32/libc.a(lib_a-assert.o)
 .debug_loc     0x0000000000009af6       0x61 /usr/local/xenon/xenon/lib/32/libc.a(lib_a-atoi.o)
 .debug_loc     0x0000000000009b57       0x14 /usr/local/xenon/xenon/lib/32/libc.a(lib_a-errno.o)
 .debug_loc     0x0000000000009b6b       0x32 /usr/local/xenon/xenon/lib/32/libc.a(lib_a-exit.o)
 .debug_loc     0x0000000000009b9d       0x94 /usr/local/xenon/xenon/lib/32/libc.a(lib_a-fiprintf.o)
 .debug_loc     0x0000000000009c31       0x64 /usr/local/xenon/xenon/lib/32/libc.a(lib_a-malloc.o)
 .debug_loc     0x0000000000009c95      0x88f /usr/local/xenon/xenon/lib/32/libc.a(lib_a-mallocr.o)
 .debug_loc     0x000000000000a524       0xd6 /usr/local/xenon/xenon/lib/32/libc.a(lib_a-memchr.o)
 .debug_loc     0x000000000000a5fa       0x79 /usr/local/xenon/xenon/lib/32/libc.a(lib_a-memcmp.o)
 .debug_loc     0x000000000000a673       0xf2 /usr/local/xenon/xenon/lib/32/libc.a(lib_a-memcpy.o)
 .debug_loc     0x000000000000a765      0x108 /usr/local/xenon/xenon/lib/32/libc.a(lib_a-memset.o)
 .debug_loc     0x000000000000a86d       0x8c /usr/local/xenon/xenon/lib/32/libc.a(lib_a-printf.o)
 .debug_loc     0x000000000000a8f9       0x6c /usr/local/xenon/xenon/lib/32/libc.a(lib_a-putchar.o)
 .debug_loc     0x000000000000a965      0x15d /usr/local/xenon/xenon/lib/32/libc.a(lib_a-putc.o)
 .debug_loc     0x000000000000aac2       0x96 /usr/local/xenon/xenon/lib/32/libc.a(lib_a-puts.o)
 .debug_loc     0x000000000000ab58       0x6e /usr/local/xenon/xenon/lib/32/libc.a(lib_a-sbrkr.o)
 .debug_loc     0x000000000000abc6      0x211 /usr/local/xenon/xenon/lib/32/libc.a(lib_a-snprintf.o)
 .debug_loc     0x000000000000add7       0xaa /usr/local/xenon/xenon/lib/32/libc.a(lib_a-sprintf.o)
 .debug_loc     0x000000000000ae81       0xd6 /usr/local/xenon/xenon/lib/32/libc.a(lib_a-strcasecmp.o)
 .debug_loc     0x000000000000af57       0x6e /usr/local/xenon/xenon/lib/32/libc.a(lib_a-strcat.o)
 .debug_loc     0x000000000000afc5       0xc0 /usr/local/xenon/xenon/lib/32/libc.a(lib_a-strchr.o)
 .debug_loc     0x000000000000b085       0x6e /usr/local/xenon/xenon/lib/32/libc.a(lib_a-strcmp.o)
 .debug_loc     0x000000000000b0f3       0x5b /usr/local/xenon/xenon/lib/32/libc.a(lib_a-strcpy.o)
 .debug_loc     0x000000000000b14e       0xcd /usr/local/xenon/xenon/lib/32/libc.a(lib_a-strlcpy.o)
 .debug_loc     0x000000000000b21b       0x3d /usr/local/xenon/xenon/lib/32/libc.a(lib_a-strlen.o)
 .debug_loc     0x000000000000b258       0xa2 /usr/local/xenon/xenon/lib/32/libc.a(lib_a-strncasecmp.o)
 .debug_loc     0x000000000000b2fa      0x110 /usr/local/xenon/xenon/lib/32/libc.a(lib_a-strncmp.o)
 .debug_loc     0x000000000000b40a      0x10b /usr/local/xenon/xenon/lib/32/libc.a(lib_a-strncpy.o)
 .debug_loc     0x000000000000b515       0xb0 /usr/local/xenon/xenon/lib/32/libc.a(lib_a-strrchr.o)
 .debug_loc     0x000000000000b5c5      0x15a /usr/local/xenon/xenon/lib/32/libc.a(lib_a-strtok_r.o)
 .debug_loc     0x000000000000b71f      0x25c /usr/local/xenon/xenon/lib/32/libc.a(lib_a-strtol.o)
 .debug_loc     0x000000000000b97b     0x1916 /usr/local/xenon/xenon/lib/32/libc.a(lib_a-svfprintf.o)
 .debug_loc     0x000000000000d291      0xf7a /usr/local/xenon/xenon/lib/32/libc.a(lib_a-vfiprintf.o)
 .debug_loc     0x000000000000e20b     0x18e3 /usr/local/xenon/xenon/lib/32/libc.a(lib_a-vfprintf.o)
 .debug_loc     0x000000000000faee      0x108 /usr/local/xenon/xenon/lib/32/libc.a(lib_a-wbuf.o)
 .debug_loc     0x000000000000fbf6       0x71 /usr/local/xenon/xenon/lib/32/libc.a(lib_a-wsetup.o)
 .debug_loc     0x000000000000fc67       0x14 /usr/local/xenon/xenon/lib/32/libc.a(lib_a-abort.o)
 .debug_loc     0x000000000000fc7b      0x181 /usr/local/xenon/xenon/lib/32/libc.a(lib_a-__call_atexit.o)
 .debug_loc     0x000000000000fdfc     0x1544 /usr/local/xenon/xenon/lib/32/libc.a(lib_a-dtoa.o)
 .debug_loc     0x0000000000011340      0x1c8 /usr/local/xenon/xenon/lib/32/libc.a(lib_a-fflush.o)
 .debug_loc     0x0000000000011508      0x280 /usr/local/xenon/xenon/lib/32/libc.a(lib_a-findfp.o)
 .debug_loc     0x0000000000011788      0x3aa /usr/local/xenon/xenon/lib/32/libc.a(lib_a-freer.o)
 .debug_loc     0x0000000000011b32      0x3a3 /usr/local/xenon/xenon/lib/32/libc.a(lib_a-fvwrite.o)
 .debug_loc     0x0000000000011ed5      0x122 /usr/local/xenon/xenon/lib/32/libc.a(lib_a-fwalk.o)
 .debug_loc     0x0000000000011ff7      0x15a /usr/local/xenon/xenon/lib/32/libc.a(lib_a-locale.o)
 .debug_loc     0x0000000000012151      0x13a /usr/local/xenon/xenon/lib/32/libc.a(lib_a-makebuf.o)
 .debug_loc     0x000000000001228b      0x155 /usr/local/xenon/xenon/lib/32/libc.a(lib_a-memmove.o)
 .debug_loc     0x00000000000123e0     0x12ec /usr/local/xenon/xenon/lib/32/libc.a(lib_a-mprec.o)
 .debug_loc     0x00000000000136cc      0x7ac /usr/local/xenon/xenon/lib/32/libc.a(lib_a-reallocr.o)
 .debug_loc     0x0000000000013e78      0x137 /usr/local/xenon/xenon/lib/32/libc.a(lib_a-reent.o)
 .debug_loc     0x0000000000013faf      0x31d /usr/local/xenon/xenon/lib/32/libc.a(lib_a-signal.o)
 .debug_loc     0x00000000000142cc       0xa8 /usr/local/xenon/xenon/lib/32/libc.a(lib_a-signalr.o)
 .debug_loc     0x0000000000014374       0x53 /usr/local/xenon/xenon/lib/32/libc.a(lib_a-s_isinfd.o)
 .debug_loc     0x00000000000143c7       0x28 /usr/local/xenon/xenon/lib/32/libc.a(lib_a-s_isnand.o)
 .debug_loc     0x00000000000143ef      0x1ee /usr/local/xenon/xenon/lib/32/libc.a(lib_a-stdio.o)
 .debug_loc     0x00000000000145dd       0x94 /usr/local/xenon/xenon/lib/32/libc.a(lib_a-writer.o)
 .debug_loc     0x0000000000014671       0xe9 /usr/local/xenon/xenon/lib/32/libc.a(lib_a-callocr.o)
 .debug_loc     0x000000000001475a       0x6e /usr/local/xenon/xenon/lib/32/libc.a(lib_a-closer.o)
 .debug_loc     0x00000000000147c8       0xe2 /usr/local/xenon/xenon/lib/32/libc.a(lib_a-fclose.o)
 .debug_loc     0x00000000000148aa       0x81 /usr/local/xenon/xenon/lib/32/libc.a(lib_a-fstatr.o)
 .debug_loc     0x000000000001492b       0x6e /usr/local/xenon/xenon/lib/32/libc.a(lib_a-isattyr.o)
 .debug_loc     0x0000000000014999       0x94 /usr/local/xenon/xenon/lib/32/libc.a(lib_a-lseekr.o)
 .debug_loc     0x0000000000014a2d       0x94 /usr/local/xenon/xenon/lib/32/libc.a(lib_a-readr.o)

.debug_pubnames
                0x0000000000000000     0x23b9
 .debug_pubnames
                0x0000000000000000       0x21 /usr/local/xenon/lib/gcc/xenon/4.4.0/../../../../xenon/lib/../lib/crt1.o
 .debug_pubnames
                0x0000000000000021       0x44 main.o
 .debug_pubnames
                0x0000000000000065       0xa8 /usr/local/xenon/usr/lib/libxenon.a(console.o)
 .debug_pubnames
                0x000000000000010d      0x166 /usr/local/xenon/usr/lib/libxenon.a(newlib.o)
 .debug_pubnames
                0x0000000000000273       0x94 /usr/local/xenon/usr/lib/libxenon.a(lib_malloc.o)
 .debug_pubnames
                0x0000000000000307       0x20 /usr/local/xenon/usr/lib/libxenon.a(vm.o)
 .debug_pubnames
                0x0000000000000327       0x60 /usr/local/xenon/usr/lib/libxenon.a(usbmain.o)
 .debug_pubnames
                0x0000000000000387       0x30 /usr/local/xenon/usr/lib/libxenon.a(xenon_uart.o)
 .debug_pubnames
                0x00000000000003b7      0x20a /usr/local/xenon/usr/lib/libxenon.a(xenos.o)
 .debug_pubnames
                0x00000000000005c1       0x42 /usr/local/xenon/usr/lib/libxenon.a(io.o)
 .debug_pubnames
                0x0000000000000603       0x32 /usr/local/xenon/usr/lib/libxenon.a(time.o)
 .debug_pubnames
                0x0000000000000635       0x30 /usr/local/xenon/usr/lib/libxenon.a(ohci.o)
 .debug_pubnames
                0x0000000000000665      0x2bf /usr/local/xenon/usr/lib/libxenon.a(usbd.o)
 .debug_pubnames
                0x0000000000000924       0x36 /usr/local/xenon/usr/lib/libxenon.a(usbdevs.o)
 .debug_pubnames
                0x000000000000095a       0x24 /usr/local/xenon/usr/lib/libxenon.a(usbhid.o)
 .debug_pubnames
                0x000000000000097e       0x89 /usr/local/xenon/usr/lib/libxenon.a(usbhub.o)
 .debug_pubnames
                0x0000000000000a07       0xa2 /usr/local/xenon/usr/lib/libxenon.a(usbmass.o)
 .debug_pubnames
                0x0000000000000aa9       0x52 /usr/local/xenon/usr/lib/libxenon.a(xenon_gpio.o)
 .debug_pubnames
                0x0000000000000afb      0x19f /usr/local/xenon/usr/lib/libxenon.a(xenon_smc.o)
 .debug_pubnames
                0x0000000000000c9a       0x98 /usr/local/xenon/usr/lib/libxenon.a(xenon_config.o)
 .debug_pubnames
                0x0000000000000d32       0x91 /usr/local/xenon/usr/lib/libxenon.a(diskio.o)
 .debug_pubnames
                0x0000000000000dc3       0xed /usr/local/xenon/usr/lib/libxenon.a(fat.o)
 .debug_pubnames
                0x0000000000000eb0      0x16a /usr/local/xenon/usr/lib/libxenon.a(fat_rb.o)
 .debug_pubnames
                0x000000000000101a       0xad /usr/local/xenon/usr/lib/libxenon.a(file_rb.o)
 .debug_pubnames
                0x00000000000010c7       0x6b /usr/local/xenon/usr/lib/libxenon.a(dir_rb.o)
 .debug_pubnames
                0x0000000000001132      0x15b /usr/local/xenon/usr/lib/libxenon.a(iso9660.o)
 .debug_pubnames
                0x000000000000128d       0x5d /usr/local/xenon/usr/lib/libxenon.a(lib_queue.o)
 .debug_pubnames
                0x00000000000012ea       0x25 /usr/local/xenon/usr/lib/libxenon.a(usbctrl.o)
 .debug_pubnames
                0x000000000000130f       0x90 /usr/local/xenon/usr/lib/libxenon.a(usbdebug.o)
 .debug_pubnames
                0x000000000000139f       0x70 /usr/local/xenon/usr/lib/libxenon.a(unicode_rb.o)
 .debug_pubnames
                0x000000000000140f      0x1a1 /usr/local/xenon/usr/lib/libxenon.a(xenon_sfcx.o)
 .debug_pubnames
                0x00000000000015b0       0x85 /usr/local/xenon/usr/lib/libxenon.a(disk_rb.o)
 .debug_pubnames
                0x0000000000001635       0x42 /usr/local/xenon/usr/lib/libxenon.a(input.o)
 .debug_pubnames
                0x0000000000001677       0x31 /usr/local/xenon/xenon/lib/32/libc.a(lib_a-assert.o)
 .debug_pubnames
                0x00000000000016a8       0x27 /usr/local/xenon/xenon/lib/32/libc.a(lib_a-atoi.o)
 .debug_pubnames
                0x00000000000016cf       0x40 /usr/local/xenon/xenon/lib/32/libc.a(lib_a-ctype_.o)
 .debug_pubnames
                0x000000000000170f       0x1e /usr/local/xenon/xenon/lib/32/libc.a(lib_a-errno.o)
 .debug_pubnames
                0x000000000000172d       0x1b /usr/local/xenon/xenon/lib/32/libc.a(lib_a-exit.o)
 .debug_pubnames
                0x0000000000001748       0x2f /usr/local/xenon/xenon/lib/32/libc.a(lib_a-fiprintf.o)
 .debug_pubnames
                0x0000000000001777       0x39 /usr/local/xenon/xenon/lib/32/libc.a(lib_a-impure.o)
 .debug_pubnames
                0x00000000000017b0       0x26 /usr/local/xenon/xenon/lib/32/libc.a(lib_a-malloc.o)
 .debug_pubnames
                0x00000000000017d6       0xce /usr/local/xenon/xenon/lib/32/libc.a(lib_a-mallocr.o)
 .debug_pubnames
                0x00000000000018a4       0x1d /usr/local/xenon/xenon/lib/32/libc.a(lib_a-memchr.o)
 .debug_pubnames
                0x00000000000018c1       0x1d /usr/local/xenon/xenon/lib/32/libc.a(lib_a-memcmp.o)
 .debug_pubnames
                0x00000000000018de       0x1d /usr/local/xenon/xenon/lib/32/libc.a(lib_a-memcpy.o)
 .debug_pubnames
                0x00000000000018fb       0x1d /usr/local/xenon/xenon/lib/32/libc.a(lib_a-memset.o)
 .debug_pubnames
                0x0000000000001918       0x38 /usr/local/xenon/xenon/lib/32/libc.a(lib_a-mlock.o)
 .debug_pubnames
                0x0000000000001950       0x2b /usr/local/xenon/xenon/lib/32/libc.a(lib_a-printf.o)
 .debug_pubnames
                0x000000000000197b       0x2d /usr/local/xenon/xenon/lib/32/libc.a(lib_a-putchar.o)
 .debug_pubnames
                0x00000000000019a8       0x27 /usr/local/xenon/xenon/lib/32/libc.a(lib_a-putc.o)
 .debug_pubnames
                0x00000000000019cf       0x27 /usr/local/xenon/xenon/lib/32/libc.a(lib_a-puts.o)
 .debug_pubnames
                0x00000000000019f6       0x1e /usr/local/xenon/xenon/lib/32/libc.a(lib_a-sbrkr.o)
 .debug_pubnames
                0x0000000000001a14       0x2f /usr/local/xenon/xenon/lib/32/libc.a(lib_a-snprintf.o)
 .debug_pubnames
                0x0000000000001a43       0x2d /usr/local/xenon/xenon/lib/32/libc.a(lib_a-sprintf.o)
 .debug_pubnames
                0x0000000000001a70       0x21 /usr/local/xenon/xenon/lib/32/libc.a(lib_a-strcasecmp.o)
 .debug_pubnames
                0x0000000000001a91       0x1d /usr/local/xenon/xenon/lib/32/libc.a(lib_a-strcat.o)
 .debug_pubnames
                0x0000000000001aae       0x1d /usr/local/xenon/xenon/lib/32/libc.a(lib_a-strchr.o)
 .debug_pubnames
                0x0000000000001acb       0x1d /usr/local/xenon/xenon/lib/32/libc.a(lib_a-strcmp.o)
 .debug_pubnames
                0x0000000000001ae8       0x1d /usr/local/xenon/xenon/lib/32/libc.a(lib_a-strcpy.o)
 .debug_pubnames
                0x0000000000001b05       0x1e /usr/local/xenon/xenon/lib/32/libc.a(lib_a-strlcpy.o)
 .debug_pubnames
                0x0000000000001b23       0x1d /usr/local/xenon/xenon/lib/32/libc.a(lib_a-strlen.o)
 .debug_pubnames
                0x0000000000001b40       0x22 /usr/local/xenon/xenon/lib/32/libc.a(lib_a-strncasecmp.o)
 .debug_pubnames
                0x0000000000001b62       0x1e /usr/local/xenon/xenon/lib/32/libc.a(lib_a-strncmp.o)
 .debug_pubnames
                0x0000000000001b80       0x1e /usr/local/xenon/xenon/lib/32/libc.a(lib_a-strncpy.o)
 .debug_pubnames
                0x0000000000001b9e       0x1e /usr/local/xenon/xenon/lib/32/libc.a(lib_a-strrchr.o)
 .debug_pubnames
                0x0000000000001bbc       0x2e /usr/local/xenon/xenon/lib/32/libc.a(lib_a-strtok_r.o)
 .debug_pubnames
                0x0000000000001bea       0x2b /usr/local/xenon/xenon/lib/32/libc.a(lib_a-strtol.o)
 .debug_pubnames
                0x0000000000001c15       0x23 /usr/local/xenon/xenon/lib/32/libc.a(lib_a-svfprintf.o)
 .debug_pubnames
                0x0000000000001c38       0x31 /usr/local/xenon/xenon/lib/32/libc.a(lib_a-vfiprintf.o)
 .debug_pubnames
                0x0000000000001c69       0x2f /usr/local/xenon/xenon/lib/32/libc.a(lib_a-vfprintf.o)
 .debug_pubnames
                0x0000000000001c98       0x2c /usr/local/xenon/xenon/lib/32/libc.a(lib_a-wbuf.o)
 .debug_pubnames
                0x0000000000001cc4       0x22 /usr/local/xenon/xenon/lib/32/libc.a(lib_a-wsetup.o)
 .debug_pubnames
                0x0000000000001ce6       0x1c /usr/local/xenon/xenon/lib/32/libc.a(lib_a-abort.o)
 .debug_pubnames
                0x0000000000001d02       0x27 /usr/local/xenon/xenon/lib/32/libc.a(lib_a-__call_atexit.o)
 .debug_pubnames
                0x0000000000001d29       0x1e /usr/local/xenon/xenon/lib/32/libc.a(lib_a-dtoa.o)
 .debug_pubnames
                0x0000000000001d47       0x2b /usr/local/xenon/xenon/lib/32/libc.a(lib_a-fflush.o)
 .debug_pubnames
                0x0000000000001d72       0xdb /usr/local/xenon/xenon/lib/32/libc.a(lib_a-findfp.o)
 .debug_pubnames
                0x0000000000001e4d       0x31 /usr/local/xenon/xenon/lib/32/libc.a(lib_a-freer.o)
 .debug_pubnames
                0x0000000000001e7e       0x23 /usr/local/xenon/xenon/lib/32/libc.a(lib_a-fvwrite.o)
 .debug_pubnames
                0x0000000000001ea1       0x2e /usr/local/xenon/xenon/lib/32/libc.a(lib_a-fwalk.o)
 .debug_pubnames
                0x0000000000001ecf       0xc3 /usr/local/xenon/xenon/lib/32/libc.a(lib_a-locale.o)
 .debug_pubnames
                0x0000000000001f92       0x23 /usr/local/xenon/xenon/lib/32/libc.a(lib_a-makebuf.o)
 .debug_pubnames
                0x0000000000001fb5       0x1e /usr/local/xenon/xenon/lib/32/libc.a(lib_a-memmove.o)
 .debug_pubnames
                0x0000000000001fd3      0x13a /usr/local/xenon/xenon/lib/32/libc.a(lib_a-mprec.o)
 .debug_pubnames
                0x000000000000210d       0x21 /usr/local/xenon/xenon/lib/32/libc.a(lib_a-reallocr.o)
 .debug_pubnames
                0x000000000000212e       0x52 /usr/local/xenon/xenon/lib/32/libc.a(lib_a-reent.o)
 .debug_pubnames
                0x0000000000002180       0x86 /usr/local/xenon/xenon/lib/32/libc.a(lib_a-signal.o)
 .debug_pubnames
                0x0000000000002206       0x2c /usr/local/xenon/xenon/lib/32/libc.a(lib_a-signalr.o)
 .debug_pubnames
                0x0000000000002232       0x1f /usr/local/xenon/xenon/lib/32/libc.a(lib_a-s_isinfd.o)
 .debug_pubnames
                0x0000000000002251       0x1f /usr/local/xenon/xenon/lib/32/libc.a(lib_a-s_isnand.o)
 .debug_pubnames
                0x0000000000002270       0x44 /usr/local/xenon/xenon/lib/32/libc.a(lib_a-stdio.o)
 .debug_pubnames
                0x00000000000022b4       0x1f /usr/local/xenon/xenon/lib/32/libc.a(lib_a-writer.o)
 .debug_pubnames
                0x00000000000022d3       0x20 /usr/local/xenon/xenon/lib/32/libc.a(lib_a-callocr.o)
 .debug_pubnames
                0x00000000000022f3       0x1f /usr/local/xenon/xenon/lib/32/libc.a(lib_a-closer.o)
 .debug_pubnames
                0x0000000000002312       0x2b /usr/local/xenon/xenon/lib/32/libc.a(lib_a-fclose.o)
 .debug_pubnames
                0x000000000000233d       0x1f /usr/local/xenon/xenon/lib/32/libc.a(lib_a-fstatr.o)
 .debug_pubnames
                0x000000000000235c       0x20 /usr/local/xenon/xenon/lib/32/libc.a(lib_a-isattyr.o)
 .debug_pubnames
                0x000000000000237c       0x1f /usr/local/xenon/xenon/lib/32/libc.a(lib_a-lseekr.o)
 .debug_pubnames
                0x000000000000239b       0x1e /usr/local/xenon/xenon/lib/32/libc.a(lib_a-readr.o)

.debug_aranges  0x0000000000000000     0x1450
 .debug_aranges
                0x0000000000000000       0x20 /usr/local/xenon/lib/gcc/xenon/4.4.0/../../../../xenon/lib/../lib/crt1.o
 .debug_aranges
                0x0000000000000020       0x38 main.o
 .debug_aranges
                0x0000000000000058       0x58 /usr/local/xenon/usr/lib/libxenon.a(console.o)
 .debug_aranges
                0x00000000000000b0       0xc0 /usr/local/xenon/usr/lib/libxenon.a(newlib.o)
 .debug_aranges
                0x0000000000000170       0x58 /usr/local/xenon/usr/lib/libxenon.a(lib_malloc.o)
 .debug_aranges
                0x00000000000001c8       0x30 /usr/local/xenon/usr/lib/libxenon.a(usbmain.o)
 .debug_aranges
                0x00000000000001f8       0x30 /usr/local/xenon/usr/lib/libxenon.a(xenon_uart.o)
 .debug_aranges
                0x0000000000000228       0x80 /usr/local/xenon/usr/lib/libxenon.a(xenos.o)
 .debug_aranges
                0x00000000000002a8       0x38 /usr/local/xenon/usr/lib/libxenon.a(io.o)
 .debug_aranges
                0x00000000000002e0       0x30 /usr/local/xenon/usr/lib/libxenon.a(time.o)
 .debug_aranges
                0x0000000000000310       0x98 /usr/local/xenon/usr/lib/libxenon.a(ohci.o)
 .debug_aranges
                0x00000000000003a8      0x110 /usr/local/xenon/usr/lib/libxenon.a(usbd.o)
 .debug_aranges
                0x00000000000004b8       0x20 /usr/local/xenon/usr/lib/libxenon.a(usbdevs.o)
 .debug_aranges
                0x00000000000004d8       0x38 /usr/local/xenon/usr/lib/libxenon.a(usbhid.o)
 .debug_aranges
                0x0000000000000510       0x78 /usr/local/xenon/usr/lib/libxenon.a(usbhub.o)
 .debug_aranges
                0x0000000000000588       0x50 /usr/local/xenon/usr/lib/libxenon.a(usbmass.o)
 .debug_aranges
                0x00000000000005d8       0x30 /usr/local/xenon/usr/lib/libxenon.a(xenon_gpio.o)
 .debug_aranges
                0x0000000000000608       0x90 /usr/local/xenon/usr/lib/libxenon.a(xenon_smc.o)
 .debug_aranges
                0x0000000000000698       0x38 /usr/local/xenon/usr/lib/libxenon.a(xenon_config.o)
 .debug_aranges
                0x00000000000006d0       0x48 /usr/local/xenon/usr/lib/libxenon.a(diskio.o)
 .debug_aranges
                0x0000000000000718       0x68 /usr/local/xenon/usr/lib/libxenon.a(fat.o)
 .debug_aranges
                0x0000000000000780      0x138 /usr/local/xenon/usr/lib/libxenon.a(fat_rb.o)
 .debug_aranges
                0x00000000000008b8       0x88 /usr/local/xenon/usr/lib/libxenon.a(file_rb.o)
 .debug_aranges
                0x0000000000000940       0x48 /usr/local/xenon/usr/lib/libxenon.a(dir_rb.o)
 .debug_aranges
                0x0000000000000988       0xa8 /usr/local/xenon/usr/lib/libxenon.a(iso9660.o)
 .debug_aranges
                0x0000000000000a30       0x48 /usr/local/xenon/usr/lib/libxenon.a(lib_queue.o)
 .debug_aranges
                0x0000000000000a78       0x30 /usr/local/xenon/usr/lib/libxenon.a(usbctrl.o)
 .debug_aranges
                0x0000000000000aa8       0x48 /usr/local/xenon/usr/lib/libxenon.a(usbdebug.o)
 .debug_aranges
                0x0000000000000af0       0x48 /usr/local/xenon/usr/lib/libxenon.a(unicode_rb.o)
 .debug_aranges
                0x0000000000000b38       0xa8 /usr/local/xenon/usr/lib/libxenon.a(xenon_sfcx.o)
 .debug_aranges
                0x0000000000000be0       0x48 /usr/local/xenon/usr/lib/libxenon.a(disk_rb.o)
 .debug_aranges
                0x0000000000000c28       0x28 /usr/local/xenon/usr/lib/libxenon.a(input.o)
 .debug_aranges
                0x0000000000000c50       0x20 /usr/local/xenon/xenon/lib/32/libc.a(lib_a-assert.o)
 .debug_aranges
                0x0000000000000c70       0x20 /usr/local/xenon/xenon/lib/32/libc.a(lib_a-atoi.o)
 .debug_aranges
                0x0000000000000c90       0x20 /usr/local/xenon/xenon/lib/32/libc.a(lib_a-errno.o)
 .debug_aranges
                0x0000000000000cb0       0x20 /usr/local/xenon/xenon/lib/32/libc.a(lib_a-exit.o)
 .debug_aranges
                0x0000000000000cd0       0x20 /usr/local/xenon/xenon/lib/32/libc.a(lib_a-fiprintf.o)
 .debug_aranges
                0x0000000000000cf0       0x20 /usr/local/xenon/xenon/lib/32/libc.a(lib_a-malloc.o)
 .debug_aranges
                0x0000000000000d10       0x20 /usr/local/xenon/xenon/lib/32/libc.a(lib_a-mallocr.o)
 .debug_aranges
                0x0000000000000d30       0x20 /usr/local/xenon/xenon/lib/32/libc.a(lib_a-memchr.o)
 .debug_aranges
                0x0000000000000d50       0x20 /usr/local/xenon/xenon/lib/32/libc.a(lib_a-memcmp.o)
 .debug_aranges
                0x0000000000000d70       0x20 /usr/local/xenon/xenon/lib/32/libc.a(lib_a-memcpy.o)
 .debug_aranges
                0x0000000000000d90       0x20 /usr/local/xenon/xenon/lib/32/libc.a(lib_a-memset.o)
 .debug_aranges
                0x0000000000000db0       0x20 /usr/local/xenon/xenon/lib/32/libc.a(lib_a-mlock.o)
 .debug_aranges
                0x0000000000000dd0       0x20 /usr/local/xenon/xenon/lib/32/libc.a(lib_a-printf.o)
 .debug_aranges
                0x0000000000000df0       0x20 /usr/local/xenon/xenon/lib/32/libc.a(lib_a-putchar.o)
 .debug_aranges
                0x0000000000000e10       0x20 /usr/local/xenon/xenon/lib/32/libc.a(lib_a-putc.o)
 .debug_aranges
                0x0000000000000e30       0x20 /usr/local/xenon/xenon/lib/32/libc.a(lib_a-puts.o)
 .debug_aranges
                0x0000000000000e50       0x20 /usr/local/xenon/xenon/lib/32/libc.a(lib_a-sbrkr.o)
 .debug_aranges
                0x0000000000000e70       0x20 /usr/local/xenon/xenon/lib/32/libc.a(lib_a-snprintf.o)
 .debug_aranges
                0x0000000000000e90       0x20 /usr/local/xenon/xenon/lib/32/libc.a(lib_a-sprintf.o)
 .debug_aranges
                0x0000000000000eb0       0x20 /usr/local/xenon/xenon/lib/32/libc.a(lib_a-strcasecmp.o)
 .debug_aranges
                0x0000000000000ed0       0x20 /usr/local/xenon/xenon/lib/32/libc.a(lib_a-strcat.o)
 .debug_aranges
                0x0000000000000ef0       0x20 /usr/local/xenon/xenon/lib/32/libc.a(lib_a-strchr.o)
 .debug_aranges
                0x0000000000000f10       0x20 /usr/local/xenon/xenon/lib/32/libc.a(lib_a-strcmp.o)
 .debug_aranges
                0x0000000000000f30       0x20 /usr/local/xenon/xenon/lib/32/libc.a(lib_a-strcpy.o)
 .debug_aranges
                0x0000000000000f50       0x20 /usr/local/xenon/xenon/lib/32/libc.a(lib_a-strlcpy.o)
 .debug_aranges
                0x0000000000000f70       0x20 /usr/local/xenon/xenon/lib/32/libc.a(lib_a-strlen.o)
 .debug_aranges
                0x0000000000000f90       0x20 /usr/local/xenon/xenon/lib/32/libc.a(lib_a-strncasecmp.o)
 .debug_aranges
                0x0000000000000fb0       0x20 /usr/local/xenon/xenon/lib/32/libc.a(lib_a-strncmp.o)
 .debug_aranges
                0x0000000000000fd0       0x20 /usr/local/xenon/xenon/lib/32/libc.a(lib_a-strncpy.o)
 .debug_aranges
                0x0000000000000ff0       0x20 /usr/local/xenon/xenon/lib/32/libc.a(lib_a-strrchr.o)
 .debug_aranges
                0x0000000000001010       0x20 /usr/local/xenon/xenon/lib/32/libc.a(lib_a-strtok_r.o)
 .debug_aranges
                0x0000000000001030       0x20 /usr/local/xenon/xenon/lib/32/libc.a(lib_a-strtol.o)
 .debug_aranges
                0x0000000000001050       0x20 /usr/local/xenon/xenon/lib/32/libc.a(lib_a-svfprintf.o)
 .debug_aranges
                0x0000000000001070       0x20 /usr/local/xenon/xenon/lib/32/libc.a(lib_a-vfiprintf.o)
 .debug_aranges
                0x0000000000001090       0x20 /usr/local/xenon/xenon/lib/32/libc.a(lib_a-vfprintf.o)
 .debug_aranges
                0x00000000000010b0       0x20 /usr/local/xenon/xenon/lib/32/libc.a(lib_a-wbuf.o)
 .debug_aranges
                0x00000000000010d0       0x20 /usr/local/xenon/xenon/lib/32/libc.a(lib_a-wsetup.o)
 .debug_aranges
                0x00000000000010f0       0x20 /usr/local/xenon/xenon/lib/32/libc.a(lib_a-abort.o)
 .debug_aranges
                0x0000000000001110       0x20 /usr/local/xenon/xenon/lib/32/libc.a(lib_a-__call_atexit.o)
 .debug_aranges
                0x0000000000001130       0x20 /usr/local/xenon/xenon/lib/32/libc.a(lib_a-dtoa.o)
 .debug_aranges
                0x0000000000001150       0x20 /usr/local/xenon/xenon/lib/32/libc.a(lib_a-fflush.o)
 .debug_aranges
                0x0000000000001170       0x20 /usr/local/xenon/xenon/lib/32/libc.a(lib_a-findfp.o)
 .debug_aranges
                0x0000000000001190       0x20 /usr/local/xenon/xenon/lib/32/libc.a(lib_a-freer.o)
 .debug_aranges
                0x00000000000011b0       0x20 /usr/local/xenon/xenon/lib/32/libc.a(lib_a-fvwrite.o)
 .debug_aranges
                0x00000000000011d0       0x20 /usr/local/xenon/xenon/lib/32/libc.a(lib_a-fwalk.o)
 .debug_aranges
                0x00000000000011f0       0x20 /usr/local/xenon/xenon/lib/32/libc.a(lib_a-locale.o)
 .debug_aranges
                0x0000000000001210       0x20 /usr/local/xenon/xenon/lib/32/libc.a(lib_a-makebuf.o)
 .debug_aranges
                0x0000000000001230       0x20 /usr/local/xenon/xenon/lib/32/libc.a(lib_a-memmove.o)
 .debug_aranges
                0x0000000000001250       0x20 /usr/local/xenon/xenon/lib/32/libc.a(lib_a-mprec.o)
 .debug_aranges
                0x0000000000001270       0x20 /usr/local/xenon/xenon/lib/32/libc.a(lib_a-reallocr.o)
 .debug_aranges
                0x0000000000001290       0x20 /usr/local/xenon/xenon/lib/32/libc.a(lib_a-reent.o)
 .debug_aranges
                0x00000000000012b0       0x20 /usr/local/xenon/xenon/lib/32/libc.a(lib_a-signal.o)
 .debug_aranges
                0x00000000000012d0       0x20 /usr/local/xenon/xenon/lib/32/libc.a(lib_a-signalr.o)
 .debug_aranges
                0x00000000000012f0       0x20 /usr/local/xenon/xenon/lib/32/libc.a(lib_a-s_isinfd.o)
 .debug_aranges
                0x0000000000001310       0x20 /usr/local/xenon/xenon/lib/32/libc.a(lib_a-s_isnand.o)
 .debug_aranges
                0x0000000000001330       0x20 /usr/local/xenon/xenon/lib/32/libc.a(lib_a-stdio.o)
 .debug_aranges
                0x0000000000001350       0x20 /usr/local/xenon/xenon/lib/32/libc.a(lib_a-writer.o)
 .debug_aranges
                0x0000000000001370       0x20 /usr/local/xenon/xenon/lib/32/libc.a(lib_a-callocr.o)
 .debug_aranges
                0x0000000000001390       0x20 /usr/local/xenon/xenon/lib/32/libc.a(lib_a-closer.o)
 .debug_aranges
                0x00000000000013b0       0x20 /usr/local/xenon/xenon/lib/32/libc.a(lib_a-fclose.o)
 .debug_aranges
                0x00000000000013d0       0x20 /usr/local/xenon/xenon/lib/32/libc.a(lib_a-fstatr.o)
 .debug_aranges
                0x00000000000013f0       0x20 /usr/local/xenon/xenon/lib/32/libc.a(lib_a-isattyr.o)
 .debug_aranges
                0x0000000000001410       0x20 /usr/local/xenon/xenon/lib/32/libc.a(lib_a-lseekr.o)
 .debug_aranges
                0x0000000000001430       0x20 /usr/local/xenon/xenon/lib/32/libc.a(lib_a-readr.o)

.debug_ranges   0x0000000000000000     0x22b0
 .debug_ranges  0x0000000000000000       0x18 /usr/local/xenon/lib/gcc/xenon/4.4.0/../../../../xenon/lib/../lib/crt1.o
 .debug_ranges  0x0000000000000018       0x30 main.o
 .debug_ranges  0x0000000000000048      0x130 /usr/local/xenon/usr/lib/libxenon.a(console.o)
 .debug_ranges  0x0000000000000178      0x1a8 /usr/local/xenon/usr/lib/libxenon.a(newlib.o)
 .debug_ranges  0x0000000000000320       0xa0 /usr/local/xenon/usr/lib/libxenon.a(lib_malloc.o)
 .debug_ranges  0x00000000000003c0       0x28 /usr/local/xenon/usr/lib/libxenon.a(usbmain.o)
 .debug_ranges  0x00000000000003e8       0x28 /usr/local/xenon/usr/lib/libxenon.a(xenon_uart.o)
 .debug_ranges  0x0000000000000410       0xc8 /usr/local/xenon/usr/lib/libxenon.a(xenos.o)
 .debug_ranges  0x00000000000004d8       0x30 /usr/local/xenon/usr/lib/libxenon.a(io.o)
 .debug_ranges  0x0000000000000508       0xe8 /usr/local/xenon/usr/lib/libxenon.a(time.o)
 .debug_ranges  0x00000000000005f0      0x4a0 /usr/local/xenon/usr/lib/libxenon.a(ohci.o)
 .debug_ranges  0x0000000000000a90      0x120 /usr/local/xenon/usr/lib/libxenon.a(usbd.o)
 .debug_ranges  0x0000000000000bb0       0x18 /usr/local/xenon/usr/lib/libxenon.a(usbdevs.o)
 .debug_ranges  0x0000000000000bc8       0x30 /usr/local/xenon/usr/lib/libxenon.a(usbhid.o)
 .debug_ranges  0x0000000000000bf8       0xb0 /usr/local/xenon/usr/lib/libxenon.a(usbhub.o)
 .debug_ranges  0x0000000000000ca8       0x60 /usr/local/xenon/usr/lib/libxenon.a(usbmass.o)
 .debug_ranges  0x0000000000000d08       0x28 /usr/local/xenon/usr/lib/libxenon.a(xenon_gpio.o)
 .debug_ranges  0x0000000000000d30       0x88 /usr/local/xenon/usr/lib/libxenon.a(xenon_smc.o)
 .debug_ranges  0x0000000000000db8       0x30 /usr/local/xenon/usr/lib/libxenon.a(xenon_config.o)
 .debug_ranges  0x0000000000000de8       0x40 /usr/local/xenon/usr/lib/libxenon.a(diskio.o)
 .debug_ranges  0x0000000000000e28       0x60 /usr/local/xenon/usr/lib/libxenon.a(fat.o)
 .debug_ranges  0x0000000000000e88      0x4e0 /usr/local/xenon/usr/lib/libxenon.a(fat_rb.o)
 .debug_ranges  0x0000000000001368       0x80 /usr/local/xenon/usr/lib/libxenon.a(file_rb.o)
 .debug_ranges  0x00000000000013e8       0x58 /usr/local/xenon/usr/lib/libxenon.a(dir_rb.o)
 .debug_ranges  0x0000000000001440      0x690 /usr/local/xenon/usr/lib/libxenon.a(iso9660.o)
 .debug_ranges  0x0000000000001ad0       0x40 /usr/local/xenon/usr/lib/libxenon.a(lib_queue.o)
 .debug_ranges  0x0000000000001b10       0x98 /usr/local/xenon/usr/lib/libxenon.a(usbctrl.o)
 .debug_ranges  0x0000000000001ba8       0x40 /usr/local/xenon/usr/lib/libxenon.a(usbdebug.o)
 .debug_ranges  0x0000000000001be8       0x40 /usr/local/xenon/usr/lib/libxenon.a(unicode_rb.o)
 .debug_ranges  0x0000000000001c28       0xa0 /usr/local/xenon/usr/lib/libxenon.a(xenon_sfcx.o)
 .debug_ranges  0x0000000000001cc8       0x68 /usr/local/xenon/usr/lib/libxenon.a(disk_rb.o)
 .debug_ranges  0x0000000000001d30       0x20 /usr/local/xenon/usr/lib/libxenon.a(input.o)
 .debug_ranges  0x0000000000001d50       0x50 /usr/local/xenon/xenon/lib/32/libc.a(lib_a-mallocr.o)
 .debug_ranges  0x0000000000001da0       0x18 /usr/local/xenon/xenon/lib/32/libc.a(lib_a-strcasecmp.o)
 .debug_ranges  0x0000000000001db8       0x18 /usr/local/xenon/xenon/lib/32/libc.a(lib_a-strncasecmp.o)
 .debug_ranges  0x0000000000001dd0      0x188 /usr/local/xenon/xenon/lib/32/libc.a(lib_a-svfprintf.o)
 .debug_ranges  0x0000000000001f58       0x30 /usr/local/xenon/xenon/lib/32/libc.a(lib_a-vfiprintf.o)
 .debug_ranges  0x0000000000001f88      0x190 /usr/local/xenon/xenon/lib/32/libc.a(lib_a-vfprintf.o)
 .debug_ranges  0x0000000000002118       0x30 /usr/local/xenon/xenon/lib/32/libc.a(lib_a-__call_atexit.o)
 .debug_ranges  0x0000000000002148       0x50 /usr/local/xenon/xenon/lib/32/libc.a(lib_a-fflush.o)
 .debug_ranges  0x0000000000002198       0x20 /usr/local/xenon/xenon/lib/32/libc.a(lib_a-fvwrite.o)
 .debug_ranges  0x00000000000021b8       0x60 /usr/local/xenon/xenon/lib/32/libc.a(lib_a-fwalk.o)
 .debug_ranges  0x0000000000002218       0x80 /usr/local/xenon/xenon/lib/32/libc.a(lib_a-reallocr.o)
 .debug_ranges  0x0000000000002298       0x18 /usr/local/xenon/xenon/lib/32/libc.a(lib_a-callocr.o)

.debug_str      0x0000000000000000     0x6aaf
 .debug_str     0x0000000000000000       0x89 /usr/local/xenon/lib/gcc/xenon/4.4.0/../../../../xenon/lib/../lib/crt1.o
 .debug_str     0x0000000000000089     0x10dc main.o
                                       0x1189 (size before relaxing)
 .debug_str     0x0000000000001165      0x186 /usr/local/xenon/usr/lib/libxenon.a(console.o)
                                        0x284 (size before relaxing)
 .debug_str     0x00000000000012eb      0x2d0 /usr/local/xenon/usr/lib/libxenon.a(newlib.o)
                                        0x467 (size before relaxing)
 .debug_str     0x00000000000015bb      0x1aa /usr/local/xenon/usr/lib/libxenon.a(lib_malloc.o)
                                        0x2b4 (size before relaxing)
 .debug_str     0x0000000000001765       0x21 /usr/local/xenon/usr/lib/libxenon.a(vm.o)
                                         0xf0 (size before relaxing)
 .debug_str     0x0000000000001786      0x4fd /usr/local/xenon/usr/lib/libxenon.a(usbmain.o)
                                        0x5f2 (size before relaxing)
 .debug_str     0x0000000000001c83       0x32 /usr/local/xenon/usr/lib/libxenon.a(xenon_uart.o)
                                        0x10e (size before relaxing)
 .debug_str     0x0000000000001cb5      0x2e7 /usr/local/xenon/usr/lib/libxenon.a(xenos.o)
                                        0x3f6 (size before relaxing)
 .debug_str     0x0000000000001f9c       0x28 /usr/local/xenon/usr/lib/libxenon.a(io.o)
                                        0x10b (size before relaxing)
 .debug_str     0x0000000000001fc4       0x3d /usr/local/xenon/usr/lib/libxenon.a(time.o)
                                        0x112 (size before relaxing)
 .debug_str     0x0000000000002001      0x83e /usr/local/xenon/usr/lib/libxenon.a(ohci.o)
                                        0xea6 (size before relaxing)
 .debug_str     0x000000000000283f      0x378 /usr/local/xenon/usr/lib/libxenon.a(usbd.o)
                                        0xa97 (size before relaxing)
 .debug_str     0x0000000000002bb7       0xc7 /usr/local/xenon/usr/lib/libxenon.a(usbdevs.o)
                                        0x6d3 (size before relaxing)
 .debug_str     0x0000000000002c7e      0x172 /usr/local/xenon/usr/lib/libxenon.a(usbhid.o)
                                        0x891 (size before relaxing)
 .debug_str     0x0000000000002df0      0x26c /usr/local/xenon/usr/lib/libxenon.a(usbhub.o)
                                        0xb43 (size before relaxing)
 .debug_str     0x000000000000305c      0x30d /usr/local/xenon/usr/lib/libxenon.a(usbmass.o)
                                        0xa74 (size before relaxing)
 .debug_str     0x0000000000003369       0x59 /usr/local/xenon/usr/lib/libxenon.a(xenon_gpio.o)
                                        0x12e (size before relaxing)
 .debug_str     0x00000000000033c2      0x18d /usr/local/xenon/usr/lib/libxenon.a(xenon_smc.o)
                                        0x288 (size before relaxing)
 .debug_str     0x000000000000354f      0x2b8 /usr/local/xenon/usr/lib/libxenon.a(xenon_config.o)
                                        0x3c8 (size before relaxing)
 .debug_str     0x0000000000003807       0x9b /usr/local/xenon/usr/lib/libxenon.a(diskio.o)
                                        0x3a3 (size before relaxing)
 .debug_str     0x00000000000038a2      0x187 /usr/local/xenon/usr/lib/libxenon.a(fat.o)
                                        0x4ef (size before relaxing)
 .debug_str     0x0000000000003a29      0x67e /usr/local/xenon/usr/lib/libxenon.a(fat_rb.o)
                                        0x8dc (size before relaxing)
 .debug_str     0x00000000000040a7      0x144 /usr/local/xenon/usr/lib/libxenon.a(file_rb.o)
                                        0x3aa (size before relaxing)
 .debug_str     0x00000000000041eb       0x78 /usr/local/xenon/usr/lib/libxenon.a(dir_rb.o)
                                        0x2b6 (size before relaxing)
 .debug_str     0x0000000000004263      0x359 /usr/local/xenon/usr/lib/libxenon.a(iso9660.o)
                                        0x716 (size before relaxing)
 .debug_str     0x00000000000045bc       0x5e /usr/local/xenon/usr/lib/libxenon.a(lib_queue.o)
                                        0x14c (size before relaxing)
 .debug_str     0x000000000000461a       0xe4 /usr/local/xenon/usr/lib/libxenon.a(usbctrl.o)
                                        0x86e (size before relaxing)
 .debug_str     0x00000000000046fe      0x146 /usr/local/xenon/usr/lib/libxenon.a(usbdebug.o)
                                        0x8fc (size before relaxing)
 .debug_str     0x0000000000004844       0x7a /usr/local/xenon/usr/lib/libxenon.a(unicode_rb.o)
                                        0x15d (size before relaxing)
 .debug_str     0x00000000000048be      0x165 /usr/local/xenon/usr/lib/libxenon.a(xenon_sfcx.o)
                                        0x34b (size before relaxing)
 .debug_str     0x0000000000004a23       0xce /usr/local/xenon/usr/lib/libxenon.a(disk_rb.o)
                                        0x218 (size before relaxing)
 .debug_str     0x0000000000004af1       0x44 /usr/local/xenon/usr/lib/libxenon.a(input.o)
                                        0x100 (size before relaxing)
 .debug_str     0x0000000000004b35      0x3c8 /usr/local/xenon/xenon/lib/32/libc.a(lib_a-assert.o)
                                        0x4f7 (size before relaxing)
 .debug_str     0x0000000000004efd       0x47 /usr/local/xenon/xenon/lib/32/libc.a(lib_a-atoi.o)
                                        0x4c5 (size before relaxing)
 .debug_str     0x0000000000004f44       0x88 /usr/local/xenon/xenon/lib/32/libc.a(lib_a-ctype_.o)
                                         0xa7 (size before relaxing)
 .debug_str     0x0000000000004fcc       0x7b /usr/local/xenon/xenon/lib/32/libc.a(lib_a-errno.o)
                                        0x4cb (size before relaxing)
 .debug_str     0x0000000000005047       0x4d /usr/local/xenon/xenon/lib/32/libc.a(lib_a-exit.o)
                                        0x4d5 (size before relaxing)
 .debug_str     0x0000000000005094       0xbf /usr/local/xenon/xenon/lib/32/libc.a(lib_a-fiprintf.o)
                                        0x52e (size before relaxing)
 .debug_str     0x0000000000005153       0x80 /usr/local/xenon/xenon/lib/32/libc.a(lib_a-impure.o)
                                        0x4e3 (size before relaxing)
 .debug_str     0x00000000000051d3       0x48 /usr/local/xenon/xenon/lib/32/libc.a(lib_a-malloc.o)
                                        0x4e5 (size before relaxing)
 .debug_str     0x000000000000521b      0x203 /usr/local/xenon/xenon/lib/32/libc.a(lib_a-mallocr.o)
                                        0x6ba (size before relaxing)
 .debug_str     0x000000000000541e       0x8b /usr/local/xenon/xenon/lib/32/libc.a(lib_a-memchr.o)
                                        0x133 (size before relaxing)
 .debug_str     0x00000000000054a9       0x43 /usr/local/xenon/xenon/lib/32/libc.a(lib_a-memcmp.o)
                                        0x119 (size before relaxing)
 .debug_str     0x00000000000054ec       0x6a /usr/local/xenon/xenon/lib/32/libc.a(lib_a-memcpy.o)
                                        0x140 (size before relaxing)
 .debug_str     0x0000000000005556       0x50 /usr/local/xenon/xenon/lib/32/libc.a(lib_a-memset.o)
                                        0x12d (size before relaxing)
 .debug_str     0x00000000000055a6       0x6e /usr/local/xenon/xenon/lib/32/libc.a(lib_a-mlock.o)
                                        0x4ec (size before relaxing)
 .debug_str     0x0000000000005614       0x45 /usr/local/xenon/xenon/lib/32/libc.a(lib_a-printf.o)
                                        0x523 (size before relaxing)
 .debug_str     0x0000000000005659       0x4f /usr/local/xenon/xenon/lib/32/libc.a(lib_a-putchar.o)
                                        0x4d8 (size before relaxing)
 .debug_str     0x00000000000056a8       0x46 /usr/local/xenon/xenon/lib/32/libc.a(lib_a-putc.o)
                                        0x4db (size before relaxing)
 .debug_str     0x00000000000056ee       0x82 /usr/local/xenon/xenon/lib/32/libc.a(lib_a-puts.o)
                                        0x512 (size before relaxing)
 .debug_str     0x0000000000005770       0x42 /usr/local/xenon/xenon/lib/32/libc.a(lib_a-sbrkr.o)
                                        0x4d4 (size before relaxing)
 .debug_str     0x00000000000057b2       0x52 /usr/local/xenon/xenon/lib/32/libc.a(lib_a-snprintf.o)
                                        0x53a (size before relaxing)
 .debug_str     0x0000000000005804       0x4f /usr/local/xenon/xenon/lib/32/libc.a(lib_a-sprintf.o)
                                        0x52b (size before relaxing)
 .debug_str     0x0000000000005853       0x4b /usr/local/xenon/xenon/lib/32/libc.a(lib_a-strcasecmp.o)
                                        0x128 (size before relaxing)
 .debug_str     0x000000000000589e       0x4e /usr/local/xenon/xenon/lib/32/libc.a(lib_a-strcat.o)
                                        0x11d (size before relaxing)
 .debug_str     0x00000000000058ec       0x43 /usr/local/xenon/xenon/lib/32/libc.a(lib_a-strchr.o)
                                        0x124 (size before relaxing)
 .debug_str     0x000000000000592f       0x43 /usr/local/xenon/xenon/lib/32/libc.a(lib_a-strcmp.o)
                                        0x112 (size before relaxing)
 .debug_str     0x0000000000005972       0x43 /usr/local/xenon/xenon/lib/32/libc.a(lib_a-strcpy.o)
                                        0x134 (size before relaxing)
 .debug_str     0x00000000000059b5       0x45 /usr/local/xenon/xenon/lib/32/libc.a(lib_a-strlcpy.o)
                                        0x11b (size before relaxing)
 .debug_str     0x00000000000059fa       0x43 /usr/local/xenon/xenon/lib/32/libc.a(lib_a-strlen.o)
                                        0x12c (size before relaxing)
 .debug_str     0x0000000000005a3d       0x4d /usr/local/xenon/xenon/lib/32/libc.a(lib_a-strncasecmp.o)
                                        0x131 (size before relaxing)
 .debug_str     0x0000000000005a8a       0x45 /usr/local/xenon/xenon/lib/32/libc.a(lib_a-strncmp.o)
                                        0x11b (size before relaxing)
 .debug_str     0x0000000000005acf       0x45 /usr/local/xenon/xenon/lib/32/libc.a(lib_a-strncpy.o)
                                        0x143 (size before relaxing)
 .debug_str     0x0000000000005b14       0x45 /usr/local/xenon/xenon/lib/32/libc.a(lib_a-strrchr.o)
                                        0x119 (size before relaxing)
 .debug_str     0x0000000000005b59       0x6d /usr/local/xenon/xenon/lib/32/libc.a(lib_a-strtok_r.o)
                                        0x14b (size before relaxing)
 .debug_str     0x0000000000005bc6       0x5b /usr/local/xenon/xenon/lib/32/libc.a(lib_a-strtol.o)
                                        0x509 (size before relaxing)
 .debug_str     0x0000000000005c21      0x143 /usr/local/xenon/xenon/lib/32/libc.a(lib_a-svfprintf.o)
                                        0x6aa (size before relaxing)
 .debug_str     0x0000000000005d64       0x27 /usr/local/xenon/xenon/lib/32/libc.a(lib_a-vfiprintf.o)
                                        0x63a (size before relaxing)
 .debug_str     0x0000000000005d8b       0x15 /usr/local/xenon/xenon/lib/32/libc.a(lib_a-vfprintf.o)
                                        0x6cb (size before relaxing)
 .debug_str     0x0000000000005da0       0x4b /usr/local/xenon/xenon/lib/32/libc.a(lib_a-wbuf.o)
                                        0x4d9 (size before relaxing)
 .debug_str     0x0000000000005deb       0x47 /usr/local/xenon/xenon/lib/32/libc.a(lib_a-wsetup.o)
                                        0x4d5 (size before relaxing)
 .debug_str     0x0000000000005e32       0x41 /usr/local/xenon/xenon/lib/32/libc.a(lib_a-abort.o)
                                        0x110 (size before relaxing)
 .debug_str     0x0000000000005e73       0x5a /usr/local/xenon/xenon/lib/32/libc.a(lib_a-__call_atexit.o)
                                        0x4fd (size before relaxing)
 .debug_str     0x0000000000005ecd       0xfd /usr/local/xenon/xenon/lib/32/libc.a(lib_a-dtoa.o)
                                        0x5ca (size before relaxing)
 .debug_str     0x0000000000005fca       0x53 /usr/local/xenon/xenon/lib/32/libc.a(lib_a-fflush.o)
                                        0x4fb (size before relaxing)
 .debug_str     0x000000000000601d       0xfd /usr/local/xenon/xenon/lib/32/libc.a(lib_a-findfp.o)
                                        0x5bd (size before relaxing)
 .debug_str     0x000000000000611a       0x36 /usr/local/xenon/xenon/lib/32/libc.a(lib_a-freer.o)
                                        0x60c (size before relaxing)
 .debug_str     0x0000000000006150       0x58 /usr/local/xenon/xenon/lib/32/libc.a(lib_a-fvwrite.o)
                                        0x52c (size before relaxing)
 .debug_str     0x00000000000061a8       0x5f /usr/local/xenon/xenon/lib/32/libc.a(lib_a-fwalk.o)
                                        0x4fe (size before relaxing)
 .debug_str     0x0000000000006207      0x1d4 /usr/local/xenon/xenon/lib/32/libc.a(lib_a-locale.o)
                                        0x672 (size before relaxing)
 .debug_str     0x00000000000063db       0x54 /usr/local/xenon/xenon/lib/32/libc.a(lib_a-makebuf.o)
                                        0x5cf (size before relaxing)
 .debug_str     0x000000000000642f       0x4e /usr/local/xenon/xenon/lib/32/libc.a(lib_a-memmove.o)
                                        0x14c (size before relaxing)
 .debug_str     0x000000000000647d       0xf9 /usr/local/xenon/xenon/lib/32/libc.a(lib_a-mprec.o)
                                        0x5d7 (size before relaxing)
 .debug_str     0x0000000000006576       0x54 /usr/local/xenon/xenon/lib/32/libc.a(lib_a-reallocr.o)
                                        0x58c (size before relaxing)
 .debug_str     0x00000000000065ca       0x74 /usr/local/xenon/xenon/lib/32/libc.a(lib_a-reent.o)
                                        0x508 (size before relaxing)
 .debug_str     0x000000000000663e       0xd0 /usr/local/xenon/xenon/lib/32/libc.a(lib_a-signal.o)
                                        0x536 (size before relaxing)
 .debug_str     0x000000000000670e       0x4e /usr/local/xenon/xenon/lib/32/libc.a(lib_a-signalr.o)
                                        0x4d1 (size before relaxing)
 .debug_str     0x000000000000675c       0xad /usr/local/xenon/xenon/lib/32/libc.a(lib_a-s_isinfd.o)
                                        0x16c (size before relaxing)
 .debug_str     0x0000000000006809       0x47 /usr/local/xenon/xenon/lib/32/libc.a(lib_a-s_isnand.o)
                                        0x16c (size before relaxing)
 .debug_str     0x0000000000006850       0x5c /usr/local/xenon/xenon/lib/32/libc.a(lib_a-stdio.o)
                                        0x4fa (size before relaxing)
 .debug_str     0x00000000000068ac       0x44 /usr/local/xenon/xenon/lib/32/libc.a(lib_a-writer.o)
                                        0x4d7 (size before relaxing)
 .debug_str     0x00000000000068f0       0x19 /usr/local/xenon/xenon/lib/32/libc.a(lib_a-callocr.o)
                                        0x50b (size before relaxing)
 .debug_str     0x0000000000006909       0x44 /usr/local/xenon/xenon/lib/32/libc.a(lib_a-closer.o)
                                        0x4c7 (size before relaxing)
 .debug_str     0x000000000000694d       0x4c /usr/local/xenon/xenon/lib/32/libc.a(lib_a-fclose.o)
                                        0x4df (size before relaxing)
 .debug_str     0x0000000000006999       0x4a /usr/local/xenon/xenon/lib/32/libc.a(lib_a-fstatr.o)
                                        0x5ba (size before relaxing)
 .debug_str     0x00000000000069e3       0x46 /usr/local/xenon/xenon/lib/32/libc.a(lib_a-isattyr.o)
                                        0x4c9 (size before relaxing)
 .debug_str     0x0000000000006a29       0x44 /usr/local/xenon/xenon/lib/32/libc.a(lib_a-lseekr.o)
                                        0x4d5 (size before relaxing)
 .debug_str     0x0000000000006a6d       0x42 /usr/local/xenon/xenon/lib/32/libc.a(lib_a-readr.o)
                                        0x4d5 (size before relaxing)

.comment        0x0000000000000000      0x97e
 .comment       0x0000000000000000       0x12 /usr/local/xenon/lib/gcc/xenon/4.4.0/../../../../xenon/lib/../lib/crt1.o
 .comment       0x0000000000000012       0x12 /usr/local/xenon/lib/gcc/xenon/4.4.0/32/crtbegin.o
 .comment       0x0000000000000024       0x12 main.o
 .comment       0x0000000000000036       0x12 /usr/local/xenon/usr/lib/libxenon.a(console.o)
 .comment       0x0000000000000048       0x12 /usr/local/xenon/usr/lib/libxenon.a(newlib.o)
 .comment       0x000000000000005a       0x12 /usr/local/xenon/usr/lib/libxenon.a(lib_malloc.o)
 .comment       0x000000000000006c       0x12 /usr/local/xenon/usr/lib/libxenon.a(vm.o)
 .comment       0x000000000000007e       0x12 /usr/local/xenon/usr/lib/libxenon.a(usbmain.o)
 .comment       0x0000000000000090       0x12 /usr/local/xenon/usr/lib/libxenon.a(xenon_uart.o)
 .comment       0x00000000000000a2       0x12 /usr/local/xenon/usr/lib/libxenon.a(xenos.o)
 .comment       0x00000000000000b4       0x12 /usr/local/xenon/usr/lib/libxenon.a(io.o)
 .comment       0x00000000000000c6       0x12 /usr/local/xenon/usr/lib/libxenon.a(time.o)
 .comment       0x00000000000000d8       0x12 /usr/local/xenon/usr/lib/libxenon.a(ohci.o)
 .comment       0x00000000000000ea       0x12 /usr/local/xenon/usr/lib/libxenon.a(usbd.o)
 .comment       0x00000000000000fc       0x12 /usr/local/xenon/usr/lib/libxenon.a(usbdevs.o)
 .comment       0x000000000000010e       0x12 /usr/local/xenon/usr/lib/libxenon.a(usbhid.o)
 .comment       0x0000000000000120       0x12 /usr/local/xenon/usr/lib/libxenon.a(usbhub.o)
 .comment       0x0000000000000132       0x12 /usr/local/xenon/usr/lib/libxenon.a(usbmass.o)
 .comment       0x0000000000000144       0x12 /usr/local/xenon/usr/lib/libxenon.a(xenon_gpio.o)
 .comment       0x0000000000000156       0x12 /usr/local/xenon/usr/lib/libxenon.a(xenon_smc.o)
 .comment       0x0000000000000168       0x12 /usr/local/xenon/usr/lib/libxenon.a(xenon_config.o)
 .comment       0x000000000000017a       0x12 /usr/local/xenon/usr/lib/libxenon.a(diskio.o)
 .comment       0x000000000000018c       0x12 /usr/local/xenon/usr/lib/libxenon.a(fat.o)
 .comment       0x000000000000019e       0x12 /usr/local/xenon/usr/lib/libxenon.a(fat_rb.o)
 .comment       0x00000000000001b0       0x12 /usr/local/xenon/usr/lib/libxenon.a(file_rb.o)
 .comment       0x00000000000001c2       0x12 /usr/local/xenon/usr/lib/libxenon.a(dir_rb.o)
 .comment       0x00000000000001d4       0x12 /usr/local/xenon/usr/lib/libxenon.a(iso9660.o)
 .comment       0x00000000000001e6       0x12 /usr/local/xenon/usr/lib/libxenon.a(lib_queue.o)
 .comment       0x00000000000001f8       0x12 /usr/local/xenon/usr/lib/libxenon.a(usbctrl.o)
 .comment       0x000000000000020a       0x12 /usr/local/xenon/usr/lib/libxenon.a(usbdebug.o)
 .comment       0x000000000000021c       0x12 /usr/local/xenon/usr/lib/libxenon.a(unicode_rb.o)
 .comment       0x000000000000022e       0x12 /usr/local/xenon/usr/lib/libxenon.a(xenon_sfcx.o)
 .comment       0x0000000000000240       0x12 /usr/local/xenon/usr/lib/libxenon.a(disk_rb.o)
 .comment       0x0000000000000252       0x12 /usr/local/xenon/usr/lib/libxenon.a(input.o)
 .comment       0x0000000000000264       0x12 /usr/local/xenon/usr/lib/libSDL.a(SDL.o)
 .comment       0x0000000000000276       0x12 /usr/local/xenon/usr/lib/libSDL.a(SDL_error.o)
 .comment       0x0000000000000288       0x12 /usr/local/xenon/usr/lib/libSDL.a(SDL_fatal.o)
 .comment       0x000000000000029a       0x12 /usr/local/xenon/usr/lib/libSDL.a(SDL_audio.o)
 .comment       0x00000000000002ac       0x12 /usr/local/xenon/usr/lib/libSDL.a(SDL_audiocvt.o)
 .comment       0x00000000000002be       0x12 /usr/local/xenon/usr/lib/libSDL.a(SDL_events.o)
 .comment       0x00000000000002d0       0x12 /usr/local/xenon/usr/lib/libSDL.a(SDL_keyboard.o)
 .comment       0x00000000000002e2       0x12 /usr/local/xenon/usr/lib/libSDL.a(SDL_mouse.o)
 .comment       0x00000000000002f4       0x12 /usr/local/xenon/usr/lib/libSDL.a(SDL_quit.o)
 .comment       0x0000000000000306       0x12 /usr/local/xenon/usr/lib/libSDL.a(SDL_getenv.o)
 .comment       0x0000000000000318       0x12 /usr/local/xenon/usr/lib/libSDL.a(SDL_malloc.o)
 .comment       0x000000000000032a       0x12 /usr/local/xenon/usr/lib/libSDL.a(SDL_string.o)
 .comment       0x000000000000033c       0x12 /usr/local/xenon/usr/lib/libSDL.a(SDL_thread.o)
 .comment       0x000000000000034e       0x12 /usr/local/xenon/usr/lib/libSDL.a(SDL_timer.o)
 .comment       0x0000000000000360       0x12 /usr/local/xenon/usr/lib/libSDL.a(SDL_cursor.o)
 .comment       0x0000000000000372       0x12 /usr/local/xenon/usr/lib/libSDL.a(SDL_pixels.o)
 .comment       0x0000000000000384       0x12 /usr/local/xenon/usr/lib/libSDL.a(SDL_surface.o)
 .comment       0x0000000000000396       0x12 /usr/local/xenon/usr/lib/libSDL.a(SDL_video.o)
 .comment       0x00000000000003a8       0x12 /usr/local/xenon/usr/lib/libSDL.a(SDL_dummyaudio.o)
 .comment       0x00000000000003ba       0x12 /usr/local/xenon/usr/lib/libSDL.a(SDL_nullvideo.o)
 .comment       0x00000000000003cc       0x12 /usr/local/xenon/usr/lib/libSDL.a(SDL_sysmutex.o)
 .comment       0x00000000000003de       0x12 /usr/local/xenon/usr/lib/libSDL.a(SDL_syssem.o)
 .comment       0x00000000000003f0       0x12 /usr/local/xenon/usr/lib/libSDL.a(SDL_systhread.o)
 .comment       0x0000000000000402       0x12 /usr/local/xenon/usr/lib/libSDL.a(SDL_systimer.o)
 .comment       0x0000000000000414       0x12 /usr/local/xenon/usr/lib/libSDL.a(SDL_active.o)
 .comment       0x0000000000000426       0x12 /usr/local/xenon/usr/lib/libSDL.a(SDL_resize.o)
 .comment       0x0000000000000438       0x12 /usr/local/xenon/usr/lib/libSDL.a(SDL_RLEaccel.o)
 .comment       0x000000000000044a       0x12 /usr/local/xenon/usr/lib/libSDL.a(SDL_blit.o)
 .comment       0x000000000000045c       0x12 /usr/local/xenon/usr/lib/libSDL.a(SDL_blit_0.o)
 .comment       0x000000000000046e       0x12 /usr/local/xenon/usr/lib/libSDL.a(SDL_blit_1.o)
 .comment       0x0000000000000480       0x12 /usr/local/xenon/usr/lib/libSDL.a(SDL_blit_N.o)
 .comment       0x0000000000000492       0x12 /usr/local/xenon/usr/lib/libSDL.a(SDL_nullevents.o)
 .comment       0x00000000000004a4       0x12 /usr/local/xenon/usr/lib/libSDL.a(SDL_cpuinfo.o)
 .comment       0x00000000000004b6       0x12 /usr/local/xenon/usr/lib/libSDL.a(SDL_blit_A.o)
 .comment       0x00000000000004c8       0x12 /usr/local/xenon/xenon/lib/32/libc.a(lib_a-assert.o)
 .comment       0x00000000000004da       0x12 /usr/local/xenon/xenon/lib/32/libc.a(lib_a-atoi.o)
 .comment       0x00000000000004ec       0x12 /usr/local/xenon/xenon/lib/32/libc.a(lib_a-ctype_.o)
 .comment       0x00000000000004fe       0x12 /usr/local/xenon/xenon/lib/32/libc.a(lib_a-errno.o)
 .comment       0x0000000000000510       0x12 /usr/local/xenon/xenon/lib/32/libc.a(lib_a-exit.o)
 .comment       0x0000000000000522       0x12 /usr/local/xenon/xenon/lib/32/libc.a(lib_a-fiprintf.o)
 .comment       0x0000000000000534       0x12 /usr/local/xenon/xenon/lib/32/libc.a(lib_a-impure.o)
 .comment       0x0000000000000546       0x12 /usr/local/xenon/xenon/lib/32/libc.a(lib_a-malloc.o)
 .comment       0x0000000000000558       0x12 /usr/local/xenon/xenon/lib/32/libc.a(lib_a-mallocr.o)
 .comment       0x000000000000056a       0x12 /usr/local/xenon/xenon/lib/32/libc.a(lib_a-memchr.o)
 .comment       0x000000000000057c       0x12 /usr/local/xenon/xenon/lib/32/libc.a(lib_a-memcmp.o)
 .comment       0x000000000000058e       0x12 /usr/local/xenon/xenon/lib/32/libc.a(lib_a-memcpy.o)
 .comment       0x00000000000005a0       0x12 /usr/local/xenon/xenon/lib/32/libc.a(lib_a-memset.o)
 .comment       0x00000000000005b2       0x12 /usr/local/xenon/xenon/lib/32/libc.a(lib_a-mlock.o)
 .comment       0x00000000000005c4       0x12 /usr/local/xenon/xenon/lib/32/libc.a(lib_a-printf.o)
 .comment       0x00000000000005d6       0x12 /usr/local/xenon/xenon/lib/32/libc.a(lib_a-putchar.o)
 .comment       0x00000000000005e8       0x12 /usr/local/xenon/xenon/lib/32/libc.a(lib_a-putc.o)
 .comment       0x00000000000005fa       0x12 /usr/local/xenon/xenon/lib/32/libc.a(lib_a-puts.o)
 .comment       0x000000000000060c       0x12 /usr/local/xenon/xenon/lib/32/libc.a(lib_a-sbrkr.o)
 .comment       0x000000000000061e       0x12 /usr/local/xenon/xenon/lib/32/libc.a(lib_a-snprintf.o)
 .comment       0x0000000000000630       0x12 /usr/local/xenon/xenon/lib/32/libc.a(lib_a-sprintf.o)
 .comment       0x0000000000000642       0x12 /usr/local/xenon/xenon/lib/32/libc.a(lib_a-strcasecmp.o)
 .comment       0x0000000000000654       0x12 /usr/local/xenon/xenon/lib/32/libc.a(lib_a-strcat.o)
 .comment       0x0000000000000666       0x12 /usr/local/xenon/xenon/lib/32/libc.a(lib_a-strchr.o)
 .comment       0x0000000000000678       0x12 /usr/local/xenon/xenon/lib/32/libc.a(lib_a-strcmp.o)
 .comment       0x000000000000068a       0x12 /usr/local/xenon/xenon/lib/32/libc.a(lib_a-strcpy.o)
 .comment       0x000000000000069c       0x12 /usr/local/xenon/xenon/lib/32/libc.a(lib_a-strlcpy.o)
 .comment       0x00000000000006ae       0x12 /usr/local/xenon/xenon/lib/32/libc.a(lib_a-strlen.o)
 .comment       0x00000000000006c0       0x12 /usr/local/xenon/xenon/lib/32/libc.a(lib_a-strncasecmp.o)
 .comment       0x00000000000006d2       0x12 /usr/local/xenon/xenon/lib/32/libc.a(lib_a-strncmp.o)
 .comment       0x00000000000006e4       0x12 /usr/local/xenon/xenon/lib/32/libc.a(lib_a-strncpy.o)
 .comment       0x00000000000006f6       0x12 /usr/local/xenon/xenon/lib/32/libc.a(lib_a-strrchr.o)
 .comment       0x0000000000000708       0x12 /usr/local/xenon/xenon/lib/32/libc.a(lib_a-strtok_r.o)
 .comment       0x000000000000071a       0x12 /usr/local/xenon/xenon/lib/32/libc.a(lib_a-strtol.o)
 .comment       0x000000000000072c       0x12 /usr/local/xenon/xenon/lib/32/libc.a(lib_a-svfprintf.o)
 .comment       0x000000000000073e       0x12 /usr/local/xenon/xenon/lib/32/libc.a(lib_a-vfiprintf.o)
 .comment       0x0000000000000750       0x12 /usr/local/xenon/xenon/lib/32/libc.a(lib_a-vfprintf.o)
 .comment       0x0000000000000762       0x12 /usr/local/xenon/xenon/lib/32/libc.a(lib_a-wbuf.o)
 .comment       0x0000000000000774       0x12 /usr/local/xenon/xenon/lib/32/libc.a(lib_a-wsetup.o)
 .comment       0x0000000000000786       0x12 /usr/local/xenon/xenon/lib/32/libc.a(lib_a-abort.o)
 .comment       0x0000000000000798       0x12 /usr/local/xenon/xenon/lib/32/libc.a(lib_a-__call_atexit.o)
 .comment       0x00000000000007aa       0x12 /usr/local/xenon/xenon/lib/32/libc.a(lib_a-dtoa.o)
 .comment       0x00000000000007bc       0x12 /usr/local/xenon/xenon/lib/32/libc.a(lib_a-fflush.o)
 .comment       0x00000000000007ce       0x12 /usr/local/xenon/xenon/lib/32/libc.a(lib_a-findfp.o)
 .comment       0x00000000000007e0       0x12 /usr/local/xenon/xenon/lib/32/libc.a(lib_a-freer.o)
 .comment       0x00000000000007f2       0x12 /usr/local/xenon/xenon/lib/32/libc.a(lib_a-fvwrite.o)
 .comment       0x0000000000000804       0x12 /usr/local/xenon/xenon/lib/32/libc.a(lib_a-fwalk.o)
 .comment       0x0000000000000816       0x12 /usr/local/xenon/xenon/lib/32/libc.a(lib_a-locale.o)
 .comment       0x0000000000000828       0x12 /usr/local/xenon/xenon/lib/32/libc.a(lib_a-makebuf.o)
 .comment       0x000000000000083a       0x12 /usr/local/xenon/xenon/lib/32/libc.a(lib_a-memmove.o)
 .comment       0x000000000000084c       0x12 /usr/local/xenon/xenon/lib/32/libc.a(lib_a-mprec.o)
 .comment       0x000000000000085e       0x12 /usr/local/xenon/xenon/lib/32/libc.a(lib_a-reallocr.o)
 .comment       0x0000000000000870       0x12 /usr/local/xenon/xenon/lib/32/libc.a(lib_a-reent.o)
 .comment       0x0000000000000882       0x12 /usr/local/xenon/xenon/lib/32/libc.a(lib_a-signal.o)
 .comment       0x0000000000000894       0x12 /usr/local/xenon/xenon/lib/32/libc.a(lib_a-signalr.o)
 .comment       0x00000000000008a6       0x12 /usr/local/xenon/xenon/lib/32/libc.a(lib_a-s_isinfd.o)
 .comment       0x00000000000008b8       0x12 /usr/local/xenon/xenon/lib/32/libc.a(lib_a-s_isnand.o)
 .comment       0x00000000000008ca       0x12 /usr/local/xenon/xenon/lib/32/libc.a(lib_a-stdio.o)
 .comment       0x00000000000008dc       0x12 /usr/local/xenon/xenon/lib/32/libc.a(lib_a-writer.o)
 .comment       0x00000000000008ee       0x12 /usr/local/xenon/xenon/lib/32/libc.a(lib_a-callocr.o)
 .comment       0x0000000000000900       0x12 /usr/local/xenon/xenon/lib/32/libc.a(lib_a-closer.o)
 .comment       0x0000000000000912       0x12 /usr/local/xenon/xenon/lib/32/libc.a(lib_a-fclose.o)
 .comment       0x0000000000000924       0x12 /usr/local/xenon/xenon/lib/32/libc.a(lib_a-fstatr.o)
 .comment       0x0000000000000936       0x12 /usr/local/xenon/xenon/lib/32/libc.a(lib_a-isattyr.o)
 .comment       0x0000000000000948       0x12 /usr/local/xenon/xenon/lib/32/libc.a(lib_a-lseekr.o)
 .comment       0x000000000000095a       0x12 /usr/local/xenon/xenon/lib/32/libc.a(lib_a-readr.o)
 .comment       0x000000000000096c       0x12 /usr/local/xenon/lib/gcc/xenon/4.4.0/32/crtend.o

.note.GNU-stack
                0x0000000000000000        0x0
 .note.GNU-stack
                0x0000000000000000        0x0 /usr/local/xenon/lib/gcc/xenon/4.4.0/../../../../xenon/lib/../lib/crt1.o
 .note.GNU-stack
                0x0000000000000000        0x0 /usr/local/xenon/lib/gcc/xenon/4.4.0/32/crtbegin.o
 .note.GNU-stack
                0x0000000000000000        0x0 main.o
 .note.GNU-stack
                0x0000000000000000        0x0 /usr/local/xenon/usr/lib/libxenon.a(console.o)
 .note.GNU-stack
                0x0000000000000000        0x0 /usr/local/xenon/usr/lib/libxenon.a(newlib.o)
 .note.GNU-stack
                0x0000000000000000        0x0 /usr/local/xenon/usr/lib/libxenon.a(lib_malloc.o)
 .note.GNU-stack
                0x0000000000000000        0x0 /usr/local/xenon/usr/lib/libxenon.a(vm.o)
 .note.GNU-stack
                0x0000000000000000        0x0 /usr/local/xenon/usr/lib/libxenon.a(usbmain.o)
 .note.GNU-stack
                0x0000000000000000        0x0 /usr/local/xenon/usr/lib/libxenon.a(xenon_uart.o)
 .note.GNU-stack
                0x0000000000000000        0x0 /usr/local/xenon/usr/lib/libxenon.a(xenos.o)
 .note.GNU-stack
                0x0000000000000000        0x0 /usr/local/xenon/usr/lib/libxenon.a(io.o)
 .note.GNU-stack
                0x0000000000000000        0x0 /usr/local/xenon/usr/lib/libxenon.a(time.o)
 .note.GNU-stack
                0x0000000000000000        0x0 /usr/local/xenon/usr/lib/libxenon.a(ohci.o)
 .note.GNU-stack
                0x0000000000000000        0x0 /usr/local/xenon/usr/lib/libxenon.a(usbd.o)
 .note.GNU-stack
                0x0000000000000000        0x0 /usr/local/xenon/usr/lib/libxenon.a(usbdevs.o)
 .note.GNU-stack
                0x0000000000000000        0x0 /usr/local/xenon/usr/lib/libxenon.a(usbhid.o)
 .note.GNU-stack
                0x0000000000000000        0x0 /usr/local/xenon/usr/lib/libxenon.a(usbhub.o)
 .note.GNU-stack
                0x0000000000000000        0x0 /usr/local/xenon/usr/lib/libxenon.a(usbmass.o)
 .note.GNU-stack
                0x0000000000000000        0x0 /usr/local/xenon/usr/lib/libxenon.a(xenon_gpio.o)
 .note.GNU-stack
                0x0000000000000000        0x0 /usr/local/xenon/usr/lib/libxenon.a(xenon_smc.o)
 .note.GNU-stack
                0x0000000000000000        0x0 /usr/local/xenon/usr/lib/libxenon.a(xenon_config.o)
 .note.GNU-stack
                0x0000000000000000        0x0 /usr/local/xenon/usr/lib/libxenon.a(diskio.o)
 .note.GNU-stack
                0x0000000000000000        0x0 /usr/local/xenon/usr/lib/libxenon.a(fat.o)
 .note.GNU-stack
                0x0000000000000000        0x0 /usr/local/xenon/usr/lib/libxenon.a(fat_rb.o)
 .note.GNU-stack
                0x0000000000000000        0x0 /usr/local/xenon/usr/lib/libxenon.a(file_rb.o)
 .note.GNU-stack
                0x0000000000000000        0x0 /usr/local/xenon/usr/lib/libxenon.a(dir_rb.o)
 .note.GNU-stack
                0x0000000000000000        0x0 /usr/local/xenon/usr/lib/libxenon.a(iso9660.o)
 .note.GNU-stack
                0x0000000000000000        0x0 /usr/local/xenon/usr/lib/libxenon.a(lib_queue.o)
 .note.GNU-stack
                0x0000000000000000        0x0 /usr/local/xenon/usr/lib/libxenon.a(usbctrl.o)
 .note.GNU-stack
                0x0000000000000000        0x0 /usr/local/xenon/usr/lib/libxenon.a(usbdebug.o)
 .note.GNU-stack
                0x0000000000000000        0x0 /usr/local/xenon/usr/lib/libxenon.a(unicode_rb.o)
 .note.GNU-stack
                0x0000000000000000        0x0 /usr/local/xenon/usr/lib/libxenon.a(xenon_sfcx.o)
 .note.GNU-stack
                0x0000000000000000        0x0 /usr/local/xenon/usr/lib/libxenon.a(disk_rb.o)
 .note.GNU-stack
                0x0000000000000000        0x0 /usr/local/xenon/usr/lib/libxenon.a(input.o)
 .note.GNU-stack
                0x0000000000000000        0x0 /usr/local/xenon/usr/lib/libSDL.a(SDL.o)
 .note.GNU-stack
                0x0000000000000000        0x0 /usr/local/xenon/usr/lib/libSDL.a(SDL_error.o)
 .note.GNU-stack
                0x0000000000000000        0x0 /usr/local/xenon/usr/lib/libSDL.a(SDL_fatal.o)
 .note.GNU-stack
                0x0000000000000000        0x0 /usr/local/xenon/usr/lib/libSDL.a(SDL_audio.o)
 .note.GNU-stack
                0x0000000000000000        0x0 /usr/local/xenon/usr/lib/libSDL.a(SDL_audiocvt.o)
 .note.GNU-stack
                0x0000000000000000        0x0 /usr/local/xenon/usr/lib/libSDL.a(SDL_events.o)
 .note.GNU-stack
                0x0000000000000000        0x0 /usr/local/xenon/usr/lib/libSDL.a(SDL_keyboard.o)
 .note.GNU-stack
                0x0000000000000000        0x0 /usr/local/xenon/usr/lib/libSDL.a(SDL_mouse.o)
 .note.GNU-stack
                0x0000000000000000        0x0 /usr/local/xenon/usr/lib/libSDL.a(SDL_quit.o)
 .note.GNU-stack
                0x0000000000000000        0x0 /usr/local/xenon/usr/lib/libSDL.a(SDL_getenv.o)
 .note.GNU-stack
                0x0000000000000000        0x0 /usr/local/xenon/usr/lib/libSDL.a(SDL_malloc.o)
 .note.GNU-stack
                0x0000000000000000        0x0 /usr/local/xenon/usr/lib/libSDL.a(SDL_string.o)
 .note.GNU-stack
                0x0000000000000000        0x0 /usr/local/xenon/usr/lib/libSDL.a(SDL_thread.o)
 .note.GNU-stack
                0x0000000000000000        0x0 /usr/local/xenon/usr/lib/libSDL.a(SDL_timer.o)
 .note.GNU-stack
                0x0000000000000000        0x0 /usr/local/xenon/usr/lib/libSDL.a(SDL_cursor.o)
 .note.GNU-stack
                0x0000000000000000        0x0 /usr/local/xenon/usr/lib/libSDL.a(SDL_pixels.o)
 .note.GNU-stack
                0x0000000000000000        0x0 /usr/local/xenon/usr/lib/libSDL.a(SDL_surface.o)
 .note.GNU-stack
                0x0000000000000000        0x0 /usr/local/xenon/usr/lib/libSDL.a(SDL_video.o)
 .note.GNU-stack
                0x0000000000000000        0x0 /usr/local/xenon/usr/lib/libSDL.a(SDL_dummyaudio.o)
 .note.GNU-stack
                0x0000000000000000        0x0 /usr/local/xenon/usr/lib/libSDL.a(SDL_nullvideo.o)
 .note.GNU-stack
                0x0000000000000000        0x0 /usr/local/xenon/usr/lib/libSDL.a(SDL_sysmutex.o)
 .note.GNU-stack
                0x0000000000000000        0x0 /usr/local/xenon/usr/lib/libSDL.a(SDL_syssem.o)
 .note.GNU-stack
                0x0000000000000000        0x0 /usr/local/xenon/usr/lib/libSDL.a(SDL_systhread.o)
 .note.GNU-stack
                0x0000000000000000        0x0 /usr/local/xenon/usr/lib/libSDL.a(SDL_systimer.o)
 .note.GNU-stack
                0x0000000000000000        0x0 /usr/local/xenon/usr/lib/libSDL.a(SDL_active.o)
 .note.GNU-stack
                0x0000000000000000        0x0 /usr/local/xenon/usr/lib/libSDL.a(SDL_resize.o)
 .note.GNU-stack
                0x0000000000000000        0x0 /usr/local/xenon/usr/lib/libSDL.a(SDL_RLEaccel.o)
 .note.GNU-stack
                0x0000000000000000        0x0 /usr/local/xenon/usr/lib/libSDL.a(SDL_blit.o)
 .note.GNU-stack
                0x0000000000000000        0x0 /usr/local/xenon/usr/lib/libSDL.a(SDL_blit_0.o)
 .note.GNU-stack
                0x0000000000000000        0x0 /usr/local/xenon/usr/lib/libSDL.a(SDL_blit_1.o)
 .note.GNU-stack
                0x0000000000000000        0x0 /usr/local/xenon/usr/lib/libSDL.a(SDL_blit_N.o)
 .note.GNU-stack
                0x0000000000000000        0x0 /usr/local/xenon/usr/lib/libSDL.a(SDL_nullevents.o)
 .note.GNU-stack
                0x0000000000000000        0x0 /usr/local/xenon/usr/lib/libSDL.a(SDL_cpuinfo.o)
 .note.GNU-stack
                0x0000000000000000        0x0 /usr/local/xenon/usr/lib/libSDL.a(SDL_blit_A.o)
 .note.GNU-stack
                0x0000000000000000        0x0 /usr/local/xenon/xenon/lib/32/libc.a(lib_a-assert.o)
 .note.GNU-stack
                0x0000000000000000        0x0 /usr/local/xenon/xenon/lib/32/libc.a(lib_a-atoi.o)
 .note.GNU-stack
                0x0000000000000000        0x0 /usr/local/xenon/xenon/lib/32/libc.a(lib_a-ctype_.o)
 .note.GNU-stack
                0x0000000000000000        0x0 /usr/local/xenon/xenon/lib/32/libc.a(lib_a-errno.o)
 .note.GNU-stack
                0x0000000000000000        0x0 /usr/local/xenon/xenon/lib/32/libc.a(lib_a-exit.o)
 .note.GNU-stack
                0x0000000000000000        0x0 /usr/local/xenon/xenon/lib/32/libc.a(lib_a-fiprintf.o)
 .note.GNU-stack
                0x0000000000000000        0x0 /usr/local/xenon/xenon/lib/32/libc.a(lib_a-impure.o)
 .note.GNU-stack
                0x0000000000000000        0x0 /usr/local/xenon/xenon/lib/32/libc.a(lib_a-malloc.o)
 .note.GNU-stack
                0x0000000000000000        0x0 /usr/local/xenon/xenon/lib/32/libc.a(lib_a-mallocr.o)
 .note.GNU-stack
                0x0000000000000000        0x0 /usr/local/xenon/xenon/lib/32/libc.a(lib_a-memchr.o)
 .note.GNU-stack
                0x0000000000000000        0x0 /usr/local/xenon/xenon/lib/32/libc.a(lib_a-memcmp.o)
 .note.GNU-stack
                0x0000000000000000        0x0 /usr/local/xenon/xenon/lib/32/libc.a(lib_a-memcpy.o)
 .note.GNU-stack
                0x0000000000000000        0x0 /usr/local/xenon/xenon/lib/32/libc.a(lib_a-memset.o)
 .note.GNU-stack
                0x0000000000000000        0x0 /usr/local/xenon/xenon/lib/32/libc.a(lib_a-mlock.o)
 .note.GNU-stack
                0x0000000000000000        0x0 /usr/local/xenon/xenon/lib/32/libc.a(lib_a-printf.o)
 .note.GNU-stack
                0x0000000000000000        0x0 /usr/local/xenon/xenon/lib/32/libc.a(lib_a-putchar.o)
 .note.GNU-stack
                0x0000000000000000        0x0 /usr/local/xenon/xenon/lib/32/libc.a(lib_a-putc.o)
 .note.GNU-stack
                0x0000000000000000        0x0 /usr/local/xenon/xenon/lib/32/libc.a(lib_a-puts.o)
 .note.GNU-stack
                0x0000000000000000        0x0 /usr/local/xenon/xenon/lib/32/libc.a(lib_a-sbrkr.o)
 .note.GNU-stack
                0x0000000000000000        0x0 /usr/local/xenon/xenon/lib/32/libc.a(lib_a-snprintf.o)
 .note.GNU-stack
                0x0000000000000000        0x0 /usr/local/xenon/xenon/lib/32/libc.a(lib_a-sprintf.o)
 .note.GNU-stack
                0x0000000000000000        0x0 /usr/local/xenon/xenon/lib/32/libc.a(lib_a-strcasecmp.o)
 .note.GNU-stack
                0x0000000000000000        0x0 /usr/local/xenon/xenon/lib/32/libc.a(lib_a-strcat.o)
 .note.GNU-stack
                0x0000000000000000        0x0 /usr/local/xenon/xenon/lib/32/libc.a(lib_a-strchr.o)
 .note.GNU-stack
                0x0000000000000000        0x0 /usr/local/xenon/xenon/lib/32/libc.a(lib_a-strcmp.o)
 .note.GNU-stack
                0x0000000000000000        0x0 /usr/local/xenon/xenon/lib/32/libc.a(lib_a-strcpy.o)
 .note.GNU-stack
                0x0000000000000000        0x0 /usr/local/xenon/xenon/lib/32/libc.a(lib_a-strlcpy.o)
 .note.GNU-stack
                0x0000000000000000        0x0 /usr/local/xenon/xenon/lib/32/libc.a(lib_a-strlen.o)
 .note.GNU-stack
                0x0000000000000000        0x0 /usr/local/xenon/xenon/lib/32/libc.a(lib_a-strncasecmp.o)
 .note.GNU-stack
                0x0000000000000000        0x0 /usr/local/xenon/xenon/lib/32/libc.a(lib_a-strncmp.o)
 .note.GNU-stack
                0x0000000000000000        0x0 /usr/local/xenon/xenon/lib/32/libc.a(lib_a-strncpy.o)
 .note.GNU-stack
                0x0000000000000000        0x0 /usr/local/xenon/xenon/lib/32/libc.a(lib_a-strrchr.o)
 .note.GNU-stack
                0x0000000000000000        0x0 /usr/local/xenon/xenon/lib/32/libc.a(lib_a-strtok_r.o)
 .note.GNU-stack
                0x0000000000000000        0x0 /usr/local/xenon/xenon/lib/32/libc.a(lib_a-strtol.o)
 .note.GNU-stack
                0x0000000000000000        0x0 /usr/local/xenon/xenon/lib/32/libc.a(lib_a-svfprintf.o)
 .note.GNU-stack
                0x0000000000000000        0x0 /usr/local/xenon/xenon/lib/32/libc.a(lib_a-vfiprintf.o)
 .note.GNU-stack
                0x0000000000000000        0x0 /usr/local/xenon/xenon/lib/32/libc.a(lib_a-vfprintf.o)
 .note.GNU-stack
                0x0000000000000000        0x0 /usr/local/xenon/xenon/lib/32/libc.a(lib_a-wbuf.o)
 .note.GNU-stack
                0x0000000000000000        0x0 /usr/local/xenon/xenon/lib/32/libc.a(lib_a-wsetup.o)
 .note.GNU-stack
                0x0000000000000000        0x0 /usr/local/xenon/xenon/lib/32/libc.a(lib_a-abort.o)
 .note.GNU-stack
                0x0000000000000000        0x0 /usr/local/xenon/xenon/lib/32/libc.a(lib_a-__call_atexit.o)
 .note.GNU-stack
                0x0000000000000000        0x0 /usr/local/xenon/xenon/lib/32/libc.a(lib_a-dtoa.o)
 .note.GNU-stack
                0x0000000000000000        0x0 /usr/local/xenon/xenon/lib/32/libc.a(lib_a-fflush.o)
 .note.GNU-stack
                0x0000000000000000        0x0 /usr/local/xenon/xenon/lib/32/libc.a(lib_a-findfp.o)
 .note.GNU-stack
                0x0000000000000000        0x0 /usr/local/xenon/xenon/lib/32/libc.a(lib_a-freer.o)
 .note.GNU-stack
                0x0000000000000000        0x0 /usr/local/xenon/xenon/lib/32/libc.a(lib_a-fvwrite.o)
 .note.GNU-stack
                0x0000000000000000        0x0 /usr/local/xenon/xenon/lib/32/libc.a(lib_a-fwalk.o)
 .note.GNU-stack
                0x0000000000000000        0x0 /usr/local/xenon/xenon/lib/32/libc.a(lib_a-locale.o)
 .note.GNU-stack
                0x0000000000000000        0x0 /usr/local/xenon/xenon/lib/32/libc.a(lib_a-makebuf.o)
 .note.GNU-stack
                0x0000000000000000        0x0 /usr/local/xenon/xenon/lib/32/libc.a(lib_a-memmove.o)
 .note.GNU-stack
                0x0000000000000000        0x0 /usr/local/xenon/xenon/lib/32/libc.a(lib_a-mprec.o)
 .note.GNU-stack
                0x0000000000000000        0x0 /usr/local/xenon/xenon/lib/32/libc.a(lib_a-reallocr.o)
 .note.GNU-stack
                0x0000000000000000        0x0 /usr/local/xenon/xenon/lib/32/libc.a(lib_a-reent.o)
 .note.GNU-stack
                0x0000000000000000        0x0 /usr/local/xenon/xenon/lib/32/libc.a(lib_a-signal.o)
 .note.GNU-stack
                0x0000000000000000        0x0 /usr/local/xenon/xenon/lib/32/libc.a(lib_a-signalr.o)
 .note.GNU-stack
                0x0000000000000000        0x0 /usr/local/xenon/xenon/lib/32/libc.a(lib_a-s_isinfd.o)
 .note.GNU-stack
                0x0000000000000000        0x0 /usr/local/xenon/xenon/lib/32/libc.a(lib_a-s_isnand.o)
 .note.GNU-stack
                0x0000000000000000        0x0 /usr/local/xenon/xenon/lib/32/libc.a(lib_a-stdio.o)
 .note.GNU-stack
                0x0000000000000000        0x0 /usr/local/xenon/xenon/lib/32/libc.a(lib_a-writer.o)
 .note.GNU-stack
                0x0000000000000000        0x0 /usr/local/xenon/xenon/lib/32/libc.a(lib_a-callocr.o)
 .note.GNU-stack
                0x0000000000000000        0x0 /usr/local/xenon/xenon/lib/32/libc.a(lib_a-closer.o)
 .note.GNU-stack
                0x0000000000000000        0x0 /usr/local/xenon/xenon/lib/32/libc.a(lib_a-fclose.o)
 .note.GNU-stack
                0x0000000000000000        0x0 /usr/local/xenon/xenon/lib/32/libc.a(lib_a-fstatr.o)
 .note.GNU-stack
                0x0000000000000000        0x0 /usr/local/xenon/xenon/lib/32/libc.a(lib_a-isattyr.o)
 .note.GNU-stack
                0x0000000000000000        0x0 /usr/local/xenon/xenon/lib/32/libc.a(lib_a-lseekr.o)
 .note.GNU-stack
                0x0000000000000000        0x0 /usr/local/xenon/xenon/lib/32/libc.a(lib_a-readr.o)
 .note.GNU-stack
                0x0000000000000000        0x0 /usr/local/xenon/lib/gcc/xenon/4.4.0/32/crtend.o

.gnu.attributes
                0x0000000000000000       0x14
 .gnu.attributes
                0x0000000000000000       0x14 /usr/local/xenon/lib/gcc/xenon/4.4.0/../../../../xenon/lib/../lib/crt1.o
 .gnu.attributes
                0x0000000000000014       0x14 /usr/local/xenon/lib/gcc/xenon/4.4.0/32/crtbegin.o
 .gnu.attributes
                0x0000000000000028       0x14 main.o
 .gnu.attributes
                0x000000000000003c       0x14 /usr/local/xenon/usr/lib/libxenon.a(console.o)
 .gnu.attributes
                0x0000000000000050       0x14 /usr/local/xenon/usr/lib/libxenon.a(newlib.o)
 .gnu.attributes
                0x0000000000000064       0x14 /usr/local/xenon/usr/lib/libxenon.a(lib_malloc.o)
 .gnu.attributes
                0x0000000000000078       0x14 /usr/local/xenon/usr/lib/libxenon.a(vm.o)
 .gnu.attributes
                0x000000000000008c       0x14 /usr/local/xenon/usr/lib/libxenon.a(usbmain.o)
 .gnu.attributes
                0x00000000000000a0       0x14 /usr/local/xenon/usr/lib/libxenon.a(xenon_uart.o)
 .gnu.attributes
                0x00000000000000b4       0x14 /usr/local/xenon/usr/lib/libxenon.a(xenos.o)
 .gnu.attributes
                0x00000000000000c8       0x14 /usr/local/xenon/usr/lib/libxenon.a(io.o)
 .gnu.attributes
                0x00000000000000dc       0x14 /usr/local/xenon/usr/lib/libxenon.a(time.o)
 .gnu.attributes
                0x00000000000000f0       0x14 /usr/local/xenon/usr/lib/libxenon.a(ohci.o)
 .gnu.attributes
                0x0000000000000104       0x14 /usr/local/xenon/usr/lib/libxenon.a(usbd.o)
 .gnu.attributes
                0x0000000000000118       0x14 /usr/local/xenon/usr/lib/libxenon.a(usbdevs.o)
 .gnu.attributes
                0x000000000000012c       0x14 /usr/local/xenon/usr/lib/libxenon.a(usbhid.o)
 .gnu.attributes
                0x0000000000000140       0x14 /usr/local/xenon/usr/lib/libxenon.a(usbhub.o)
 .gnu.attributes
                0x0000000000000154       0x14 /usr/local/xenon/usr/lib/libxenon.a(usbmass.o)
 .gnu.attributes
                0x0000000000000168       0x14 /usr/local/xenon/usr/lib/libxenon.a(xenon_gpio.o)
 .gnu.attributes
                0x000000000000017c       0x14 /usr/local/xenon/usr/lib/libxenon.a(xenon_smc.o)
 .gnu.attributes
                0x0000000000000190       0x14 /usr/local/xenon/usr/lib/libxenon.a(xenon_config.o)
 .gnu.attributes
                0x00000000000001a4       0x14 /usr/local/xenon/usr/lib/libxenon.a(diskio.o)
 .gnu.attributes
                0x00000000000001b8       0x14 /usr/local/xenon/usr/lib/libxenon.a(fat.o)
 .gnu.attributes
                0x00000000000001cc       0x14 /usr/local/xenon/usr/lib/libxenon.a(fat_rb.o)
 .gnu.attributes
                0x00000000000001e0       0x14 /usr/local/xenon/usr/lib/libxenon.a(file_rb.o)
 .gnu.attributes
                0x00000000000001f4       0x14 /usr/local/xenon/usr/lib/libxenon.a(dir_rb.o)
 .gnu.attributes
                0x0000000000000208       0x14 /usr/local/xenon/usr/lib/libxenon.a(iso9660.o)
 .gnu.attributes
                0x000000000000021c       0x14 /usr/local/xenon/usr/lib/libxenon.a(lib_queue.o)
 .gnu.attributes
                0x0000000000000230       0x14 /usr/local/xenon/usr/lib/libxenon.a(usbctrl.o)
 .gnu.attributes
                0x0000000000000244       0x14 /usr/local/xenon/usr/lib/libxenon.a(usbdebug.o)
 .gnu.attributes
                0x0000000000000258       0x14 /usr/local/xenon/usr/lib/libxenon.a(unicode_rb.o)
 .gnu.attributes
                0x000000000000026c       0x14 /usr/local/xenon/usr/lib/libxenon.a(xenon_sfcx.o)
 .gnu.attributes
                0x0000000000000280       0x14 /usr/local/xenon/usr/lib/libxenon.a(disk_rb.o)
 .gnu.attributes
                0x0000000000000294       0x14 /usr/local/xenon/usr/lib/libxenon.a(input.o)
 .gnu.attributes
                0x00000000000002a8       0x14 /usr/local/xenon/usr/lib/libSDL.a(SDL.o)
 .gnu.attributes
                0x00000000000002bc       0x14 /usr/local/xenon/usr/lib/libSDL.a(SDL_error.o)
 .gnu.attributes
                0x00000000000002d0       0x14 /usr/local/xenon/usr/lib/libSDL.a(SDL_fatal.o)
 .gnu.attributes
                0x00000000000002e4       0x14 /usr/local/xenon/usr/lib/libSDL.a(SDL_audio.o)
 .gnu.attributes
                0x00000000000002f8       0x14 /usr/local/xenon/usr/lib/libSDL.a(SDL_audiocvt.o)
 .gnu.attributes
                0x000000000000030c       0x14 /usr/local/xenon/usr/lib/libSDL.a(SDL_events.o)
 .gnu.attributes
                0x0000000000000320       0x14 /usr/local/xenon/usr/lib/libSDL.a(SDL_keyboard.o)
 .gnu.attributes
                0x0000000000000334       0x14 /usr/local/xenon/usr/lib/libSDL.a(SDL_mouse.o)
 .gnu.attributes
                0x0000000000000348       0x14 /usr/local/xenon/usr/lib/libSDL.a(SDL_quit.o)
 .gnu.attributes
                0x000000000000035c       0x14 /usr/local/xenon/usr/lib/libSDL.a(SDL_getenv.o)
 .gnu.attributes
                0x0000000000000370       0x14 /usr/local/xenon/usr/lib/libSDL.a(SDL_malloc.o)
 .gnu.attributes
                0x0000000000000384       0x14 /usr/local/xenon/usr/lib/libSDL.a(SDL_string.o)
 .gnu.attributes
                0x0000000000000398       0x14 /usr/local/xenon/usr/lib/libSDL.a(SDL_thread.o)
 .gnu.attributes
                0x00000000000003ac       0x14 /usr/local/xenon/usr/lib/libSDL.a(SDL_timer.o)
 .gnu.attributes
                0x00000000000003c0       0x14 /usr/local/xenon/usr/lib/libSDL.a(SDL_cursor.o)
 .gnu.attributes
                0x00000000000003d4       0x14 /usr/local/xenon/usr/lib/libSDL.a(SDL_pixels.o)
 .gnu.attributes
                0x00000000000003e8       0x14 /usr/local/xenon/usr/lib/libSDL.a(SDL_surface.o)
 .gnu.attributes
                0x00000000000003fc       0x14 /usr/local/xenon/usr/lib/libSDL.a(SDL_video.o)
 .gnu.attributes
                0x0000000000000410       0x14 /usr/local/xenon/usr/lib/libSDL.a(SDL_dummyaudio.o)
 .gnu.attributes
                0x0000000000000424       0x14 /usr/local/xenon/usr/lib/libSDL.a(SDL_nullvideo.o)
 .gnu.attributes
                0x0000000000000438       0x14 /usr/local/xenon/usr/lib/libSDL.a(SDL_sysmutex.o)
 .gnu.attributes
                0x000000000000044c       0x14 /usr/local/xenon/usr/lib/libSDL.a(SDL_syssem.o)
 .gnu.attributes
                0x0000000000000460       0x14 /usr/local/xenon/usr/lib/libSDL.a(SDL_systhread.o)
 .gnu.attributes
                0x0000000000000474       0x14 /usr/local/xenon/usr/lib/libSDL.a(SDL_systimer.o)
 .gnu.attributes
                0x0000000000000488       0x14 /usr/local/xenon/usr/lib/libSDL.a(SDL_active.o)
 .gnu.attributes
                0x000000000000049c       0x14 /usr/local/xenon/usr/lib/libSDL.a(SDL_resize.o)
 .gnu.attributes
                0x00000000000004b0       0x14 /usr/local/xenon/usr/lib/libSDL.a(SDL_RLEaccel.o)
 .gnu.attributes
                0x00000000000004c4       0x14 /usr/local/xenon/usr/lib/libSDL.a(SDL_blit.o)
 .gnu.attributes
                0x00000000000004d8       0x14 /usr/local/xenon/usr/lib/libSDL.a(SDL_blit_0.o)
 .gnu.attributes
                0x00000000000004ec       0x14 /usr/local/xenon/usr/lib/libSDL.a(SDL_blit_1.o)
 .gnu.attributes
                0x0000000000000500       0x14 /usr/local/xenon/usr/lib/libSDL.a(SDL_blit_N.o)
 .gnu.attributes
                0x0000000000000514       0x14 /usr/local/xenon/usr/lib/libSDL.a(SDL_nullevents.o)
 .gnu.attributes
                0x0000000000000528       0x14 /usr/local/xenon/usr/lib/libSDL.a(SDL_cpuinfo.o)
 .gnu.attributes
                0x000000000000053c       0x14 /usr/local/xenon/usr/lib/libSDL.a(SDL_blit_A.o)
 .gnu.attributes
                0x0000000000000550       0x14 /usr/local/xenon/xenon/lib/32/libc.a(lib_a-assert.o)
 .gnu.attributes
                0x0000000000000564       0x14 /usr/local/xenon/xenon/lib/32/libc.a(lib_a-atoi.o)
 .gnu.attributes
                0x0000000000000578       0x14 /usr/local/xenon/xenon/lib/32/libc.a(lib_a-ctype_.o)
 .gnu.attributes
                0x000000000000058c       0x14 /usr/local/xenon/xenon/lib/32/libc.a(lib_a-errno.o)
 .gnu.attributes
                0x00000000000005a0       0x14 /usr/local/xenon/xenon/lib/32/libc.a(lib_a-exit.o)
 .gnu.attributes
                0x00000000000005b4       0x14 /usr/local/xenon/xenon/lib/32/libc.a(lib_a-fiprintf.o)
 .gnu.attributes
                0x00000000000005c8       0x14 /usr/local/xenon/xenon/lib/32/libc.a(lib_a-impure.o)
 .gnu.attributes
                0x00000000000005dc       0x14 /usr/local/xenon/xenon/lib/32/libc.a(lib_a-malloc.o)
 .gnu.attributes
                0x00000000000005f0       0x14 /usr/local/xenon/xenon/lib/32/libc.a(lib_a-mallocr.o)
 .gnu.attributes
                0x0000000000000604       0x14 /usr/local/xenon/xenon/lib/32/libc.a(lib_a-memchr.o)
 .gnu.attributes
                0x0000000000000618       0x14 /usr/local/xenon/xenon/lib/32/libc.a(lib_a-memcmp.o)
 .gnu.attributes
                0x000000000000062c       0x14 /usr/local/xenon/xenon/lib/32/libc.a(lib_a-memcpy.o)
 .gnu.attributes
                0x0000000000000640       0x14 /usr/local/xenon/xenon/lib/32/libc.a(lib_a-memset.o)
 .gnu.attributes
                0x0000000000000654       0x14 /usr/local/xenon/xenon/lib/32/libc.a(lib_a-mlock.o)
 .gnu.attributes
                0x0000000000000668       0x14 /usr/local/xenon/xenon/lib/32/libc.a(lib_a-printf.o)
 .gnu.attributes
                0x000000000000067c       0x14 /usr/local/xenon/xenon/lib/32/libc.a(lib_a-putchar.o)
 .gnu.attributes
                0x0000000000000690       0x14 /usr/local/xenon/xenon/lib/32/libc.a(lib_a-putc.o)
 .gnu.attributes
                0x00000000000006a4       0x14 /usr/local/xenon/xenon/lib/32/libc.a(lib_a-puts.o)
 .gnu.attributes
                0x00000000000006b8       0x14 /usr/local/xenon/xenon/lib/32/libc.a(lib_a-sbrkr.o)
 .gnu.attributes
                0x00000000000006cc       0x14 /usr/local/xenon/xenon/lib/32/libc.a(lib_a-snprintf.o)
 .gnu.attributes
                0x00000000000006e0       0x14 /usr/local/xenon/xenon/lib/32/libc.a(lib_a-sprintf.o)
 .gnu.attributes
                0x00000000000006f4       0x14 /usr/local/xenon/xenon/lib/32/libc.a(lib_a-strcasecmp.o)
 .gnu.attributes
                0x0000000000000708       0x14 /usr/local/xenon/xenon/lib/32/libc.a(lib_a-strcat.o)
 .gnu.attributes
                0x000000000000071c       0x14 /usr/local/xenon/xenon/lib/32/libc.a(lib_a-strchr.o)
 .gnu.attributes
                0x0000000000000730       0x14 /usr/local/xenon/xenon/lib/32/libc.a(lib_a-strcmp.o)
 .gnu.attributes
                0x0000000000000744       0x14 /usr/local/xenon/xenon/lib/32/libc.a(lib_a-strcpy.o)
 .gnu.attributes
                0x0000000000000758       0x14 /usr/local/xenon/xenon/lib/32/libc.a(lib_a-strlcpy.o)
 .gnu.attributes
                0x000000000000076c       0x14 /usr/local/xenon/xenon/lib/32/libc.a(lib_a-strlen.o)
 .gnu.attributes
                0x0000000000000780       0x14 /usr/local/xenon/xenon/lib/32/libc.a(lib_a-strncasecmp.o)
 .gnu.attributes
                0x0000000000000794       0x14 /usr/local/xenon/xenon/lib/32/libc.a(lib_a-strncmp.o)
 .gnu.attributes
                0x00000000000007a8       0x14 /usr/local/xenon/xenon/lib/32/libc.a(lib_a-strncpy.o)
 .gnu.attributes
                0x00000000000007bc       0x14 /usr/local/xenon/xenon/lib/32/libc.a(lib_a-strrchr.o)
 .gnu.attributes
                0x00000000000007d0       0x14 /usr/local/xenon/xenon/lib/32/libc.a(lib_a-strtok_r.o)
 .gnu.attributes
                0x00000000000007e4       0x14 /usr/local/xenon/xenon/lib/32/libc.a(lib_a-strtol.o)
 .gnu.attributes
                0x00000000000007f8       0x14 /usr/local/xenon/xenon/lib/32/libc.a(lib_a-svfprintf.o)
 .gnu.attributes
                0x000000000000080c       0x14 /usr/local/xenon/xenon/lib/32/libc.a(lib_a-vfiprintf.o)
 .gnu.attributes
                0x0000000000000820       0x14 /usr/local/xenon/xenon/lib/32/libc.a(lib_a-vfprintf.o)
 .gnu.attributes
                0x0000000000000834       0x14 /usr/local/xenon/xenon/lib/32/libc.a(lib_a-wbuf.o)
 .gnu.attributes
                0x0000000000000848       0x14 /usr/local/xenon/xenon/lib/32/libc.a(lib_a-wsetup.o)
 .gnu.attributes
                0x000000000000085c       0x14 /usr/local/xenon/xenon/lib/32/libc.a(lib_a-abort.o)
 .gnu.attributes
                0x0000000000000870       0x14 /usr/local/xenon/xenon/lib/32/libc.a(lib_a-__call_atexit.o)
 .gnu.attributes
                0x0000000000000884       0x14 /usr/local/xenon/xenon/lib/32/libc.a(lib_a-dtoa.o)
 .gnu.attributes
                0x0000000000000898       0x14 /usr/local/xenon/xenon/lib/32/libc.a(lib_a-fflush.o)
 .gnu.attributes
                0x00000000000008ac       0x14 /usr/local/xenon/xenon/lib/32/libc.a(lib_a-findfp.o)
 .gnu.attributes
                0x00000000000008c0       0x14 /usr/local/xenon/xenon/lib/32/libc.a(lib_a-freer.o)
 .gnu.attributes
                0x00000000000008d4       0x14 /usr/local/xenon/xenon/lib/32/libc.a(lib_a-fvwrite.o)
 .gnu.attributes
                0x00000000000008e8       0x14 /usr/local/xenon/xenon/lib/32/libc.a(lib_a-fwalk.o)
 .gnu.attributes
                0x00000000000008fc       0x14 /usr/local/xenon/xenon/lib/32/libc.a(lib_a-locale.o)
 .gnu.attributes
                0x0000000000000910       0x14 /usr/local/xenon/xenon/lib/32/libc.a(lib_a-makebuf.o)
 .gnu.attributes
                0x0000000000000924       0x14 /usr/local/xenon/xenon/lib/32/libc.a(lib_a-memmove.o)
 .gnu.attributes
                0x0000000000000938       0x14 /usr/local/xenon/xenon/lib/32/libc.a(lib_a-mprec.o)
 .gnu.attributes
                0x000000000000094c       0x14 /usr/local/xenon/xenon/lib/32/libc.a(lib_a-reallocr.o)
 .gnu.attributes
                0x0000000000000960       0x14 /usr/local/xenon/xenon/lib/32/libc.a(lib_a-reent.o)
 .gnu.attributes
                0x0000000000000974       0x14 /usr/local/xenon/xenon/lib/32/libc.a(lib_a-signal.o)
 .gnu.attributes
                0x0000000000000988       0x14 /usr/local/xenon/xenon/lib/32/libc.a(lib_a-signalr.o)
 .gnu.attributes
                0x000000000000099c       0x14 /usr/local/xenon/xenon/lib/32/libc.a(lib_a-s_isinfd.o)
 .gnu.attributes
                0x00000000000009b0       0x14 /usr/local/xenon/xenon/lib/32/libc.a(lib_a-s_isnand.o)
 .gnu.attributes
                0x00000000000009c4       0x14 /usr/local/xenon/xenon/lib/32/libc.a(lib_a-stdio.o)
 .gnu.attributes
                0x00000000000009d8       0x14 /usr/local/xenon/xenon/lib/32/libc.a(lib_a-writer.o)
 .gnu.attributes
                0x00000000000009ec       0x14 /usr/local/xenon/xenon/lib/32/libc.a(lib_a-callocr.o)
 .gnu.attributes
                0x0000000000000a00       0x14 /usr/local/xenon/xenon/lib/32/libc.a(lib_a-closer.o)
 .gnu.attributes
                0x0000000000000a14       0x14 /usr/local/xenon/xenon/lib/32/libc.a(lib_a-fclose.o)
 .gnu.attributes
                0x0000000000000a28       0x14 /usr/local/xenon/xenon/lib/32/libc.a(lib_a-fstatr.o)
 .gnu.attributes
                0x0000000000000a3c       0x14 /usr/local/xenon/xenon/lib/32/libc.a(lib_a-isattyr.o)
 .gnu.attributes
                0x0000000000000a50       0x14 /usr/local/xenon/xenon/lib/32/libc.a(lib_a-lseekr.o)
 .gnu.attributes
                0x0000000000000a64       0x14 /usr/local/xenon/xenon/lib/32/libc.a(lib_a-readr.o)
 .gnu.attributes
                0x0000000000000a78       0x14 /usr/local/xenon/lib/gcc/xenon/4.4.0/32/crtend.o
