Archive member included because of file (symbol)

/usr/local/xenon/usr/lib/libxenon.a(startup_from_xell.o)
                              (_start)
/usr/local/xenon/usr/lib/libxenon.a(console.o)
                              main.o (console_init)
/usr/local/xenon/usr/lib/libxenon.a(newlib.o)
                              (read)
/usr/local/xenon/usr/lib/libxenon.a(atomic.o)
                              /usr/local/xenon/usr/lib/libxenon.a(startup_from_xell.o) (atomic_clearset)
/usr/local/xenon/usr/lib/libxenon.a(cache.o)
                              /usr/local/xenon/usr/lib/libxenon.a(console.o) (memdcbst)
/usr/local/xenon/usr/lib/libxenon.a(except.o)
                              (exc_base)
/usr/local/xenon/usr/lib/libxenon.a(vm.o)
                              /usr/local/xenon/usr/lib/libxenon.a(except.o) (pagetable)
/usr/local/xenon/usr/lib/libxenon.a(xenon_uart.o)
                              /usr/local/xenon/usr/lib/libxenon.a(newlib.o) (putch)
/usr/local/xenon/usr/lib/libxenon.a(edram.o)
                              main.o (edram_init)
/usr/local/xenon/usr/lib/libxenon.a(xe.o)
                              main.o (Xe_SetRenderTarget)
/usr/local/xenon/usr/lib/libxenon.a(xenos.o)
                              /usr/local/xenon/usr/lib/libxenon.a(console.o) (xenos_is_overscan)
/usr/local/xenon/usr/lib/libxenon.a(lib_malloc.o)
                              /usr/local/xenon/usr/lib/libxenon.a(xe.o) (kmeminit)
/usr/local/xenon/usr/lib/libxenon.a(io.o)
                              /usr/local/xenon/usr/lib/libxenon.a(xenos.o) (read32n)
/usr/local/xenon/usr/lib/libxenon.a(time.o)
                              /usr/local/xenon/usr/lib/libxenon.a(edram.o) (udelay)
/usr/local/xenon/usr/lib/libxenon.a(xenon_gpio.o)
                              /usr/local/xenon/usr/lib/libxenon.a(xenos.o) (xenon_gpio_set)
/usr/local/xenon/usr/lib/libxenon.a(xenon_smc.o)
                              /usr/local/xenon/usr/lib/libxenon.a(xenos.o) (xenon_smc_read_avpack)
/usr/local/xenon/usr/lib/libxenon.a(xenon_config.o)
                              /usr/local/xenon/usr/lib/libxenon.a(xenos.o) (xenon_config_get_avregion)
/usr/local/xenon/usr/lib/libxenon.a(ucode.o)
                              /usr/local/xenon/usr/lib/libxenon.a(xe.o) (xenos_ucode0)
/usr/local/xenon/usr/lib/libxenon.a(xenon_sfcx.o)
                              /usr/local/xenon/usr/lib/libxenon.a(xenon_config.o) (sfcx_init)
/usr/local/xenon/xenon/lib/32/libm.a(lib_a-sf_tan.o)
                              engine.o (tanf)
/usr/local/xenon/xenon/lib/32/libm.a(lib_a-wf_sincos.o)
                              engine.o (sincosf)
/usr/local/xenon/xenon/lib/32/libm.a(lib_a-w_sincos.o)
                              engine.o (sincos)
/usr/local/xenon/xenon/lib/32/libm.a(lib_a-ef_rem_pio2.o)
                              /usr/local/xenon/xenon/lib/32/libm.a(lib_a-sf_tan.o) (__ieee754_rem_pio2f)
/usr/local/xenon/xenon/lib/32/libm.a(lib_a-kf_rem_pio2.o)
                              /usr/local/xenon/xenon/lib/32/libm.a(lib_a-ef_rem_pio2.o) (__kernel_rem_pio2f)
/usr/local/xenon/xenon/lib/32/libm.a(lib_a-kf_tan.o)
                              /usr/local/xenon/xenon/lib/32/libm.a(lib_a-sf_tan.o) (__kernel_tanf)
/usr/local/xenon/xenon/lib/32/libm.a(lib_a-s_cos.o)
                              /usr/local/xenon/xenon/lib/32/libm.a(lib_a-w_sincos.o) (cos)
/usr/local/xenon/xenon/lib/32/libm.a(lib_a-sf_cos.o)
                              /usr/local/xenon/xenon/lib/32/libm.a(lib_a-wf_sincos.o) (cosf)
/usr/local/xenon/xenon/lib/32/libm.a(lib_a-sf_fabs.o)
                              /usr/local/xenon/xenon/lib/32/libm.a(lib_a-ef_rem_pio2.o) (fabsf)
/usr/local/xenon/xenon/lib/32/libm.a(lib_a-sf_floor.o)
                              /usr/local/xenon/xenon/lib/32/libm.a(lib_a-kf_rem_pio2.o) (floorf)
/usr/local/xenon/xenon/lib/32/libm.a(lib_a-sf_scalbn.o)
                              /usr/local/xenon/xenon/lib/32/libm.a(lib_a-kf_rem_pio2.o) (scalbnf)
/usr/local/xenon/xenon/lib/32/libm.a(lib_a-sf_sin.o)
                              /usr/local/xenon/xenon/lib/32/libm.a(lib_a-wf_sincos.o) (sinf)
/usr/local/xenon/xenon/lib/32/libm.a(lib_a-s_sin.o)
                              /usr/local/xenon/xenon/lib/32/libm.a(lib_a-w_sincos.o) (sin)
/usr/local/xenon/xenon/lib/32/libm.a(lib_a-e_rem_pio2.o)
                              /usr/local/xenon/xenon/lib/32/libm.a(lib_a-s_cos.o) (__ieee754_rem_pio2)
/usr/local/xenon/xenon/lib/32/libm.a(lib_a-k_cos.o)
                              /usr/local/xenon/xenon/lib/32/libm.a(lib_a-s_cos.o) (__kernel_cos)
/usr/local/xenon/xenon/lib/32/libm.a(lib_a-kf_cos.o)
                              /usr/local/xenon/xenon/lib/32/libm.a(lib_a-sf_cos.o) (__kernel_cosf)
/usr/local/xenon/xenon/lib/32/libm.a(lib_a-kf_sin.o)
                              /usr/local/xenon/xenon/lib/32/libm.a(lib_a-sf_cos.o) (__kernel_sinf)
/usr/local/xenon/xenon/lib/32/libm.a(lib_a-k_rem_pio2.o)
                              /usr/local/xenon/xenon/lib/32/libm.a(lib_a-e_rem_pio2.o) (__kernel_rem_pio2)
/usr/local/xenon/xenon/lib/32/libm.a(lib_a-k_sin.o)
                              /usr/local/xenon/xenon/lib/32/libm.a(lib_a-s_cos.o) (__kernel_sin)
/usr/local/xenon/xenon/lib/32/libm.a(lib_a-s_fabs.o)
                              /usr/local/xenon/xenon/lib/32/libm.a(lib_a-e_rem_pio2.o) (fabs)
/usr/local/xenon/xenon/lib/32/libm.a(lib_a-sf_copysign.o)
                              /usr/local/xenon/xenon/lib/32/libm.a(lib_a-sf_scalbn.o) (copysignf)
/usr/local/xenon/xenon/lib/32/libm.a(lib_a-s_floor.o)
                              /usr/local/xenon/xenon/lib/32/libm.a(lib_a-k_rem_pio2.o) (floor)
/usr/local/xenon/xenon/lib/32/libm.a(lib_a-s_scalbn.o)
                              /usr/local/xenon/xenon/lib/32/libm.a(lib_a-k_rem_pio2.o) (scalbn)
/usr/local/xenon/xenon/lib/32/libm.a(lib_a-s_copysign.o)
                              /usr/local/xenon/xenon/lib/32/libm.a(lib_a-s_scalbn.o) (copysign)
/usr/local/xenon/xenon/lib/32/libc.a(lib_a-abort.o)
                              /usr/local/xenon/usr/lib/libxenon.a(edram.o) (abort)
/usr/local/xenon/xenon/lib/32/libc.a(lib_a-assert.o)
                              /usr/local/xenon/usr/lib/libxenon.a(edram.o) (__assert_func)
/usr/local/xenon/xenon/lib/32/libc.a(lib_a-errno.o)
                              /usr/local/xenon/usr/lib/libxenon.a(newlib.o) (__errno)
/usr/local/xenon/xenon/lib/32/libc.a(lib_a-fclose.o)
                              /usr/local/xenon/usr/lib/libxenon.a(xe.o) (fclose)
/usr/local/xenon/xenon/lib/32/libc.a(lib_a-fflush.o)
                              /usr/local/xenon/xenon/lib/32/libc.a(lib_a-fclose.o) (_fflush_r)
/usr/local/xenon/xenon/lib/32/libc.a(lib_a-findfp.o)
                              /usr/local/xenon/xenon/lib/32/libc.a(lib_a-fclose.o) (__sfp_lock_acquire)
/usr/local/xenon/xenon/lib/32/libc.a(lib_a-fiprintf.o)
                              /usr/local/xenon/xenon/lib/32/libc.a(lib_a-assert.o) (fiprintf)
/usr/local/xenon/xenon/lib/32/libc.a(lib_a-fopen.o)
                              /usr/local/xenon/usr/lib/libxenon.a(xe.o) (fopen)
/usr/local/xenon/xenon/lib/32/libc.a(lib_a-fread.o)
                              /usr/local/xenon/usr/lib/libxenon.a(xe.o) (fread)
/usr/local/xenon/xenon/lib/32/libc.a(lib_a-freer.o)
                              /usr/local/xenon/xenon/lib/32/libc.a(lib_a-fclose.o) (_free_r)
/usr/local/xenon/xenon/lib/32/libc.a(lib_a-fseek.o)
                              /usr/local/xenon/xenon/lib/32/libc.a(lib_a-fopen.o) (_fseek_r)
/usr/local/xenon/xenon/lib/32/libc.a(lib_a-fstatr.o)
                              /usr/local/xenon/xenon/lib/32/libc.a(lib_a-fseek.o) (_fstat_r)
/usr/local/xenon/xenon/lib/32/libc.a(lib_a-ftell.o)
                              /usr/local/xenon/usr/lib/libxenon.a(xe.o) (ftell)
/usr/local/xenon/xenon/lib/32/libc.a(lib_a-fwalk.o)
                              /usr/local/xenon/xenon/lib/32/libc.a(lib_a-fflush.o) (_fwalk_reent)
/usr/local/xenon/xenon/lib/32/libc.a(lib_a-impure.o)
                              /usr/local/xenon/xenon/lib/32/libc.a(lib_a-assert.o) (_impure_ptr)
/usr/local/xenon/xenon/lib/32/libc.a(lib_a-makebuf.o)
                              /usr/local/xenon/xenon/lib/32/libc.a(lib_a-fseek.o) (__smakebuf_r)
/usr/local/xenon/xenon/lib/32/libc.a(lib_a-malloc.o)
                              /usr/local/xenon/usr/lib/libxenon.a(xe.o) (free)
/usr/local/xenon/xenon/lib/32/libc.a(lib_a-mallocr.o)
                              /usr/local/xenon/xenon/lib/32/libc.a(lib_a-freer.o) (__malloc_av_)
/usr/local/xenon/xenon/lib/32/libc.a(lib_a-memcpy.o)
                              /usr/local/xenon/usr/lib/libxenon.a(console.o) (memcpy)
/usr/local/xenon/xenon/lib/32/libc.a(lib_a-memset.o)
                              /usr/local/xenon/usr/lib/libxenon.a(newlib.o) (memset)
/usr/local/xenon/xenon/lib/32/libc.a(lib_a-mlock.o)
                              /usr/local/xenon/xenon/lib/32/libc.a(lib_a-freer.o) (__malloc_lock)
/usr/local/xenon/xenon/lib/32/libc.a(lib_a-openr.o)
                              /usr/local/xenon/xenon/lib/32/libc.a(lib_a-fopen.o) (_open_r)
/usr/local/xenon/xenon/lib/32/libc.a(lib_a-printf.o)
                              xee.o (printf)
/usr/local/xenon/xenon/lib/32/libc.a(lib_a-putchar.o)
                              xee.o (putchar)
/usr/local/xenon/xenon/lib/32/libc.a(lib_a-putc.o)
                              /usr/local/xenon/xenon/lib/32/libc.a(lib_a-putchar.o) (_putc_r)
/usr/local/xenon/xenon/lib/32/libc.a(lib_a-puts.o)
                              main.o (puts)
/usr/local/xenon/xenon/lib/32/libc.a(lib_a-reent.o)
                              /usr/local/xenon/xenon/lib/32/libc.a(lib_a-fstatr.o) (errno)
/usr/local/xenon/xenon/lib/32/libc.a(lib_a-refill.o)
                              /usr/local/xenon/xenon/lib/32/libc.a(lib_a-fread.o) (__srefill_r)
/usr/local/xenon/xenon/lib/32/libc.a(lib_a-sbrkr.o)
                              /usr/local/xenon/xenon/lib/32/libc.a(lib_a-freer.o) (_sbrk_r)
/usr/local/xenon/xenon/lib/32/libc.a(lib_a-signal.o)
                              /usr/local/xenon/xenon/lib/32/libc.a(lib_a-abort.o) (raise)
/usr/local/xenon/xenon/lib/32/libc.a(lib_a-signalr.o)
                              /usr/local/xenon/xenon/lib/32/libc.a(lib_a-signal.o) (_getpid_r)
/usr/local/xenon/xenon/lib/32/libc.a(lib_a-stdio.o)
                              /usr/local/xenon/xenon/lib/32/libc.a(lib_a-findfp.o) (__sclose)
/usr/local/xenon/xenon/lib/32/libc.a(lib_a-strcmp.o)
                              /usr/local/xenon/usr/lib/libxenon.a(newlib.o) (strcmp)
/usr/local/xenon/xenon/lib/32/libc.a(lib_a-strcpy.o)
                              /usr/local/xenon/usr/lib/libxenon.a(newlib.o) (strcpy)
/usr/local/xenon/xenon/lib/32/libc.a(lib_a-strlen.o)
                              /usr/local/xenon/usr/lib/libxenon.a(newlib.o) (strlen)
/usr/local/xenon/xenon/lib/32/libc.a(lib_a-strncmp.o)
                              /usr/local/xenon/usr/lib/libxenon.a(newlib.o) (strncmp)
/usr/local/xenon/xenon/lib/32/libc.a(lib_a-vfiprintf.o)
                              /usr/local/xenon/xenon/lib/32/libc.a(lib_a-fiprintf.o) (_vfiprintf_r)
/usr/local/xenon/xenon/lib/32/libc.a(lib_a-vfprintf.o)
                              /usr/local/xenon/xenon/lib/32/libc.a(lib_a-printf.o) (_vfprintf_r)
/usr/local/xenon/xenon/lib/32/libc.a(lib_a-vprintf.o)
                              /usr/local/xenon/usr/lib/libxenon.a(xe.o) (vprintf)
/usr/local/xenon/xenon/lib/32/libc.a(lib_a-wbuf.o)
                              /usr/local/xenon/xenon/lib/32/libc.a(lib_a-putc.o) (__swbuf_r)
/usr/local/xenon/xenon/lib/32/libc.a(lib_a-writer.o)
                              /usr/local/xenon/xenon/lib/32/libc.a(lib_a-stdio.o) (_write_r)
/usr/local/xenon/xenon/lib/32/libc.a(lib_a-wsetup.o)
                              /usr/local/xenon/xenon/lib/32/libc.a(lib_a-vfiprintf.o) (__swsetup_r)
/usr/local/xenon/xenon/lib/32/libc.a(lib_a-closer.o)
                              /usr/local/xenon/xenon/lib/32/libc.a(lib_a-stdio.o) (_close_r)
/usr/local/xenon/xenon/lib/32/libc.a(lib_a-dtoa.o)
                              /usr/local/xenon/xenon/lib/32/libc.a(lib_a-vfprintf.o) (_dtoa_r)
/usr/local/xenon/xenon/lib/32/libc.a(lib_a-flags.o)
                              /usr/local/xenon/xenon/lib/32/libc.a(lib_a-fopen.o) (__sflags)
/usr/local/xenon/xenon/lib/32/libc.a(lib_a-fvwrite.o)
                              /usr/local/xenon/xenon/lib/32/libc.a(lib_a-puts.o) (__sfvwrite_r)
/usr/local/xenon/xenon/lib/32/libc.a(lib_a-isattyr.o)
                              /usr/local/xenon/xenon/lib/32/libc.a(lib_a-makebuf.o) (_isatty_r)
/usr/local/xenon/xenon/lib/32/libc.a(lib_a-locale.o)
                              /usr/local/xenon/xenon/lib/32/libc.a(lib_a-vfprintf.o) (_localeconv_r)
/usr/local/xenon/xenon/lib/32/libc.a(lib_a-lseekr.o)
                              /usr/local/xenon/xenon/lib/32/libc.a(lib_a-stdio.o) (_lseek_r)
/usr/local/xenon/xenon/lib/32/libc.a(lib_a-memchr.o)
                              /usr/local/xenon/xenon/lib/32/libc.a(lib_a-vfiprintf.o) (memchr)
/usr/local/xenon/xenon/lib/32/libc.a(lib_a-memmove.o)
                              /usr/local/xenon/xenon/lib/32/libc.a(lib_a-fvwrite.o) (memmove)
/usr/local/xenon/xenon/lib/32/libc.a(lib_a-mprec.o)
                              /usr/local/xenon/xenon/lib/32/libc.a(lib_a-dtoa.o) (_Bfree)
/usr/local/xenon/xenon/lib/32/libc.a(lib_a-readr.o)
                              /usr/local/xenon/xenon/lib/32/libc.a(lib_a-stdio.o) (_read_r)
/usr/local/xenon/xenon/lib/32/libc.a(lib_a-reallocr.o)
                              /usr/local/xenon/xenon/lib/32/libc.a(lib_a-fvwrite.o) (_realloc_r)
/usr/local/xenon/xenon/lib/32/libc.a(lib_a-s_isinfd.o)
                              /usr/local/xenon/xenon/lib/32/libc.a(lib_a-vfprintf.o) (__isinfd)
/usr/local/xenon/xenon/lib/32/libc.a(lib_a-s_isnand.o)
                              /usr/local/xenon/xenon/lib/32/libc.a(lib_a-vfprintf.o) (__isnand)
/usr/local/xenon/xenon/lib/32/libc.a(lib_a-callocr.o)
                              /usr/local/xenon/xenon/lib/32/libc.a(lib_a-mprec.o) (_calloc_r)

Allocating common symbols
Common symbol       size              file

matrix_top          0x4               engine.o
vb                  0x4               main.o
errno               0x4               /usr/local/xenon/xenon/lib/32/libc.a(lib_a-reent.o)
xe                  0x4               main.o
g_proj              0x40              xee.o
ib                  0x4               main.o
heap_ptr            0x4               /usr/local/xenon/usr/lib/libxenon.a(newlib.o)
sh_ps               0x4               main.o
fb                  0x4               main.o
reloc               0x28              /usr/local/xenon/usr/lib/libxenon.a(edram.o)
sh_vs               0x4               main.o
kmempool            0xc               /usr/local/xenon/usr/lib/libxenon.a(lib_malloc.o)
matrix_stack        0x1800            engine.o
_xe                 0x2508            main.o

Discarded input sections

 .text          0x0000000000000000        0x0 /usr/local/xenon/lib/gcc/xenon/4.4.0/../../../../xenon/lib/../lib/crt1.o
 .data          0x0000000000000000        0x0 /usr/local/xenon/lib/gcc/xenon/4.4.0/../../../../xenon/lib/../lib/crt1.o
 .bss           0x0000000000000000        0x0 /usr/local/xenon/lib/gcc/xenon/4.4.0/../../../../xenon/lib/../lib/crt1.o
 .text          0x0000000000000000        0x0 /usr/local/xenon/lib/gcc/xenon/4.4.0/../../../../xenon/lib/../lib/crti.o
 .data          0x0000000000000000        0x0 /usr/local/xenon/lib/gcc/xenon/4.4.0/../../../../xenon/lib/../lib/crti.o
 .bss           0x0000000000000000        0x0 /usr/local/xenon/lib/gcc/xenon/4.4.0/../../../../xenon/lib/../lib/crti.o
 .init          0x0000000000000000        0x0 /usr/local/xenon/lib/gcc/xenon/4.4.0/../../../../xenon/lib/../lib/crti.o
 .fini          0x0000000000000000        0x0 /usr/local/xenon/lib/gcc/xenon/4.4.0/../../../../xenon/lib/../lib/crti.o
 .text          0x0000000000000000        0x0 /usr/local/xenon/lib/gcc/xenon/4.4.0/32/crtbegin.o
 .data          0x0000000000000000        0x0 /usr/local/xenon/lib/gcc/xenon/4.4.0/32/crtbegin.o
 .bss           0x0000000000000000        0x0 /usr/local/xenon/lib/gcc/xenon/4.4.0/32/crtbegin.o
 .got2          0x0000000000000000        0x0 /usr/local/xenon/lib/gcc/xenon/4.4.0/32/crtbegin.o
 .ctors         0x0000000000000000        0x0 /usr/local/xenon/lib/gcc/xenon/4.4.0/32/crtbegin.o
 .dtors         0x0000000000000000        0x0 /usr/local/xenon/lib/gcc/xenon/4.4.0/32/crtbegin.o
 .jcr           0x0000000000000000        0x0 /usr/local/xenon/lib/gcc/xenon/4.4.0/32/crtbegin.o
 .fini          0x0000000000000000        0x0 /usr/local/xenon/lib/gcc/xenon/4.4.0/32/crtbegin.o
 .init          0x0000000000000000        0x0 /usr/local/xenon/lib/gcc/xenon/4.4.0/32/crtbegin.o
 .text          0x0000000000000000        0x0 engine.o
 .data          0x0000000000000000        0x0 engine.o
 .bss           0x0000000000000000        0x0 engine.o
 .text.multiply_matrix
                0x0000000000000000        0x0 engine.o
 .text.multiply_matrix_notranslate
                0x0000000000000000        0x0 engine.o
 .text.multiply_matrix_44
                0x0000000000000000        0x0 engine.o
 .text.build_proj_ortho
                0x0000000000000000        0x0 engine.o
 .text.invert_matrix
                0x0000000000000000        0x0 engine.o
 .text.multiply_vector
                0x0000000000000000        0x0 engine.o
 .text.glTranslate
                0x0000000000000000        0x0 engine.o
 .text.glScale  0x0000000000000000        0x0 engine.o
 .text.glMultMatrix
                0x0000000000000000        0x0 engine.o
 .text.glPopMatrix
                0x0000000000000000        0x0 engine.o
 .text.glPushMatrix
                0x0000000000000000        0x0 engine.o
 .text.glLoadMatrix
                0x0000000000000000        0x0 engine.o
 .text.glLoadIdentity
                0x0000000000000000        0x0 engine.o
 .text.gluLookAt
                0x0000000000000000        0x0 engine.o
 .text.glRotate
                0x0000000000000000        0x0 engine.o
 .text.build_proj_persp
                0x0000000000000000        0x0 engine.o
 .text.build_rot_matrix
                0x0000000000000000        0x0 engine.o
 .rodata.cst4   0x0000000000000000        0x0 engine.o
 .rodata.cst8   0x0000000000000000        0x0 engine.o
 .rodata.ident_matrix
                0x0000000000000000        0x0 engine.o
 .sbss          0x0000000000000000        0x0 engine.o
 COMMON         0x0000000000000000        0x0 engine.o
 .text          0x0000000000000000        0x0 ffs_content.o
 .data          0x0000000000000000        0x0 ffs_content.o
 .bss           0x0000000000000000        0x0 ffs_content.o
 .text          0x0000000000000000        0x0 main.o
 .data          0x0000000000000000        0x0 main.o
 .bss           0x0000000000000000        0x0 main.o
 .text.ld       0x0000000000000000        0x0 main.o
 .text          0x0000000000000000        0x0 xee.o
 .data          0x0000000000000000        0x0 xee.o
 .bss           0x0000000000000000        0x0 xee.o
 .text.M_Dump   0x0000000000000000        0x0 xee.o
 .text.M_BuildPersp
                0x0000000000000000        0x0 xee.o
 .text.M_Load43
                0x0000000000000000        0x0 xee.o
 .text.M_Load44
                0x0000000000000000        0x0 xee.o
 .text.M_LoadMW
                0x0000000000000000        0x0 xee.o
 .text.M_LoadMV
                0x0000000000000000        0x0 xee.o
 .rodata.cst4   0x0000000000000000        0x0 xee.o
 .rodata.g_ident
                0x0000000000000000        0x0 xee.o
 .rodata.str1.8
                0x0000000000000000        0x0 xee.o
 COMMON         0x0000000000000000        0x0 xee.o
 .data          0x0000000000000000        0x0 /usr/local/xenon/usr/lib/libxenon.a(startup_from_xell.o)
 .bss           0x0000000000000000        0x0 /usr/local/xenon/usr/lib/libxenon.a(startup_from_xell.o)
 .text          0x0000000000000000        0x0 /usr/local/xenon/usr/lib/libxenon.a(console.o)
 .data          0x0000000000000000        0x0 /usr/local/xenon/usr/lib/libxenon.a(console.o)
 .bss           0x0000000000000000        0x0 /usr/local/xenon/usr/lib/libxenon.a(console.o)
 .text.console_pset
                0x0000000000000000        0x0 /usr/local/xenon/usr/lib/libxenon.a(console.o)
 .text.console_set_colors
                0x0000000000000000        0x0 /usr/local/xenon/usr/lib/libxenon.a(console.o)
 .text.console_close
                0x0000000000000000        0x0 /usr/local/xenon/usr/lib/libxenon.a(console.o)
 .text          0x0000000000000000        0x0 /usr/local/xenon/usr/lib/libxenon.a(newlib.o)
 .data          0x0000000000000000        0x0 /usr/local/xenon/usr/lib/libxenon.a(newlib.o)
 .bss           0x0000000000000000        0x0 /usr/local/xenon/usr/lib/libxenon.a(newlib.o)
 .text.vfs_default_lseek
                0x0000000000000000        0x0 /usr/local/xenon/usr/lib/libxenon.a(newlib.o)
 .text.umount   0x0000000000000000        0x0 /usr/local/xenon/usr/lib/libxenon.a(newlib.o)
 .text.unlink   0x0000000000000000        0x0 /usr/local/xenon/usr/lib/libxenon.a(newlib.o)
 .text.open     0x0000000000000000        0x0 /usr/local/xenon/usr/lib/libxenon.a(newlib.o)
 .text.mount    0x0000000000000000        0x0 /usr/local/xenon/usr/lib/libxenon.a(newlib.o)
 .text.vfs_console_open
                0x0000000000000000        0x0 /usr/local/xenon/usr/lib/libxenon.a(newlib.o)
 .data.mounts   0x0000000000000000        0x0 /usr/local/xenon/usr/lib/libxenon.a(newlib.o)
 .data.vfs_console_mount_ops
                0x0000000000000000        0x0 /usr/local/xenon/usr/lib/libxenon.a(newlib.o)
 .bss.ffs_files
                0x0000000000000000        0x0 /usr/local/xenon/usr/lib/libxenon.a(newlib.o)
 .data          0x0000000000000000        0x0 /usr/local/xenon/usr/lib/libxenon.a(atomic.o)
 .bss           0x0000000000000000        0x0 /usr/local/xenon/usr/lib/libxenon.a(atomic.o)
 .data          0x0000000000000000        0x0 /usr/local/xenon/usr/lib/libxenon.a(cache.o)
 .bss           0x0000000000000000        0x0 /usr/local/xenon/usr/lib/libxenon.a(cache.o)
 .text          0x0000000000000000        0x0 /usr/local/xenon/usr/lib/libxenon.a(except.o)
 .data          0x0000000000000000        0x0 /usr/local/xenon/usr/lib/libxenon.a(except.o)
 .bss           0x0000000000000000        0x0 /usr/local/xenon/usr/lib/libxenon.a(except.o)
 .text          0x0000000000000000        0x0 /usr/local/xenon/usr/lib/libxenon.a(vm.o)
 .data          0x0000000000000000        0x0 /usr/local/xenon/usr/lib/libxenon.a(vm.o)
 .bss           0x0000000000000000        0x0 /usr/local/xenon/usr/lib/libxenon.a(vm.o)
 .text          0x0000000000000000        0x0 /usr/local/xenon/usr/lib/libxenon.a(xenon_uart.o)
 .data          0x0000000000000000        0x0 /usr/local/xenon/usr/lib/libxenon.a(xenon_uart.o)
 .bss           0x0000000000000000        0x0 /usr/local/xenon/usr/lib/libxenon.a(xenon_uart.o)
 .text.kbhit    0x0000000000000000        0x0 /usr/local/xenon/usr/lib/libxenon.a(xenon_uart.o)
 .text.getch    0x0000000000000000        0x0 /usr/local/xenon/usr/lib/libxenon.a(xenon_uart.o)
 .text          0x0000000000000000        0x0 /usr/local/xenon/usr/lib/libxenon.a(edram.o)
 .data          0x0000000000000000        0x0 /usr/local/xenon/usr/lib/libxenon.a(edram.o)
 .bss           0x0000000000000000        0x0 /usr/local/xenon/usr/lib/libxenon.a(edram.o)
 .text.edram_bec
                0x0000000000000000        0x0 /usr/local/xenon/usr/lib/libxenon.a(edram.o)
 .text          0x0000000000000000        0x0 /usr/local/xenon/usr/lib/libxenon.a(xe.o)
 .data          0x0000000000000000        0x0 /usr/local/xenon/usr/lib/libxenon.a(xe.o)
 .bss           0x0000000000000000        0x0 /usr/local/xenon/usr/lib/libxenon.a(xe.o)
 .text.Xe_pSetBin
                0x0000000000000000        0x0 /usr/local/xenon/usr/lib/libxenon.a(xe.o)
 .text.Xe_pWaitUntilIdle
                0x0000000000000000        0x0 /usr/local/xenon/usr/lib/libxenon.a(xe.o)
 .text.Xe_pDrawNonIndexed
                0x0000000000000000        0x0 /usr/local/xenon/usr/lib/libxenon.a(xe.o)
 .text.Xe_pSetIndexOffset
                0x0000000000000000        0x0 /usr/local/xenon/usr/lib/libxenon.a(xe.o)
 .text.Xe_pResetRingbuffer
                0x0000000000000000        0x0 /usr/local/xenon/usr/lib/libxenon.a(xe.o)
 .text.Xe_pWaitReady2
                0x0000000000000000        0x0 /usr/local/xenon/usr/lib/libxenon.a(xe.o)
 .text.Xe_pEnableWriteback
                0x0000000000000000        0x0 /usr/local/xenon/usr/lib/libxenon.a(xe.o)
 .text.Xe_pGInit2
                0x0000000000000000        0x0 /usr/local/xenon/usr/lib/libxenon.a(xe.o)
 .text.Xe_DirtyAluConstant
                0x0000000000000000        0x0 /usr/local/xenon/usr/lib/libxenon.a(xe.o)
 .text.Xe_pInvalidateGpuCacheAll
                0x0000000000000000        0x0 /usr/local/xenon/usr/lib/libxenon.a(xe.o)
 .text.Xe_GetShaderLength
                0x0000000000000000        0x0 /usr/local/xenon/usr/lib/libxenon.a(xe.o)
 .text.VERTEX_FETCH
                0x0000000000000000        0x0 /usr/local/xenon/usr/lib/libxenon.a(xe.o)
 .text.Xe_pLoadShader
                0x0000000000000000        0x0 /usr/local/xenon/usr/lib/libxenon.a(xe.o)
 .text.Xe_pAlign
                0x0000000000000000        0x0 /usr/local/xenon/usr/lib/libxenon.a(xe.o)
 .text.Xe_pBlockUntilIdle
                0x0000000000000000        0x0 /usr/local/xenon/usr/lib/libxenon.a(xe.o)
 .text.Xe_pStep
                0x0000000000000000        0x0 /usr/local/xenon/usr/lib/libxenon.a(xe.o)
 .text.Xe_SetZFunc
                0x0000000000000000        0x0 /usr/local/xenon/usr/lib/libxenon.a(xe.o)
 .text.Xe_SetZWrite
                0x0000000000000000        0x0 /usr/local/xenon/usr/lib/libxenon.a(xe.o)
 .text.Xe_SetZEnable
                0x0000000000000000        0x0 /usr/local/xenon/usr/lib/libxenon.a(xe.o)
 .text.Xe_SetFillMode
                0x0000000000000000        0x0 /usr/local/xenon/usr/lib/libxenon.a(xe.o)
 .text.Xe_SetBlendControl
                0x0000000000000000        0x0 /usr/local/xenon/usr/lib/libxenon.a(xe.o)
 .text.Xe_SetAlphaTestEnable
                0x0000000000000000        0x0 /usr/local/xenon/usr/lib/libxenon.a(xe.o)
 .text.Xe_SetAlphaRef
                0x0000000000000000        0x0 /usr/local/xenon/usr/lib/libxenon.a(xe.o)
 .text.Xe_SetStencilRef
                0x0000000000000000        0x0 /usr/local/xenon/usr/lib/libxenon.a(xe.o)
 .text.Xe_SetStencilMask
                0x0000000000000000        0x0 /usr/local/xenon/usr/lib/libxenon.a(xe.o)
 .text.Xe_SetStencilWriteMask
                0x0000000000000000        0x0 /usr/local/xenon/usr/lib/libxenon.a(xe.o)
 .text.Xe_VBPoolAdd
                0x0000000000000000        0x0 /usr/local/xenon/usr/lib/libxenon.a(xe.o)
 .text.Xe_VBReclaim
                0x0000000000000000        0x0 /usr/local/xenon/usr/lib/libxenon.a(xe.o)
 .text.Xe_SetVertexShaderConstantB
                0x0000000000000000        0x0 /usr/local/xenon/usr/lib/libxenon.a(xe.o)
 .text.Xe_SetPixelShaderConstantB
                0x0000000000000000        0x0 /usr/local/xenon/usr/lib/libxenon.a(xe.o)
 .text.Xe_IsVBlank
                0x0000000000000000        0x0 /usr/local/xenon/usr/lib/libxenon.a(xe.o)
 .text.Xe_SetStencilOp
                0x0000000000000000        0x0 /usr/local/xenon/usr/lib/libxenon.a(xe.o)
 .text.Xe_SetStencilEnable
                0x0000000000000000        0x0 /usr/local/xenon/usr/lib/libxenon.a(xe.o)
 .text.Xe_SetStencilFunc
                0x0000000000000000        0x0 /usr/local/xenon/usr/lib/libxenon.a(xe.o)
 .text.Xe_SetAlphaFunc
                0x0000000000000000        0x0 /usr/local/xenon/usr/lib/libxenon.a(xe.o)
 .text.Xe_SetCullMode
                0x0000000000000000        0x0 /usr/local/xenon/usr/lib/libxenon.a(xe.o)
 .text.Xe_SetBlendOpAlpha
                0x0000000000000000        0x0 /usr/local/xenon/usr/lib/libxenon.a(xe.o)
 .text.Xe_SetDestBlendAlpha
                0x0000000000000000        0x0 /usr/local/xenon/usr/lib/libxenon.a(xe.o)
 .text.Xe_SetSrcBlendAlpha
                0x0000000000000000        0x0 /usr/local/xenon/usr/lib/libxenon.a(xe.o)
 .text.Xe_SetBlendOp
                0x0000000000000000        0x0 /usr/local/xenon/usr/lib/libxenon.a(xe.o)
 .text.Xe_SetDestBlend
                0x0000000000000000        0x0 /usr/local/xenon/usr/lib/libxenon.a(xe.o)
 .text.Xe_SetSrcBlend
                0x0000000000000000        0x0 /usr/local/xenon/usr/lib/libxenon.a(xe.o)
 .text.Xe_SetPixelShaderConstantF
                0x0000000000000000        0x0 /usr/local/xenon/usr/lib/libxenon.a(xe.o)
 .text.Xe_SetVertexShaderConstantF
                0x0000000000000000        0x0 /usr/local/xenon/usr/lib/libxenon.a(xe.o)
 .text.Xe_DrawPrimitive
                0x0000000000000000        0x0 /usr/local/xenon/usr/lib/libxenon.a(xe.o)
 .text.Xe_Draw  0x0000000000000000        0x0 /usr/local/xenon/usr/lib/libxenon.a(xe.o)
 .text.Xe_VBBegin
                0x0000000000000000        0x0 /usr/local/xenon/usr/lib/libxenon.a(xe.o)
 .text.Xe_LoadShader
                0x0000000000000000        0x0 /usr/local/xenon/usr/lib/libxenon.a(xe.o)
 .text.Xe_pInit1
                0x0000000000000000        0x0 /usr/local/xenon/usr/lib/libxenon.a(xe.o)
 .text.Xe_pReset
                0x0000000000000000        0x0 /usr/local/xenon/usr/lib/libxenon.a(xe.o)
 .text.Xe_pFree
                0x0000000000000000        0x0 /usr/local/xenon/usr/lib/libxenon.a(xe.o)
 .text.Xe_DestroyTexture
                0x0000000000000000        0x0 /usr/local/xenon/usr/lib/libxenon.a(xe.o)
 .text.Xe_DestroyIndexBuffer
                0x0000000000000000        0x0 /usr/local/xenon/usr/lib/libxenon.a(xe.o)
 .text.Xe_DestroyVertexBuffer
                0x0000000000000000        0x0 /usr/local/xenon/usr/lib/libxenon.a(xe.o)
 .text.Xe_CreateTexture
                0x0000000000000000        0x0 /usr/local/xenon/usr/lib/libxenon.a(xe.o)
 .text.Xe_VBPoolAlloc
                0x0000000000000000        0x0 /usr/local/xenon/usr/lib/libxenon.a(xe.o)
 .text.Xe_VBPut
                0x0000000000000000        0x0 /usr/local/xenon/usr/lib/libxenon.a(xe.o)
 .text.Xe_Surface_LockRect
                0x0000000000000000        0x0 /usr/local/xenon/usr/lib/libxenon.a(xe.o)
 .text.Xe_VBEnd
                0x0000000000000000        0x0 /usr/local/xenon/usr/lib/libxenon.a(xe.o)
 .text.Xe_ResolveInto
                0x0000000000000000        0x0 /usr/local/xenon/usr/lib/libxenon.a(xe.o)
 .text.Xe_Resolve
                0x0000000000000000        0x0 /usr/local/xenon/usr/lib/libxenon.a(xe.o)
 .text.Xe_Clear
                0x0000000000000000        0x0 /usr/local/xenon/usr/lib/libxenon.a(xe.o)
 .text.Xe_Surface_Unlock
                0x0000000000000000        0x0 /usr/local/xenon/usr/lib/libxenon.a(xe.o)
 .text.Xe_Sync  0x0000000000000000        0x0 /usr/local/xenon/usr/lib/libxenon.a(xe.o)
 .text.Xe_pRBMayKick
                0x0000000000000000        0x0 /usr/local/xenon/usr/lib/libxenon.a(xe.o)
 .rodata.__FUNCTION__.5474
                0x0000000000000000        0x0 /usr/local/xenon/usr/lib/libxenon.a(xe.o)
 .rodata.CSWTCH.80
                0x0000000000000000        0x0 /usr/local/xenon/usr/lib/libxenon.a(xe.o)
 .rodata.__FUNCTION__.5525
                0x0000000000000000        0x0 /usr/local/xenon/usr/lib/libxenon.a(xe.o)
 .rodata.__FUNCTION__.5487
                0x0000000000000000        0x0 /usr/local/xenon/usr/lib/libxenon.a(xe.o)
 .rodata.__FUNCTION__.5461
                0x0000000000000000        0x0 /usr/local/xenon/usr/lib/libxenon.a(xe.o)
 .rodata.__FUNCTION__.5545
                0x0000000000000000        0x0 /usr/local/xenon/usr/lib/libxenon.a(xe.o)
 .rodata.C.42.4963
                0x0000000000000000        0x0 /usr/local/xenon/usr/lib/libxenon.a(xe.o)
 .rodata.__FUNCTION__.5423
                0x0000000000000000        0x0 /usr/local/xenon/usr/lib/libxenon.a(xe.o)
 .rodata.__FUNCTION__.5500
                0x0000000000000000        0x0 /usr/local/xenon/usr/lib/libxenon.a(xe.o)
 .rodata.__FUNCTION__.5568
                0x0000000000000000        0x0 /usr/local/xenon/usr/lib/libxenon.a(xe.o)
 .rodata.__FUNCTION__.5435
                0x0000000000000000        0x0 /usr/local/xenon/usr/lib/libxenon.a(xe.o)
 .rodata.__FUNCTION__.5583
                0x0000000000000000        0x0 /usr/local/xenon/usr/lib/libxenon.a(xe.o)
 .rodata.__FUNCTION__.5448
                0x0000000000000000        0x0 /usr/local/xenon/usr/lib/libxenon.a(xe.o)
 .rodata.__FUNCTION__.6218
                0x0000000000000000        0x0 /usr/local/xenon/usr/lib/libxenon.a(xe.o)
 .rodata.__FUNCTION__.6044
                0x0000000000000000        0x0 /usr/local/xenon/usr/lib/libxenon.a(xe.o)
 .text          0x0000000000000000        0x0 /usr/local/xenon/usr/lib/libxenon.a(xenos.o)
 .data          0x0000000000000000        0x0 /usr/local/xenon/usr/lib/libxenon.a(xenos.o)
 .bss           0x0000000000000000        0x0 /usr/local/xenon/usr/lib/libxenon.a(xenos.o)
 .text          0x0000000000000000        0x0 /usr/local/xenon/usr/lib/libxenon.a(lib_malloc.o)
 .data          0x0000000000000000        0x0 /usr/local/xenon/usr/lib/libxenon.a(lib_malloc.o)
 .bss           0x0000000000000000        0x0 /usr/local/xenon/usr/lib/libxenon.a(lib_malloc.o)
 .text.kmempoolbase
                0x0000000000000000        0x0 /usr/local/xenon/usr/lib/libxenon.a(lib_malloc.o)
 .text.kmempoolsize
                0x0000000000000000        0x0 /usr/local/xenon/usr/lib/libxenon.a(lib_malloc.o)
 .text.kfree    0x0000000000000000        0x0 /usr/local/xenon/usr/lib/libxenon.a(lib_malloc.o)
 .text.kmemstats
                0x0000000000000000        0x0 /usr/local/xenon/usr/lib/libxenon.a(lib_malloc.o)
 .text.kmem_init
                0x0000000000000000        0x0 /usr/local/xenon/usr/lib/libxenon.a(lib_malloc.o)
 .bss.kmem_init_done
                0x0000000000000000        0x0 /usr/local/xenon/usr/lib/libxenon.a(lib_malloc.o)
 .bss.heap      0x0000000000000000        0x0 /usr/local/xenon/usr/lib/libxenon.a(lib_malloc.o)
 COMMON         0x0000000000000000        0x0 /usr/local/xenon/usr/lib/libxenon.a(lib_malloc.o)
 .text          0x0000000000000000        0x0 /usr/local/xenon/usr/lib/libxenon.a(io.o)
 .data          0x0000000000000000        0x0 /usr/local/xenon/usr/lib/libxenon.a(io.o)
 .bss           0x0000000000000000        0x0 /usr/local/xenon/usr/lib/libxenon.a(io.o)
 .text          0x0000000000000000        0x0 /usr/local/xenon/usr/lib/libxenon.a(time.o)
 .data          0x0000000000000000        0x0 /usr/local/xenon/usr/lib/libxenon.a(time.o)
 .bss           0x0000000000000000        0x0 /usr/local/xenon/usr/lib/libxenon.a(time.o)
 .text.mdelay   0x0000000000000000        0x0 /usr/local/xenon/usr/lib/libxenon.a(time.o)
 .text          0x0000000000000000        0x0 /usr/local/xenon/usr/lib/libxenon.a(xenon_gpio.o)
 .data          0x0000000000000000        0x0 /usr/local/xenon/usr/lib/libxenon.a(xenon_gpio.o)
 .bss           0x0000000000000000        0x0 /usr/local/xenon/usr/lib/libxenon.a(xenon_gpio.o)
 .text.xenon_gpio_control
                0x0000000000000000        0x0 /usr/local/xenon/usr/lib/libxenon.a(xenon_gpio.o)
 .rodata.C.0.1730
                0x0000000000000000        0x0 /usr/local/xenon/usr/lib/libxenon.a(xenon_gpio.o)
 .text          0x0000000000000000        0x0 /usr/local/xenon/usr/lib/libxenon.a(xenon_smc.o)
 .data          0x0000000000000000        0x0 /usr/local/xenon/usr/lib/libxenon.a(xenon_smc.o)
 .bss           0x0000000000000000        0x0 /usr/local/xenon/usr/lib/libxenon.a(xenon_smc.o)
 .text.xenon_smc_query_sensors
                0x0000000000000000        0x0 /usr/local/xenon/usr/lib/libxenon.a(xenon_smc.o)
 .text.xenon_smc_start_bootanim
                0x0000000000000000        0x0 /usr/local/xenon/usr/lib/libxenon.a(xenon_smc.o)
 .text.xenon_smc_power_shutdown
                0x0000000000000000        0x0 /usr/local/xenon/usr/lib/libxenon.a(xenon_smc.o)
 .text.xenon_smc_set_power_led
                0x0000000000000000        0x0 /usr/local/xenon/usr/lib/libxenon.a(xenon_smc.o)
 .text.xenon_smc_set_led
                0x0000000000000000        0x0 /usr/local/xenon/usr/lib/libxenon.a(xenon_smc.o)
 .text.xenon_smc_i2c_read
                0x0000000000000000        0x0 /usr/local/xenon/usr/lib/libxenon.a(xenon_smc.o)
 .text          0x0000000000000000        0x0 /usr/local/xenon/usr/lib/libxenon.a(xenon_config.o)
 .data          0x0000000000000000        0x0 /usr/local/xenon/usr/lib/libxenon.a(xenon_config.o)
 .bss           0x0000000000000000        0x0 /usr/local/xenon/usr/lib/libxenon.a(xenon_config.o)
 .text.xenon_config_get_vid_delta
                0x0000000000000000        0x0 /usr/local/xenon/usr/lib/libxenon.a(xenon_config.o)
 .text.xenon_config_get_mac_addr
                0x0000000000000000        0x0 /usr/local/xenon/usr/lib/libxenon.a(xenon_config.o)
 .rodata.C.4.2940
                0x0000000000000000        0x0 /usr/local/xenon/usr/lib/libxenon.a(xenon_config.o)
 .text          0x0000000000000000        0x0 /usr/local/xenon/usr/lib/libxenon.a(ucode.o)
 .data          0x0000000000000000        0x0 /usr/local/xenon/usr/lib/libxenon.a(ucode.o)
 .bss           0x0000000000000000        0x0 /usr/local/xenon/usr/lib/libxenon.a(ucode.o)
 .text          0x0000000000000000        0x0 /usr/local/xenon/usr/lib/libxenon.a(xenon_sfcx.o)
 .data          0x0000000000000000        0x0 /usr/local/xenon/usr/lib/libxenon.a(xenon_sfcx.o)
 .bss           0x0000000000000000        0x0 /usr/local/xenon/usr/lib/libxenon.a(xenon_sfcx.o)
 .text.sfcx_get_blocknumber
                0x0000000000000000        0x0 /usr/local/xenon/usr/lib/libxenon.a(xenon_sfcx.o)
 .text.sfcx_set_blocknumber
                0x0000000000000000        0x0 /usr/local/xenon/usr/lib/libxenon.a(xenon_sfcx.o)
 .text.sfcx_get_blockversion
                0x0000000000000000        0x0 /usr/local/xenon/usr/lib/libxenon.a(xenon_sfcx.o)
 .text.sfcx_set_blockversion
                0x0000000000000000        0x0 /usr/local/xenon/usr/lib/libxenon.a(xenon_sfcx.o)
 .text.sfcx_set_pagevalid
                0x0000000000000000        0x0 /usr/local/xenon/usr/lib/libxenon.a(xenon_sfcx.o)
 .text.sfcx_set_pageinvalid
                0x0000000000000000        0x0 /usr/local/xenon/usr/lib/libxenon.a(xenon_sfcx.o)
 .text.sfcx_is_pagevalid
                0x0000000000000000        0x0 /usr/local/xenon/usr/lib/libxenon.a(xenon_sfcx.o)
 .text.sfcx_block_to_address
                0x0000000000000000        0x0 /usr/local/xenon/usr/lib/libxenon.a(xenon_sfcx.o)
 .text.sfcx_address_to_block
                0x0000000000000000        0x0 /usr/local/xenon/usr/lib/libxenon.a(xenon_sfcx.o)
 .text.sfcx_calcecc
                0x0000000000000000        0x0 /usr/local/xenon/usr/lib/libxenon.a(xenon_sfcx.o)
 .text.sfcx_erase_block
                0x0000000000000000        0x0 /usr/local/xenon/usr/lib/libxenon.a(xenon_sfcx.o)
 .text.sfcx_write_page
                0x0000000000000000        0x0 /usr/local/xenon/usr/lib/libxenon.a(xenon_sfcx.o)
 .text.sfcx_write_block
                0x0000000000000000        0x0 /usr/local/xenon/usr/lib/libxenon.a(xenon_sfcx.o)
 .text.sfcx_read_block
                0x0000000000000000        0x0 /usr/local/xenon/usr/lib/libxenon.a(xenon_sfcx.o)
 .text          0x0000000000000000        0x0 /usr/local/xenon/xenon/lib/32/libm.a(lib_a-sf_tan.o)
 .data          0x0000000000000000        0x0 /usr/local/xenon/xenon/lib/32/libm.a(lib_a-sf_tan.o)
 .bss           0x0000000000000000        0x0 /usr/local/xenon/xenon/lib/32/libm.a(lib_a-sf_tan.o)
 .got2          0x0000000000000000        0x0 /usr/local/xenon/xenon/lib/32/libm.a(lib_a-sf_tan.o)
 .rodata.cst4   0x0000000000000000        0x0 /usr/local/xenon/xenon/lib/32/libm.a(lib_a-sf_tan.o)
 .text          0x0000000000000000        0x0 /usr/local/xenon/xenon/lib/32/libm.a(lib_a-wf_sincos.o)
 .data          0x0000000000000000        0x0 /usr/local/xenon/xenon/lib/32/libm.a(lib_a-wf_sincos.o)
 .bss           0x0000000000000000        0x0 /usr/local/xenon/xenon/lib/32/libm.a(lib_a-wf_sincos.o)
 .got2          0x0000000000000000        0x0 /usr/local/xenon/xenon/lib/32/libm.a(lib_a-wf_sincos.o)
 .text          0x0000000000000000        0x0 /usr/local/xenon/xenon/lib/32/libm.a(lib_a-w_sincos.o)
 .data          0x0000000000000000        0x0 /usr/local/xenon/xenon/lib/32/libm.a(lib_a-w_sincos.o)
 .bss           0x0000000000000000        0x0 /usr/local/xenon/xenon/lib/32/libm.a(lib_a-w_sincos.o)
 .got2          0x0000000000000000        0x0 /usr/local/xenon/xenon/lib/32/libm.a(lib_a-w_sincos.o)
 .text          0x0000000000000000        0x0 /usr/local/xenon/xenon/lib/32/libm.a(lib_a-ef_rem_pio2.o)
 .data          0x0000000000000000        0x0 /usr/local/xenon/xenon/lib/32/libm.a(lib_a-ef_rem_pio2.o)
 .bss           0x0000000000000000        0x0 /usr/local/xenon/xenon/lib/32/libm.a(lib_a-ef_rem_pio2.o)
 .got2          0x0000000000000000        0x0 /usr/local/xenon/xenon/lib/32/libm.a(lib_a-ef_rem_pio2.o)
 .rodata        0x0000000000000000        0x0 /usr/local/xenon/xenon/lib/32/libm.a(lib_a-ef_rem_pio2.o)
 .rodata.cst4   0x0000000000000000        0x0 /usr/local/xenon/xenon/lib/32/libm.a(lib_a-ef_rem_pio2.o)
 .text          0x0000000000000000        0x0 /usr/local/xenon/xenon/lib/32/libm.a(lib_a-kf_rem_pio2.o)
 .data          0x0000000000000000        0x0 /usr/local/xenon/xenon/lib/32/libm.a(lib_a-kf_rem_pio2.o)
 .bss           0x0000000000000000        0x0 /usr/local/xenon/xenon/lib/32/libm.a(lib_a-kf_rem_pio2.o)
 .got2          0x0000000000000000        0x0 /usr/local/xenon/xenon/lib/32/libm.a(lib_a-kf_rem_pio2.o)
 .rodata        0x0000000000000000        0x0 /usr/local/xenon/xenon/lib/32/libm.a(lib_a-kf_rem_pio2.o)
 .rodata.cst4   0x0000000000000000        0x0 /usr/local/xenon/xenon/lib/32/libm.a(lib_a-kf_rem_pio2.o)
 .text          0x0000000000000000        0x0 /usr/local/xenon/xenon/lib/32/libm.a(lib_a-kf_tan.o)
 .data          0x0000000000000000        0x0 /usr/local/xenon/xenon/lib/32/libm.a(lib_a-kf_tan.o)
 .bss           0x0000000000000000        0x0 /usr/local/xenon/xenon/lib/32/libm.a(lib_a-kf_tan.o)
 .got2          0x0000000000000000        0x0 /usr/local/xenon/xenon/lib/32/libm.a(lib_a-kf_tan.o)
 .rodata.cst4   0x0000000000000000        0x0 /usr/local/xenon/xenon/lib/32/libm.a(lib_a-kf_tan.o)
 .text          0x0000000000000000        0x0 /usr/local/xenon/xenon/lib/32/libm.a(lib_a-s_cos.o)
 .data          0x0000000000000000        0x0 /usr/local/xenon/xenon/lib/32/libm.a(lib_a-s_cos.o)
 .bss           0x0000000000000000        0x0 /usr/local/xenon/xenon/lib/32/libm.a(lib_a-s_cos.o)
 .got2          0x0000000000000000        0x0 /usr/local/xenon/xenon/lib/32/libm.a(lib_a-s_cos.o)
 .rodata.cst4   0x0000000000000000        0x0 /usr/local/xenon/xenon/lib/32/libm.a(lib_a-s_cos.o)
 .text          0x0000000000000000        0x0 /usr/local/xenon/xenon/lib/32/libm.a(lib_a-sf_cos.o)
 .data          0x0000000000000000        0x0 /usr/local/xenon/xenon/lib/32/libm.a(lib_a-sf_cos.o)
 .bss           0x0000000000000000        0x0 /usr/local/xenon/xenon/lib/32/libm.a(lib_a-sf_cos.o)
 .got2          0x0000000000000000        0x0 /usr/local/xenon/xenon/lib/32/libm.a(lib_a-sf_cos.o)
 .rodata.cst4   0x0000000000000000        0x0 /usr/local/xenon/xenon/lib/32/libm.a(lib_a-sf_cos.o)
 .text          0x0000000000000000        0x0 /usr/local/xenon/xenon/lib/32/libm.a(lib_a-sf_fabs.o)
 .data          0x0000000000000000        0x0 /usr/local/xenon/xenon/lib/32/libm.a(lib_a-sf_fabs.o)
 .bss           0x0000000000000000        0x0 /usr/local/xenon/xenon/lib/32/libm.a(lib_a-sf_fabs.o)
 .got2          0x0000000000000000        0x0 /usr/local/xenon/xenon/lib/32/libm.a(lib_a-sf_fabs.o)
 .text          0x0000000000000000        0x0 /usr/local/xenon/xenon/lib/32/libm.a(lib_a-sf_floor.o)
 .data          0x0000000000000000        0x0 /usr/local/xenon/xenon/lib/32/libm.a(lib_a-sf_floor.o)
 .bss           0x0000000000000000        0x0 /usr/local/xenon/xenon/lib/32/libm.a(lib_a-sf_floor.o)
 .got2          0x0000000000000000        0x0 /usr/local/xenon/xenon/lib/32/libm.a(lib_a-sf_floor.o)
 .rodata.cst4   0x0000000000000000        0x0 /usr/local/xenon/xenon/lib/32/libm.a(lib_a-sf_floor.o)
 .text          0x0000000000000000        0x0 /usr/local/xenon/xenon/lib/32/libm.a(lib_a-sf_scalbn.o)
 .data          0x0000000000000000        0x0 /usr/local/xenon/xenon/lib/32/libm.a(lib_a-sf_scalbn.o)
 .bss           0x0000000000000000        0x0 /usr/local/xenon/xenon/lib/32/libm.a(lib_a-sf_scalbn.o)
 .got2          0x0000000000000000        0x0 /usr/local/xenon/xenon/lib/32/libm.a(lib_a-sf_scalbn.o)
 .rodata.cst4   0x0000000000000000        0x0 /usr/local/xenon/xenon/lib/32/libm.a(lib_a-sf_scalbn.o)
 .text          0x0000000000000000        0x0 /usr/local/xenon/xenon/lib/32/libm.a(lib_a-sf_sin.o)
 .data          0x0000000000000000        0x0 /usr/local/xenon/xenon/lib/32/libm.a(lib_a-sf_sin.o)
 .bss           0x0000000000000000        0x0 /usr/local/xenon/xenon/lib/32/libm.a(lib_a-sf_sin.o)
 .got2          0x0000000000000000        0x0 /usr/local/xenon/xenon/lib/32/libm.a(lib_a-sf_sin.o)
 .rodata.cst4   0x0000000000000000        0x0 /usr/local/xenon/xenon/lib/32/libm.a(lib_a-sf_sin.o)
 .text          0x0000000000000000        0x0 /usr/local/xenon/xenon/lib/32/libm.a(lib_a-s_sin.o)
 .data          0x0000000000000000        0x0 /usr/local/xenon/xenon/lib/32/libm.a(lib_a-s_sin.o)
 .bss           0x0000000000000000        0x0 /usr/local/xenon/xenon/lib/32/libm.a(lib_a-s_sin.o)
 .got2          0x0000000000000000        0x0 /usr/local/xenon/xenon/lib/32/libm.a(lib_a-s_sin.o)
 .rodata.cst4   0x0000000000000000        0x0 /usr/local/xenon/xenon/lib/32/libm.a(lib_a-s_sin.o)
 .text          0x0000000000000000        0x0 /usr/local/xenon/xenon/lib/32/libm.a(lib_a-e_rem_pio2.o)
 .data          0x0000000000000000        0x0 /usr/local/xenon/xenon/lib/32/libm.a(lib_a-e_rem_pio2.o)
 .bss           0x0000000000000000        0x0 /usr/local/xenon/xenon/lib/32/libm.a(lib_a-e_rem_pio2.o)
 .got2          0x0000000000000000        0x0 /usr/local/xenon/xenon/lib/32/libm.a(lib_a-e_rem_pio2.o)
 .rodata        0x0000000000000000        0x0 /usr/local/xenon/xenon/lib/32/libm.a(lib_a-e_rem_pio2.o)
 .rodata.cst4   0x0000000000000000        0x0 /usr/local/xenon/xenon/lib/32/libm.a(lib_a-e_rem_pio2.o)
 .rodata.cst8   0x0000000000000000        0x0 /usr/local/xenon/xenon/lib/32/libm.a(lib_a-e_rem_pio2.o)
 .text          0x0000000000000000        0x0 /usr/local/xenon/xenon/lib/32/libm.a(lib_a-k_cos.o)
 .data          0x0000000000000000        0x0 /usr/local/xenon/xenon/lib/32/libm.a(lib_a-k_cos.o)
 .bss           0x0000000000000000        0x0 /usr/local/xenon/xenon/lib/32/libm.a(lib_a-k_cos.o)
 .got2          0x0000000000000000        0x0 /usr/local/xenon/xenon/lib/32/libm.a(lib_a-k_cos.o)
 .rodata.cst4   0x0000000000000000        0x0 /usr/local/xenon/xenon/lib/32/libm.a(lib_a-k_cos.o)
 .rodata.cst8   0x0000000000000000        0x0 /usr/local/xenon/xenon/lib/32/libm.a(lib_a-k_cos.o)
 .text          0x0000000000000000        0x0 /usr/local/xenon/xenon/lib/32/libm.a(lib_a-kf_cos.o)
 .data          0x0000000000000000        0x0 /usr/local/xenon/xenon/lib/32/libm.a(lib_a-kf_cos.o)
 .bss           0x0000000000000000        0x0 /usr/local/xenon/xenon/lib/32/libm.a(lib_a-kf_cos.o)
 .got2          0x0000000000000000        0x0 /usr/local/xenon/xenon/lib/32/libm.a(lib_a-kf_cos.o)
 .rodata.cst4   0x0000000000000000        0x0 /usr/local/xenon/xenon/lib/32/libm.a(lib_a-kf_cos.o)
 .text          0x0000000000000000        0x0 /usr/local/xenon/xenon/lib/32/libm.a(lib_a-kf_sin.o)
 .data          0x0000000000000000        0x0 /usr/local/xenon/xenon/lib/32/libm.a(lib_a-kf_sin.o)
 .bss           0x0000000000000000        0x0 /usr/local/xenon/xenon/lib/32/libm.a(lib_a-kf_sin.o)
 .got2          0x0000000000000000        0x0 /usr/local/xenon/xenon/lib/32/libm.a(lib_a-kf_sin.o)
 .rodata.cst4   0x0000000000000000        0x0 /usr/local/xenon/xenon/lib/32/libm.a(lib_a-kf_sin.o)
 .text          0x0000000000000000        0x0 /usr/local/xenon/xenon/lib/32/libm.a(lib_a-k_rem_pio2.o)
 .data          0x0000000000000000        0x0 /usr/local/xenon/xenon/lib/32/libm.a(lib_a-k_rem_pio2.o)
 .bss           0x0000000000000000        0x0 /usr/local/xenon/xenon/lib/32/libm.a(lib_a-k_rem_pio2.o)
 .got2          0x0000000000000000        0x0 /usr/local/xenon/xenon/lib/32/libm.a(lib_a-k_rem_pio2.o)
 .rodata        0x0000000000000000        0x0 /usr/local/xenon/xenon/lib/32/libm.a(lib_a-k_rem_pio2.o)
 .rodata.cst4   0x0000000000000000        0x0 /usr/local/xenon/xenon/lib/32/libm.a(lib_a-k_rem_pio2.o)
 .text          0x0000000000000000        0x0 /usr/local/xenon/xenon/lib/32/libm.a(lib_a-k_sin.o)
 .data          0x0000000000000000        0x0 /usr/local/xenon/xenon/lib/32/libm.a(lib_a-k_sin.o)
 .bss           0x0000000000000000        0x0 /usr/local/xenon/xenon/lib/32/libm.a(lib_a-k_sin.o)
 .got2          0x0000000000000000        0x0 /usr/local/xenon/xenon/lib/32/libm.a(lib_a-k_sin.o)
 .rodata.cst4   0x0000000000000000        0x0 /usr/local/xenon/xenon/lib/32/libm.a(lib_a-k_sin.o)
 .rodata.cst8   0x0000000000000000        0x0 /usr/local/xenon/xenon/lib/32/libm.a(lib_a-k_sin.o)
 .text          0x0000000000000000        0x0 /usr/local/xenon/xenon/lib/32/libm.a(lib_a-s_fabs.o)
 .data          0x0000000000000000        0x0 /usr/local/xenon/xenon/lib/32/libm.a(lib_a-s_fabs.o)
 .bss           0x0000000000000000        0x0 /usr/local/xenon/xenon/lib/32/libm.a(lib_a-s_fabs.o)
 .got2          0x0000000000000000        0x0 /usr/local/xenon/xenon/lib/32/libm.a(lib_a-s_fabs.o)
 .text          0x0000000000000000        0x0 /usr/local/xenon/xenon/lib/32/libm.a(lib_a-sf_copysign.o)
 .data          0x0000000000000000        0x0 /usr/local/xenon/xenon/lib/32/libm.a(lib_a-sf_copysign.o)
 .bss           0x0000000000000000        0x0 /usr/local/xenon/xenon/lib/32/libm.a(lib_a-sf_copysign.o)
 .got2          0x0000000000000000        0x0 /usr/local/xenon/xenon/lib/32/libm.a(lib_a-sf_copysign.o)
 .text          0x0000000000000000        0x0 /usr/local/xenon/xenon/lib/32/libm.a(lib_a-s_floor.o)
 .data          0x0000000000000000        0x0 /usr/local/xenon/xenon/lib/32/libm.a(lib_a-s_floor.o)
 .bss           0x0000000000000000        0x0 /usr/local/xenon/xenon/lib/32/libm.a(lib_a-s_floor.o)
 .got2          0x0000000000000000        0x0 /usr/local/xenon/xenon/lib/32/libm.a(lib_a-s_floor.o)
 .rodata.cst4   0x0000000000000000        0x0 /usr/local/xenon/xenon/lib/32/libm.a(lib_a-s_floor.o)
 .rodata.cst8   0x0000000000000000        0x0 /usr/local/xenon/xenon/lib/32/libm.a(lib_a-s_floor.o)
 .text          0x0000000000000000        0x0 /usr/local/xenon/xenon/lib/32/libm.a(lib_a-s_scalbn.o)
 .data          0x0000000000000000        0x0 /usr/local/xenon/xenon/lib/32/libm.a(lib_a-s_scalbn.o)
 .bss           0x0000000000000000        0x0 /usr/local/xenon/xenon/lib/32/libm.a(lib_a-s_scalbn.o)
 .got2          0x0000000000000000        0x0 /usr/local/xenon/xenon/lib/32/libm.a(lib_a-s_scalbn.o)
 .rodata.cst4   0x0000000000000000        0x0 /usr/local/xenon/xenon/lib/32/libm.a(lib_a-s_scalbn.o)
 .rodata.cst8   0x0000000000000000        0x0 /usr/local/xenon/xenon/lib/32/libm.a(lib_a-s_scalbn.o)
 .text          0x0000000000000000        0x0 /usr/local/xenon/xenon/lib/32/libm.a(lib_a-s_copysign.o)
 .data          0x0000000000000000        0x0 /usr/local/xenon/xenon/lib/32/libm.a(lib_a-s_copysign.o)
 .bss           0x0000000000000000        0x0 /usr/local/xenon/xenon/lib/32/libm.a(lib_a-s_copysign.o)
 .got2          0x0000000000000000        0x0 /usr/local/xenon/xenon/lib/32/libm.a(lib_a-s_copysign.o)
 .data          0x0000000000000000        0x0 /usr/local/xenon/xenon/lib/32/libc.a(lib_a-abort.o)
 .bss           0x0000000000000000        0x0 /usr/local/xenon/xenon/lib/32/libc.a(lib_a-abort.o)
 .got2          0x0000000000000000        0x0 /usr/local/xenon/xenon/lib/32/libc.a(lib_a-abort.o)
 .data          0x0000000000000000        0x0 /usr/local/xenon/xenon/lib/32/libc.a(lib_a-assert.o)
 .bss           0x0000000000000000        0x0 /usr/local/xenon/xenon/lib/32/libc.a(lib_a-assert.o)
 .data          0x0000000000000000        0x0 /usr/local/xenon/xenon/lib/32/libc.a(lib_a-errno.o)
 .bss           0x0000000000000000        0x0 /usr/local/xenon/xenon/lib/32/libc.a(lib_a-errno.o)
 .data          0x0000000000000000        0x0 /usr/local/xenon/xenon/lib/32/libc.a(lib_a-fclose.o)
 .bss           0x0000000000000000        0x0 /usr/local/xenon/xenon/lib/32/libc.a(lib_a-fclose.o)
 .data          0x0000000000000000        0x0 /usr/local/xenon/xenon/lib/32/libc.a(lib_a-fflush.o)
 .bss           0x0000000000000000        0x0 /usr/local/xenon/xenon/lib/32/libc.a(lib_a-fflush.o)
 .data          0x0000000000000000        0x0 /usr/local/xenon/xenon/lib/32/libc.a(lib_a-findfp.o)
 .bss           0x0000000000000000        0x0 /usr/local/xenon/xenon/lib/32/libc.a(lib_a-findfp.o)
 .data          0x0000000000000000        0x0 /usr/local/xenon/xenon/lib/32/libc.a(lib_a-fiprintf.o)
 .bss           0x0000000000000000        0x0 /usr/local/xenon/xenon/lib/32/libc.a(lib_a-fiprintf.o)
 .text          0x0000000000000000        0x0 /usr/local/xenon/xenon/lib/32/libc.a(lib_a-fopen.o)
 .data          0x0000000000000000        0x0 /usr/local/xenon/xenon/lib/32/libc.a(lib_a-fopen.o)
 .bss           0x0000000000000000        0x0 /usr/local/xenon/xenon/lib/32/libc.a(lib_a-fopen.o)
 .got2          0x0000000000000000        0x0 /usr/local/xenon/xenon/lib/32/libc.a(lib_a-fopen.o)
 .text          0x0000000000000000        0x0 /usr/local/xenon/xenon/lib/32/libc.a(lib_a-fread.o)
 .data          0x0000000000000000        0x0 /usr/local/xenon/xenon/lib/32/libc.a(lib_a-fread.o)
 .bss           0x0000000000000000        0x0 /usr/local/xenon/xenon/lib/32/libc.a(lib_a-fread.o)
 .got2          0x0000000000000000        0x0 /usr/local/xenon/xenon/lib/32/libc.a(lib_a-fread.o)
 .data          0x0000000000000000        0x0 /usr/local/xenon/xenon/lib/32/libc.a(lib_a-freer.o)
 .bss           0x0000000000000000        0x0 /usr/local/xenon/xenon/lib/32/libc.a(lib_a-freer.o)
 .text          0x0000000000000000        0x0 /usr/local/xenon/xenon/lib/32/libc.a(lib_a-fseek.o)
 .data          0x0000000000000000        0x0 /usr/local/xenon/xenon/lib/32/libc.a(lib_a-fseek.o)
 .bss           0x0000000000000000        0x0 /usr/local/xenon/xenon/lib/32/libc.a(lib_a-fseek.o)
 .got2          0x0000000000000000        0x0 /usr/local/xenon/xenon/lib/32/libc.a(lib_a-fseek.o)
 .data          0x0000000000000000        0x0 /usr/local/xenon/xenon/lib/32/libc.a(lib_a-fstatr.o)
 .bss           0x0000000000000000        0x0 /usr/local/xenon/xenon/lib/32/libc.a(lib_a-fstatr.o)
 .text          0x0000000000000000        0x0 /usr/local/xenon/xenon/lib/32/libc.a(lib_a-ftell.o)
 .data          0x0000000000000000        0x0 /usr/local/xenon/xenon/lib/32/libc.a(lib_a-ftell.o)
 .bss           0x0000000000000000        0x0 /usr/local/xenon/xenon/lib/32/libc.a(lib_a-ftell.o)
 .got2          0x0000000000000000        0x0 /usr/local/xenon/xenon/lib/32/libc.a(lib_a-ftell.o)
 .data          0x0000000000000000        0x0 /usr/local/xenon/xenon/lib/32/libc.a(lib_a-fwalk.o)
 .bss           0x0000000000000000        0x0 /usr/local/xenon/xenon/lib/32/libc.a(lib_a-fwalk.o)
 .got2          0x0000000000000000        0x0 /usr/local/xenon/xenon/lib/32/libc.a(lib_a-fwalk.o)
 .text          0x0000000000000000        0x0 /usr/local/xenon/xenon/lib/32/libc.a(lib_a-impure.o)
 .data          0x0000000000000000        0x0 /usr/local/xenon/xenon/lib/32/libc.a(lib_a-impure.o)
 .bss           0x0000000000000000        0x0 /usr/local/xenon/xenon/lib/32/libc.a(lib_a-impure.o)
 .got2          0x0000000000000000        0x0 /usr/local/xenon/xenon/lib/32/libc.a(lib_a-impure.o)
 .data          0x0000000000000000        0x0 /usr/local/xenon/xenon/lib/32/libc.a(lib_a-makebuf.o)
 .bss           0x0000000000000000        0x0 /usr/local/xenon/xenon/lib/32/libc.a(lib_a-makebuf.o)
 .data          0x0000000000000000        0x0 /usr/local/xenon/xenon/lib/32/libc.a(lib_a-malloc.o)
 .bss           0x0000000000000000        0x0 /usr/local/xenon/xenon/lib/32/libc.a(lib_a-malloc.o)
 .data          0x0000000000000000        0x0 /usr/local/xenon/xenon/lib/32/libc.a(lib_a-mallocr.o)
 .data          0x0000000000000000        0x0 /usr/local/xenon/xenon/lib/32/libc.a(lib_a-memcpy.o)
 .bss           0x0000000000000000        0x0 /usr/local/xenon/xenon/lib/32/libc.a(lib_a-memcpy.o)
 .got2          0x0000000000000000        0x0 /usr/local/xenon/xenon/lib/32/libc.a(lib_a-memcpy.o)
 .data          0x0000000000000000        0x0 /usr/local/xenon/xenon/lib/32/libc.a(lib_a-memset.o)
 .bss           0x0000000000000000        0x0 /usr/local/xenon/xenon/lib/32/libc.a(lib_a-memset.o)
 .got2          0x0000000000000000        0x0 /usr/local/xenon/xenon/lib/32/libc.a(lib_a-memset.o)
 .data          0x0000000000000000        0x0 /usr/local/xenon/xenon/lib/32/libc.a(lib_a-mlock.o)
 .bss           0x0000000000000000        0x0 /usr/local/xenon/xenon/lib/32/libc.a(lib_a-mlock.o)
 .got2          0x0000000000000000        0x0 /usr/local/xenon/xenon/lib/32/libc.a(lib_a-mlock.o)
 .text          0x0000000000000000        0x0 /usr/local/xenon/xenon/lib/32/libc.a(lib_a-openr.o)
 .data          0x0000000000000000        0x0 /usr/local/xenon/xenon/lib/32/libc.a(lib_a-openr.o)
 .bss           0x0000000000000000        0x0 /usr/local/xenon/xenon/lib/32/libc.a(lib_a-openr.o)
 .got2          0x0000000000000000        0x0 /usr/local/xenon/xenon/lib/32/libc.a(lib_a-openr.o)
 .data          0x0000000000000000        0x0 /usr/local/xenon/xenon/lib/32/libc.a(lib_a-printf.o)
 .bss           0x0000000000000000        0x0 /usr/local/xenon/xenon/lib/32/libc.a(lib_a-printf.o)
 .data          0x0000000000000000        0x0 /usr/local/xenon/xenon/lib/32/libc.a(lib_a-putchar.o)
 .bss           0x0000000000000000        0x0 /usr/local/xenon/xenon/lib/32/libc.a(lib_a-putchar.o)
 .data          0x0000000000000000        0x0 /usr/local/xenon/xenon/lib/32/libc.a(lib_a-putc.o)
 .bss           0x0000000000000000        0x0 /usr/local/xenon/xenon/lib/32/libc.a(lib_a-putc.o)
 .data          0x0000000000000000        0x0 /usr/local/xenon/xenon/lib/32/libc.a(lib_a-puts.o)
 .bss           0x0000000000000000        0x0 /usr/local/xenon/xenon/lib/32/libc.a(lib_a-puts.o)
 .text          0x0000000000000000        0x0 /usr/local/xenon/xenon/lib/32/libc.a(lib_a-reent.o)
 .data          0x0000000000000000        0x0 /usr/local/xenon/xenon/lib/32/libc.a(lib_a-reent.o)
 .bss           0x0000000000000000        0x0 /usr/local/xenon/xenon/lib/32/libc.a(lib_a-reent.o)
 .got2          0x0000000000000000        0x0 /usr/local/xenon/xenon/lib/32/libc.a(lib_a-reent.o)
 .text          0x0000000000000000        0x0 /usr/local/xenon/xenon/lib/32/libc.a(lib_a-refill.o)
 .data          0x0000000000000000        0x0 /usr/local/xenon/xenon/lib/32/libc.a(lib_a-refill.o)
 .bss           0x0000000000000000        0x0 /usr/local/xenon/xenon/lib/32/libc.a(lib_a-refill.o)
 .got2          0x0000000000000000        0x0 /usr/local/xenon/xenon/lib/32/libc.a(lib_a-refill.o)
 .data          0x0000000000000000        0x0 /usr/local/xenon/xenon/lib/32/libc.a(lib_a-sbrkr.o)
 .bss           0x0000000000000000        0x0 /usr/local/xenon/xenon/lib/32/libc.a(lib_a-sbrkr.o)
 .data          0x0000000000000000        0x0 /usr/local/xenon/xenon/lib/32/libc.a(lib_a-signal.o)
 .bss           0x0000000000000000        0x0 /usr/local/xenon/xenon/lib/32/libc.a(lib_a-signal.o)
 .data          0x0000000000000000        0x0 /usr/local/xenon/xenon/lib/32/libc.a(lib_a-signalr.o)
 .bss           0x0000000000000000        0x0 /usr/local/xenon/xenon/lib/32/libc.a(lib_a-signalr.o)
 .data          0x0000000000000000        0x0 /usr/local/xenon/xenon/lib/32/libc.a(lib_a-stdio.o)
 .bss           0x0000000000000000        0x0 /usr/local/xenon/xenon/lib/32/libc.a(lib_a-stdio.o)
 .got2          0x0000000000000000        0x0 /usr/local/xenon/xenon/lib/32/libc.a(lib_a-stdio.o)
 .data          0x0000000000000000        0x0 /usr/local/xenon/xenon/lib/32/libc.a(lib_a-strcmp.o)
 .bss           0x0000000000000000        0x0 /usr/local/xenon/xenon/lib/32/libc.a(lib_a-strcmp.o)
 .got2          0x0000000000000000        0x0 /usr/local/xenon/xenon/lib/32/libc.a(lib_a-strcmp.o)
 .text          0x0000000000000000        0x0 /usr/local/xenon/xenon/lib/32/libc.a(lib_a-strcpy.o)
 .data          0x0000000000000000        0x0 /usr/local/xenon/xenon/lib/32/libc.a(lib_a-strcpy.o)
 .bss           0x0000000000000000        0x0 /usr/local/xenon/xenon/lib/32/libc.a(lib_a-strcpy.o)
 .got2          0x0000000000000000        0x0 /usr/local/xenon/xenon/lib/32/libc.a(lib_a-strcpy.o)
 .data          0x0000000000000000        0x0 /usr/local/xenon/xenon/lib/32/libc.a(lib_a-strlen.o)
 .bss           0x0000000000000000        0x0 /usr/local/xenon/xenon/lib/32/libc.a(lib_a-strlen.o)
 .got2          0x0000000000000000        0x0 /usr/local/xenon/xenon/lib/32/libc.a(lib_a-strlen.o)
 .text          0x0000000000000000        0x0 /usr/local/xenon/xenon/lib/32/libc.a(lib_a-strncmp.o)
 .data          0x0000000000000000        0x0 /usr/local/xenon/xenon/lib/32/libc.a(lib_a-strncmp.o)
 .bss           0x0000000000000000        0x0 /usr/local/xenon/xenon/lib/32/libc.a(lib_a-strncmp.o)
 .got2          0x0000000000000000        0x0 /usr/local/xenon/xenon/lib/32/libc.a(lib_a-strncmp.o)
 .data          0x0000000000000000        0x0 /usr/local/xenon/xenon/lib/32/libc.a(lib_a-vfiprintf.o)
 .bss           0x0000000000000000        0x0 /usr/local/xenon/xenon/lib/32/libc.a(lib_a-vfiprintf.o)
 .data          0x0000000000000000        0x0 /usr/local/xenon/xenon/lib/32/libc.a(lib_a-vfprintf.o)
 .bss           0x0000000000000000        0x0 /usr/local/xenon/xenon/lib/32/libc.a(lib_a-vfprintf.o)
 .data          0x0000000000000000        0x0 /usr/local/xenon/xenon/lib/32/libc.a(lib_a-vprintf.o)
 .bss           0x0000000000000000        0x0 /usr/local/xenon/xenon/lib/32/libc.a(lib_a-vprintf.o)
 .data          0x0000000000000000        0x0 /usr/local/xenon/xenon/lib/32/libc.a(lib_a-wbuf.o)
 .bss           0x0000000000000000        0x0 /usr/local/xenon/xenon/lib/32/libc.a(lib_a-wbuf.o)
 .data          0x0000000000000000        0x0 /usr/local/xenon/xenon/lib/32/libc.a(lib_a-writer.o)
 .bss           0x0000000000000000        0x0 /usr/local/xenon/xenon/lib/32/libc.a(lib_a-writer.o)
 .data          0x0000000000000000        0x0 /usr/local/xenon/xenon/lib/32/libc.a(lib_a-wsetup.o)
 .bss           0x0000000000000000        0x0 /usr/local/xenon/xenon/lib/32/libc.a(lib_a-wsetup.o)
 .data          0x0000000000000000        0x0 /usr/local/xenon/xenon/lib/32/libc.a(lib_a-closer.o)
 .bss           0x0000000000000000        0x0 /usr/local/xenon/xenon/lib/32/libc.a(lib_a-closer.o)
 .data          0x0000000000000000        0x0 /usr/local/xenon/xenon/lib/32/libc.a(lib_a-dtoa.o)
 .bss           0x0000000000000000        0x0 /usr/local/xenon/xenon/lib/32/libc.a(lib_a-dtoa.o)
 .text          0x0000000000000000        0x0 /usr/local/xenon/xenon/lib/32/libc.a(lib_a-flags.o)
 .data          0x0000000000000000        0x0 /usr/local/xenon/xenon/lib/32/libc.a(lib_a-flags.o)
 .bss           0x0000000000000000        0x0 /usr/local/xenon/xenon/lib/32/libc.a(lib_a-flags.o)
 .got2          0x0000000000000000        0x0 /usr/local/xenon/xenon/lib/32/libc.a(lib_a-flags.o)
 .data          0x0000000000000000        0x0 /usr/local/xenon/xenon/lib/32/libc.a(lib_a-fvwrite.o)
 .bss           0x0000000000000000        0x0 /usr/local/xenon/xenon/lib/32/libc.a(lib_a-fvwrite.o)
 .got2          0x0000000000000000        0x0 /usr/local/xenon/xenon/lib/32/libc.a(lib_a-fvwrite.o)
 .data          0x0000000000000000        0x0 /usr/local/xenon/xenon/lib/32/libc.a(lib_a-isattyr.o)
 .bss           0x0000000000000000        0x0 /usr/local/xenon/xenon/lib/32/libc.a(lib_a-isattyr.o)
 .data          0x0000000000000000        0x0 /usr/local/xenon/xenon/lib/32/libc.a(lib_a-locale.o)
 .bss           0x0000000000000000        0x0 /usr/local/xenon/xenon/lib/32/libc.a(lib_a-locale.o)
 .sbss          0x0000000000000000        0x0 /usr/local/xenon/xenon/lib/32/libc.a(lib_a-locale.o)
 .sdata         0x0000000000000000        0x0 /usr/local/xenon/xenon/lib/32/libc.a(lib_a-locale.o)
 .data          0x0000000000000000        0x0 /usr/local/xenon/xenon/lib/32/libc.a(lib_a-lseekr.o)
 .bss           0x0000000000000000        0x0 /usr/local/xenon/xenon/lib/32/libc.a(lib_a-lseekr.o)
 .data          0x0000000000000000        0x0 /usr/local/xenon/xenon/lib/32/libc.a(lib_a-memchr.o)
 .bss           0x0000000000000000        0x0 /usr/local/xenon/xenon/lib/32/libc.a(lib_a-memchr.o)
 .got2          0x0000000000000000        0x0 /usr/local/xenon/xenon/lib/32/libc.a(lib_a-memchr.o)
 .data          0x0000000000000000        0x0 /usr/local/xenon/xenon/lib/32/libc.a(lib_a-memmove.o)
 .bss           0x0000000000000000        0x0 /usr/local/xenon/xenon/lib/32/libc.a(lib_a-memmove.o)
 .got2          0x0000000000000000        0x0 /usr/local/xenon/xenon/lib/32/libc.a(lib_a-memmove.o)
 .data          0x0000000000000000        0x0 /usr/local/xenon/xenon/lib/32/libc.a(lib_a-mprec.o)
 .bss           0x0000000000000000        0x0 /usr/local/xenon/xenon/lib/32/libc.a(lib_a-mprec.o)
 .data          0x0000000000000000        0x0 /usr/local/xenon/xenon/lib/32/libc.a(lib_a-readr.o)
 .bss           0x0000000000000000        0x0 /usr/local/xenon/xenon/lib/32/libc.a(lib_a-readr.o)
 .data          0x0000000000000000        0x0 /usr/local/xenon/xenon/lib/32/libc.a(lib_a-reallocr.o)
 .bss           0x0000000000000000        0x0 /usr/local/xenon/xenon/lib/32/libc.a(lib_a-reallocr.o)
 .data          0x0000000000000000        0x0 /usr/local/xenon/xenon/lib/32/libc.a(lib_a-s_isinfd.o)
 .bss           0x0000000000000000        0x0 /usr/local/xenon/xenon/lib/32/libc.a(lib_a-s_isinfd.o)
 .got2          0x0000000000000000        0x0 /usr/local/xenon/xenon/lib/32/libc.a(lib_a-s_isinfd.o)
 .data          0x0000000000000000        0x0 /usr/local/xenon/xenon/lib/32/libc.a(lib_a-s_isnand.o)
 .bss           0x0000000000000000        0x0 /usr/local/xenon/xenon/lib/32/libc.a(lib_a-s_isnand.o)
 .got2          0x0000000000000000        0x0 /usr/local/xenon/xenon/lib/32/libc.a(lib_a-s_isnand.o)
 .data          0x0000000000000000        0x0 /usr/local/xenon/xenon/lib/32/libc.a(lib_a-callocr.o)
 .bss           0x0000000000000000        0x0 /usr/local/xenon/xenon/lib/32/libc.a(lib_a-callocr.o)
 .got2          0x0000000000000000        0x0 /usr/local/xenon/xenon/lib/32/libc.a(lib_a-callocr.o)
 .text          0x0000000000000000        0x0 /usr/local/xenon/lib/gcc/xenon/4.4.0/32/crtend.o
 .data          0x0000000000000000        0x0 /usr/local/xenon/lib/gcc/xenon/4.4.0/32/crtend.o
 .bss           0x0000000000000000        0x0 /usr/local/xenon/lib/gcc/xenon/4.4.0/32/crtend.o
 .got2          0x0000000000000000        0x0 /usr/local/xenon/lib/gcc/xenon/4.4.0/32/crtend.o
 .ctors         0x0000000000000000        0x0 /usr/local/xenon/lib/gcc/xenon/4.4.0/32/crtend.o
 .dtors         0x0000000000000000        0x0 /usr/local/xenon/lib/gcc/xenon/4.4.0/32/crtend.o
 .jcr           0x0000000000000000        0x0 /usr/local/xenon/lib/gcc/xenon/4.4.0/32/crtend.o
 .init          0x0000000000000000        0x0 /usr/local/xenon/lib/gcc/xenon/4.4.0/32/crtend.o
 .text          0x0000000000000000        0x0 /usr/local/xenon/lib/gcc/xenon/4.4.0/../../../../xenon/lib/../lib/crtn.o
 .data          0x0000000000000000        0x0 /usr/local/xenon/lib/gcc/xenon/4.4.0/../../../../xenon/lib/../lib/crtn.o
 .bss           0x0000000000000000        0x0 /usr/local/xenon/lib/gcc/xenon/4.4.0/../../../../xenon/lib/../lib/crtn.o
 .init          0x0000000000000000        0x0 /usr/local/xenon/lib/gcc/xenon/4.4.0/../../../../xenon/lib/../lib/crtn.o
 .fini          0x0000000000000000        0x0 /usr/local/xenon/lib/gcc/xenon/4.4.0/../../../../xenon/lib/../lib/crtn.o

Memory Configuration

Name             Origin             Length             Attributes
*default*        0x0000000000000000 0xffffffffffffffff

Linker script and memory map

LOAD /usr/local/xenon/lib/gcc/xenon/4.4.0/../../../../xenon/lib/../lib/crt1.o
LOAD /usr/local/xenon/lib/gcc/xenon/4.4.0/../../../../xenon/lib/../lib/crti.o
LOAD /usr/local/xenon/lib/gcc/xenon/4.4.0/32/crtbegin.o
LOAD engine.o
LOAD ffs_content.o
LOAD main.o
LOAD xee.o
LOAD /usr/local/xenon/usr/lib/libxenon.a
LOAD /usr/local/xenon/xenon/lib/32/libm.a
LOAD /usr/local/xenon/lib/gcc/xenon/4.4.0/32/libgcc.a
LOAD /usr/local/xenon/xenon/lib/32/libc.a
LOAD /usr/local/xenon/lib/gcc/xenon/4.4.0/32/libgcc.a
LOAD /usr/local/xenon/lib/gcc/xenon/4.4.0/32/crtend.o
LOAD /usr/local/xenon/lib/gcc/xenon/4.4.0/../../../../xenon/lib/../lib/crtn.o
                0x0000000080000000                . = 0x80000000

.text           0x0000000080000000    0x19878
 *(.except*)
 .except        0x0000000080000000     0x1d50 /usr/local/xenon/usr/lib/libxenon.a(except.o)
                0x0000000080000000                secondary_lock
                0x0000000080000000                exc_base
                0x0000000080000004                secondary_alive
 *(.pagetable)
 .pagetable     0x0000000080001d50       0x40 /usr/local/xenon/usr/lib/libxenon.a(vm.o)
                0x0000000080001d50                pagetable
 *(.text*)
 .text.call_ctors
                0x0000000080001d90       0x58 /usr/local/xenon/lib/gcc/xenon/4.4.0/../../../../xenon/lib/../lib/crt1.o
                0x0000000080001d90                call_ctors
 .text.main     0x0000000080001de8      0x378 main.o
                0x0000000080001de8                main
 *fill*         0x0000000080002160       0xa0 00
 .text          0x0000000080002200      0x2f0 /usr/local/xenon/usr/lib/libxenon.a(startup_from_xell.o)
                0x00000000800023d4                wait
                0x0000000080002200                _start
                0x0000000080002448                return_to_xell
 .text.console_init
                0x00000000800024f0      0x1c4 /usr/local/xenon/usr/lib/libxenon.a(console.o)
                0x00000000800024f0                console_init
 .text.console_newline
                0x00000000800026b4      0x118 /usr/local/xenon/usr/lib/libxenon.a(console.o)
                0x00000000800026b4                console_newline
 .text.console_putch
                0x00000000800027cc      0x18c /usr/local/xenon/usr/lib/libxenon.a(console.o)
                0x00000000800027cc                console_putch
 .text.console_stdout_hook
                0x0000000080002958       0x50 /usr/local/xenon/usr/lib/libxenon.a(console.o)
 .text.vfs_console_isatty
                0x00000000800029a8        0x8 /usr/local/xenon/usr/lib/libxenon.a(newlib.o)
                0x00000000800029a8                vfs_console_isatty
 .text.sbrk     0x00000000800029b0       0x34 /usr/local/xenon/usr/lib/libxenon.a(newlib.o)
                0x00000000800029b0                sbrk
 .text.getpid   0x00000000800029e4        0x8 /usr/local/xenon/usr/lib/libxenon.a(newlib.o)
                0x00000000800029e4                getpid
 .text.kill     0x00000000800029ec        0x8 /usr/local/xenon/usr/lib/libxenon.a(newlib.o)
                0x00000000800029ec                kill
 .text.read     0x00000000800029f4       0x88 /usr/local/xenon/usr/lib/libxenon.a(newlib.o)
                0x00000000800029f4                read
 .text.lseek    0x0000000080002a7c       0x88 /usr/local/xenon/usr/lib/libxenon.a(newlib.o)
                0x0000000080002a7c                lseek
 .text.isatty   0x0000000080002b04       0x7c /usr/local/xenon/usr/lib/libxenon.a(newlib.o)
                0x0000000080002b04                isatty
 .text.fstat    0x0000000080002b80       0x8c /usr/local/xenon/usr/lib/libxenon.a(newlib.o)
                0x0000000080002b80                fstat
 .text.write    0x0000000080002c0c       0x94 /usr/local/xenon/usr/lib/libxenon.a(newlib.o)
                0x0000000080002c0c                write
 .text._exit    0x0000000080002ca0       0x24 /usr/local/xenon/usr/lib/libxenon.a(newlib.o)
                0x0000000080002ca0                _exit
 .text.close    0x0000000080002cc4       0x94 /usr/local/xenon/usr/lib/libxenon.a(newlib.o)
                0x0000000080002cc4                close
 .text.vfs_console_write
                0x0000000080002d58       0x7c /usr/local/xenon/usr/lib/libxenon.a(newlib.o)
                0x0000000080002d58                vfs_console_write
 .text          0x0000000080002dd4       0x68 /usr/local/xenon/usr/lib/libxenon.a(atomic.o)
                0x0000000080002dfc                atomic_clearset
                0x0000000080002e14                lock
                0x0000000080002de8                atomic_dec
                0x0000000080002e30                unlock
                0x0000000080002dd4                atomic_inc
 .text          0x0000000080002e3c       0x80 /usr/local/xenon/usr/lib/libxenon.a(cache.o)
                0x0000000080002e64                memdcbf
                0x0000000080002e8c                memicbi
                0x0000000080002e3c                memdcbst
 .text.putch    0x0000000080002ebc       0x60 /usr/local/xenon/usr/lib/libxenon.a(xenon_uart.o)
                0x0000000080002ebc                putch
 .text.edram_72c
                0x0000000080002f1c     0x1038 /usr/local/xenon/usr/lib/libxenon.a(edram.o)
                0x0000000080002f1c                edram_72c
 .text.edram_974
                0x0000000080003f54      0x298 /usr/local/xenon/usr/lib/libxenon.a(edram.o)
                0x0000000080003f54                edram_974
 .text.edram_9e4
                0x00000000800041ec      0xdf4 /usr/local/xenon/usr/lib/libxenon.a(edram.o)
                0x00000000800041ec                edram_9e4
 .text.edram_4c
                0x0000000080004fe0     0x2ffc /usr/local/xenon/usr/lib/libxenon.a(edram.o)
                0x0000000080004fe0                edram_4c
 .text.edram_write
                0x0000000080007fdc       0xb4 /usr/local/xenon/usr/lib/libxenon.a(edram.o)
 .text.edram_read
                0x0000000080008090       0x98 /usr/local/xenon/usr/lib/libxenon.a(edram.o)
 .text.edram_rmw
                0x0000000080008128       0x64 /usr/local/xenon/usr/lib/libxenon.a(edram.o)
 .text.edram_p3
                0x000000008000818c       0xb8 /usr/local/xenon/usr/lib/libxenon.a(edram.o)
                0x000000008000818c                edram_p3
 .text.edram_compare_crc
                0x0000000080008244      0x144 /usr/local/xenon/usr/lib/libxenon.a(edram.o)
                0x0000000080008244                edram_compare_crc
 .text.edram_pc
                0x0000000080008388       0xac /usr/local/xenon/usr/lib/libxenon.a(edram.o)
                0x0000000080008388                edram_pc
 .text.edram_p4
                0x0000000080008434       0xa4 /usr/local/xenon/usr/lib/libxenon.a(edram.o)
                0x0000000080008434                edram_p4
 .text.edram_p2
                0x00000000800084d8      0xe00 /usr/local/xenon/usr/lib/libxenon.a(edram.o)
                0x00000000800084d8                edram_p2
 .text.edram_init_state1
                0x00000000800092d8      0x1c8 /usr/local/xenon/usr/lib/libxenon.a(edram.o)
                0x00000000800092d8                edram_init_state1
 .text.edram_init
                0x00000000800094a0      0x9d8 /usr/local/xenon/usr/lib/libxenon.a(edram.o)
                0x00000000800094a0                edram_init
 .text.Xe_pInvalidateGpuCache_Primary
                0x0000000080009e78      0x1ec /usr/local/xenon/usr/lib/libxenon.a(xe.o)
                0x0000000080009e78                Xe_pInvalidateGpuCache_Primary
 .text.Xe_pSetSurfaceClip
                0x000000008000a064       0x60 /usr/local/xenon/usr/lib/libxenon.a(xe.o)
                0x000000008000a064                Xe_pSetSurfaceClip
 .text.Xe_pSetupRingbuffer
                0x000000008000a0c4       0x40 /usr/local/xenon/usr/lib/libxenon.a(xe.o)
                0x000000008000a0c4                Xe_pSetupRingbuffer
 .text.Xe_pGInit0
                0x000000008000a104      0x72c /usr/local/xenon/usr/lib/libxenon.a(xe.o)
                0x000000008000a104                Xe_pGInit0
 .text.Xe_pGInit1
                0x000000008000a830      0x11c /usr/local/xenon/usr/lib/libxenon.a(xe.o)
                0x000000008000a830                Xe_pGInit1
 .text.Xe_pGInit3
                0x000000008000a94c       0x50 /usr/local/xenon/usr/lib/libxenon.a(xe.o)
                0x000000008000a94c                Xe_pGInit3
 .text.Xe_pGInit4
                0x000000008000a99c       0x98 /usr/local/xenon/usr/lib/libxenon.a(xe.o)
                0x000000008000a99c                Xe_pGInit4
 .text.Xe_pGInit5
                0x000000008000aa34      0x1b4 /usr/local/xenon/usr/lib/libxenon.a(xe.o)
                0x000000008000aa34                Xe_pGInit5
 .text.Xe_pGInit6
                0x000000008000abe8       0xe0 /usr/local/xenon/usr/lib/libxenon.a(xe.o)
                0x000000008000abe8                Xe_pGInit6
 .text.Xe_pGInit7
                0x000000008000acc8       0x50 /usr/local/xenon/usr/lib/libxenon.a(xe.o)
                0x000000008000acc8                Xe_pGInit7
 .text.Xe_pGInit8
                0x000000008000ad18       0x1c /usr/local/xenon/usr/lib/libxenon.a(xe.o)
                0x000000008000ad18                Xe_pGInit8
 .text.Xe_pGInit9
                0x000000008000ad34      0x108 /usr/local/xenon/usr/lib/libxenon.a(xe.o)
                0x000000008000ad34                Xe_pGInit9
 .text.Xe_pGInit10
                0x000000008000ae3c       0xa4 /usr/local/xenon/usr/lib/libxenon.a(xe.o)
                0x000000008000ae3c                Xe_pGInit10
 .text.Xe_pGInit
                0x000000008000aee0      0x1d8 /usr/local/xenon/usr/lib/libxenon.a(xe.o)
                0x000000008000aee0                Xe_pGInit
 .text.Xe_DirtyFetch
                0x000000008000b0b8       0x64 /usr/local/xenon/usr/lib/libxenon.a(xe.o)
                0x000000008000b0b8                Xe_DirtyFetch
 .text.Xe_pInvalidateGpuCache
                0x000000008000b11c       0xf4 /usr/local/xenon/usr/lib/libxenon.a(xe.o)
                0x000000008000b11c                Xe_pInvalidateGpuCache
 .text.Xe_SetRenderTarget
                0x000000008000b210       0x5c /usr/local/xenon/usr/lib/libxenon.a(xe.o)
                0x000000008000b210                Xe_SetRenderTarget
 .text.Xe_pSetEDRAMLayout
                0x000000008000b26c       0x78 /usr/local/xenon/usr/lib/libxenon.a(xe.o)
                0x000000008000b26c                Xe_pSetEDRAMLayout
 .text.Xe_pStuff
                0x000000008000b2e4       0xa8 /usr/local/xenon/usr/lib/libxenon.a(xe.o)
                0x000000008000b2e4                Xe_pStuff
 .text.Xe_GetFramebufferSurface
                0x000000008000b38c        0x8 /usr/local/xenon/usr/lib/libxenon.a(xe.o)
                0x000000008000b38c                Xe_GetFramebufferSurface
 .text.Xe_pInitControl
                0x000000008000b394       0x90 /usr/local/xenon/usr/lib/libxenon.a(xe.o)
                0x000000008000b394                Xe_pInitControl
 .text.Xe_InvalidateState
                0x000000008000b424       0x14 /usr/local/xenon/usr/lib/libxenon.a(xe.o)
                0x000000008000b424                Xe_InvalidateState
 .text.Xe_SetClearColor
                0x000000008000b438        0x8 /usr/local/xenon/usr/lib/libxenon.a(xe.o)
                0x000000008000b438                Xe_SetClearColor
 .text.Xe_SetIndices
                0x000000008000b440        0x8 /usr/local/xenon/usr/lib/libxenon.a(xe.o)
                0x000000008000b440                Xe_SetIndices
 .text.Xe_SetShader
                0x000000008000b448       0xb0 /usr/local/xenon/usr/lib/libxenon.a(xe.o)
                0x000000008000b448                Xe_SetShader
 .text.Xe_pDrawIndexedPrimitive
                0x000000008000b4f8       0xc8 /usr/local/xenon/usr/lib/libxenon.a(xe.o)
                0x000000008000b4f8                Xe_pDrawIndexedPrimitive
 .text.Xe_pUploadControl
                0x000000008000b5c0       0x84 /usr/local/xenon/usr/lib/libxenon.a(xe.o)
                0x000000008000b5c0                Xe_pUploadControl
 .text.Xe_pUploadIntegerConstants
                0x000000008000b644       0x90 /usr/local/xenon/usr/lib/libxenon.a(xe.o)
                0x000000008000b644                Xe_pUploadIntegerConstants
 .text.Xe_pUploadClipPlane
                0x000000008000b6d4       0x90 /usr/local/xenon/usr/lib/libxenon.a(xe.o)
                0x000000008000b6d4                Xe_pUploadClipPlane
 .text.Xe_pUploadFetchConstants
                0x000000008000b764      0x170 /usr/local/xenon/usr/lib/libxenon.a(xe.o)
                0x000000008000b764                Xe_pUploadFetchConstants
 .text.Xe_pUploadALUConstants
                0x000000008000b8d4      0x164 /usr/local/xenon/usr/lib/libxenon.a(xe.o)
                0x000000008000b8d4                Xe_pUploadALUConstants
 .text.Xe_pUploadShaderConstants
                0x000000008000ba38      0x154 /usr/local/xenon/usr/lib/libxenon.a(xe.o)
                0x000000008000ba38                Xe_pUploadShaderConstants
 .text.Xe_pUploadShader
                0x000000008000bb8c      0x15c /usr/local/xenon/usr/lib/libxenon.a(xe.o)
                0x000000008000bb8c                Xe_pUploadShader
 .text.Xe_pSetState
                0x000000008000bce8      0x39c /usr/local/xenon/usr/lib/libxenon.a(xe.o)
                0x000000008000bce8                Xe_pSetState
 .text.Xe_Fatal
                0x000000008000c084       0x90 /usr/local/xenon/usr/lib/libxenon.a(xe.o)
                0x000000008000c084                Xe_Fatal
 .text.Xe_SetStreamSource
                0x000000008000c114       0x7c /usr/local/xenon/usr/lib/libxenon.a(xe.o)
                0x000000008000c114                Xe_SetStreamSource
 .text.Xe_pCalcVtxCount
                0x000000008000c190       0x78 /usr/local/xenon/usr/lib/libxenon.a(xe.o)
                0x000000008000c190                Xe_pCalcVtxCount
 .text.Xe_DrawIndexedPrimitive
                0x000000008000c208      0x13c /usr/local/xenon/usr/lib/libxenon.a(xe.o)
                0x000000008000c208                Xe_DrawIndexedPrimitive
 .text.Xe_pVBFNrComponents
                0x000000008000c344       0x70 /usr/local/xenon/usr/lib/libxenon.a(xe.o)
                0x000000008000c344                Xe_pVBFNrComponents
 .text.Xe_VBFCalcSize
                0x000000008000c3b4       0x78 /usr/local/xenon/usr/lib/libxenon.a(xe.o)
                0x000000008000c3b4                Xe_VBFCalcSize
 .text.Xe_VBFCalcStride
                0x000000008000c42c       0x7c /usr/local/xenon/usr/lib/libxenon.a(xe.o)
                0x000000008000c42c                Xe_VBFCalcStride
 .text.Xe_LoadShaderFromMemory
                0x000000008000c4a8       0x88 /usr/local/xenon/usr/lib/libxenon.a(xe.o)
                0x000000008000c4a8                Xe_LoadShaderFromMemory
 .text.Xe_pWaitReady
                0x000000008000c530       0x54 /usr/local/xenon/usr/lib/libxenon.a(xe.o)
                0x000000008000c530                Xe_pWaitReady
 .text.TEXTURE_FETCH
                0x000000008000c584      0x108 /usr/local/xenon/usr/lib/libxenon.a(xe.o)
                0x000000008000c584                TEXTURE_FETCH
 .text.Xe_SetTexture
                0x000000008000c68c       0xb0 /usr/local/xenon/usr/lib/libxenon.a(xe.o)
                0x000000008000c68c                Xe_SetTexture
 .text.Xe_pResetCP
                0x000000008000c73c      0x134 /usr/local/xenon/usr/lib/libxenon.a(xe.o)
                0x000000008000c73c                Xe_pResetCP
 .text.Xe_pLoadUcodes
                0x000000008000c870      0x130 /usr/local/xenon/usr/lib/libxenon.a(xe.o)
                0x000000008000c870                Xe_pLoadUcodes
 .text.Xe_pSetup
                0x000000008000c9a0       0xe4 /usr/local/xenon/usr/lib/libxenon.a(xe.o)
                0x000000008000c9a0                Xe_pSetup
 .text.Xe_pMasterInit
                0x000000008000ca84       0xe0 /usr/local/xenon/usr/lib/libxenon.a(xe.o)
                0x000000008000ca84                Xe_pMasterInit
 .text.Xe_pAlloc
                0x000000008000cb64       0x7c /usr/local/xenon/usr/lib/libxenon.a(xe.o)
                0x000000008000cb64                Xe_pAlloc
 .text.Xe_CreateIndexBuffer
                0x000000008000cbe0       0x8c /usr/local/xenon/usr/lib/libxenon.a(xe.o)
                0x000000008000cbe0                Xe_CreateIndexBuffer
 .text.Xe_CreateVertexBuffer
                0x000000008000cc6c       0xb4 /usr/local/xenon/usr/lib/libxenon.a(xe.o)
                0x000000008000cc6c                Xe_CreateVertexBuffer
 .text.Xe_pRBAlloc
                0x000000008000cd20       0x5c /usr/local/xenon/usr/lib/libxenon.a(xe.o)
                0x000000008000cd20                Xe_pRBAlloc
 .text.Xe_pSyncFromDevice
                0x000000008000cd7c       0x28 /usr/local/xenon/usr/lib/libxenon.a(xe.o)
                0x000000008000cd7c                Xe_pSyncFromDevice
 .text.Xe_Init  0x000000008000cda4      0x194 /usr/local/xenon/usr/lib/libxenon.a(xe.o)
                0x000000008000cda4                Xe_Init
 .text.Xe_pLock
                0x000000008000cf38       0xb0 /usr/local/xenon/usr/lib/libxenon.a(xe.o)
                0x000000008000cf38                Xe_pLock
 .text.Xe_IB_Lock
                0x000000008000cfe8       0x5c /usr/local/xenon/usr/lib/libxenon.a(xe.o)
                0x000000008000cfe8                Xe_IB_Lock
 .text.Xe_VB_Lock
                0x000000008000d044       0x5c /usr/local/xenon/usr/lib/libxenon.a(xe.o)
                0x000000008000d044                Xe_VB_Lock
 .text.Xe_pSyncToDevice
                0x000000008000d0a0       0x28 /usr/local/xenon/usr/lib/libxenon.a(xe.o)
                0x000000008000d0a0                Xe_pSyncToDevice
 .text.Xe_InstantiateShader
                0x000000008000d0c8      0x104 /usr/local/xenon/usr/lib/libxenon.a(xe.o)
                0x000000008000d0c8                Xe_InstantiateShader
 .text.Xe_pUnlock
                0x000000008000d1cc       0x80 /usr/local/xenon/usr/lib/libxenon.a(xe.o)
                0x000000008000d1cc                Xe_pUnlock
 .text.Xe_IB_Unlock
                0x000000008000d24c        0x8 /usr/local/xenon/usr/lib/libxenon.a(xe.o)
                0x000000008000d24c                Xe_IB_Unlock
 .text.Xe_VB_Unlock
                0x000000008000d254        0x8 /usr/local/xenon/usr/lib/libxenon.a(xe.o)
                0x000000008000d254                Xe_VB_Unlock
 .text.Xe_ShaderApplyVFetchPatches
                0x000000008000d25c      0x320 /usr/local/xenon/usr/lib/libxenon.a(xe.o)
                0x000000008000d25c                Xe_ShaderApplyVFetchPatches
 .text.Xe_pRBKickSegment
                0x000000008000d57c       0xf0 /usr/local/xenon/usr/lib/libxenon.a(xe.o)
                0x000000008000d57c                Xe_pRBKickSegment
 .text.Xe_pRBCommitPrimary
                0x000000008000d66c       0x8c /usr/local/xenon/usr/lib/libxenon.a(xe.o)
                0x000000008000d66c                Xe_pRBCommitPrimary
 .text.Xe_pRBKick
                0x000000008000d6f8       0x90 /usr/local/xenon/usr/lib/libxenon.a(xe.o)
                0x000000008000d6f8                Xe_pRBKick
 .text.Xe_Execute
                0x000000008000d788       0x30 /usr/local/xenon/usr/lib/libxenon.a(xe.o)
                0x000000008000d788                Xe_Execute
 .text.Xe_pDebugSync
                0x000000008000d7b8       0xbc /usr/local/xenon/usr/lib/libxenon.a(xe.o)
                0x000000008000d7b8                Xe_pDebugSync
 .text.xenos_is_overscan
                0x000000008000d874       0x50 /usr/local/xenon/usr/lib/libxenon.a(xenos.o)
                0x000000008000d874                xenos_is_overscan
 .text.xenos_read32
                0x000000008000d8c4       0x24 /usr/local/xenon/usr/lib/libxenon.a(xenos.o)
                0x000000008000d8c4                xenos_read32
 .text.xenos_write32
                0x000000008000d8e8       0x24 /usr/local/xenon/usr/lib/libxenon.a(xenos.o)
                0x000000008000d8e8                xenos_write32
 .text.xenos_set_mode_f2
                0x000000008000d90c      0x314 /usr/local/xenon/usr/lib/libxenon.a(xenos.o)
                0x000000008000d90c                xenos_set_mode_f2
 .text.xenos_set_mode_f1
                0x000000008000dc20      0x148 /usr/local/xenon/usr/lib/libxenon.a(xenos.o)
                0x000000008000dc20                xenos_set_mode_f1
 .text.xenos_ana_preinit
                0x000000008000dd68       0xe0 /usr/local/xenon/usr/lib/libxenon.a(xenos.o)
                0x000000008000dd68                xenos_ana_preinit
 .text.xenos_init_phase1
                0x000000008000de48      0x3c0 /usr/local/xenon/usr/lib/libxenon.a(xenos.o)
                0x000000008000de48                xenos_init_phase1
 .text.xenos_init_phase0
                0x000000008000e208       0xc0 /usr/local/xenon/usr/lib/libxenon.a(xenos.o)
                0x000000008000e208                xenos_init_phase0
 .text.xenos_ana_write
                0x000000008000e2c8       0x70 /usr/local/xenon/usr/lib/libxenon.a(xenos.o)
 .text.xenos_init_ana_new
                0x000000008000e338      0x3a4 /usr/local/xenon/usr/lib/libxenon.a(xenos.o)
                0x000000008000e338                xenos_init_ana_new
 .text.xenos_set_mode
                0x000000008000e6dc      0x35c /usr/local/xenon/usr/lib/libxenon.a(xenos.o)
                0x000000008000e6dc                xenos_set_mode
 .text.xenos_autoset_mode
                0x000000008000ea38       0xf0 /usr/local/xenon/usr/lib/libxenon.a(xenos.o)
                0x000000008000ea38                xenos_autoset_mode
 .text.xenos_init
                0x000000008000eb28       0xac /usr/local/xenon/usr/lib/libxenon.a(xenos.o)
                0x000000008000eb28                xenos_init
 .text.kmeminit
                0x000000008000ebd4       0x38 /usr/local/xenon/usr/lib/libxenon.a(lib_malloc.o)
                0x000000008000ebd4                kmeminit
 .text.lib_outofmemory
                0x000000008000ec0c       0x28 /usr/local/xenon/usr/lib/libxenon.a(lib_malloc.o)
                0x000000008000ec0c                lib_outofmemory
 .text.kmalloc  0x000000008000ec34      0x14c /usr/local/xenon/usr/lib/libxenon.a(lib_malloc.o)
                0x000000008000ec34                kmalloc
 .text.read32n  0x000000008000ed80        0x8 /usr/local/xenon/usr/lib/libxenon.a(io.o)
                0x000000008000ed80                read32n
 .text.write32n
                0x000000008000ed88        0x8 /usr/local/xenon/usr/lib/libxenon.a(io.o)
                0x000000008000ed88                write32n
 .text.write32  0x000000008000ed90        0x8 /usr/local/xenon/usr/lib/libxenon.a(io.o)
                0x000000008000ed90                write32
 .text.read32   0x000000008000ed98        0x8 /usr/local/xenon/usr/lib/libxenon.a(io.o)
                0x000000008000ed98                read32
 .text.udelay   0x000000008000eda0       0x4c /usr/local/xenon/usr/lib/libxenon.a(time.o)
                0x000000008000eda0                udelay
 .text.delay    0x000000008000edec       0x54 /usr/local/xenon/usr/lib/libxenon.a(time.o)
                0x000000008000edec                delay
 .text.xenon_gpio_set
                0x000000008000ee40       0x5c /usr/local/xenon/usr/lib/libxenon.a(xenon_gpio.o)
                0x000000008000ee40                xenon_gpio_set
 .text.xenon_gpio_set_oe
                0x000000008000ee9c       0x5c /usr/local/xenon/usr/lib/libxenon.a(xenon_gpio.o)
                0x000000008000ee9c                xenon_gpio_set_oe
 .text.xenon_smc_handle_bulk
                0x000000008000eef8       0x98 /usr/local/xenon/usr/lib/libxenon.a(xenon_smc.o)
                0x000000008000eef8                xenon_smc_handle_bulk
 .text.xenon_smc_receive_message
                0x000000008000ef90       0x90 /usr/local/xenon/usr/lib/libxenon.a(xenon_smc.o)
                0x000000008000ef90                xenon_smc_receive_message
 .text.xenon_smc_receive_response
                0x000000008000f020       0x50 /usr/local/xenon/usr/lib/libxenon.a(xenon_smc.o)
                0x000000008000f020                xenon_smc_receive_response
 .text.xenon_smc_send_message
                0x000000008000f070       0xa0 /usr/local/xenon/usr/lib/libxenon.a(xenon_smc.o)
                0x000000008000f070                xenon_smc_send_message
 .text.xenon_smc_read_avpack
                0x000000008000f110       0x54 /usr/local/xenon/usr/lib/libxenon.a(xenon_smc.o)
                0x000000008000f110                xenon_smc_read_avpack
 .text.xenon_smc_i2c_write
                0x000000008000f164       0xac /usr/local/xenon/usr/lib/libxenon.a(xenon_smc.o)
                0x000000008000f164                xenon_smc_i2c_write
 .text.xenon_smc_ana_read
                0x000000008000f210       0xdc /usr/local/xenon/usr/lib/libxenon.a(xenon_smc.o)
                0x000000008000f210                xenon_smc_ana_read
 .text.xenon_smc_ana_write
                0x000000008000f2ec       0xb0 /usr/local/xenon/usr/lib/libxenon.a(xenon_smc.o)
                0x000000008000f2ec                xenon_smc_ana_write
 .text.xenon_config_get_avregion
                0x000000008000f39c       0xac /usr/local/xenon/usr/lib/libxenon.a(xenon_config.o)
                0x000000008000f39c                xenon_config_get_avregion
 .text.xenon_config_init
                0x000000008000f448       0xb0 /usr/local/xenon/usr/lib/libxenon.a(xenon_config.o)
                0x000000008000f448                xenon_config_init
 .text.sfcx_readreg
                0x000000008000f4f8       0x14 /usr/local/xenon/usr/lib/libxenon.a(xenon_sfcx.o)
                0x000000008000f4f8                sfcx_readreg
 .text.sfcx_writereg
                0x000000008000f50c       0x14 /usr/local/xenon/usr/lib/libxenon.a(xenon_sfcx.o)
                0x000000008000f50c                sfcx_writereg
 .text.sfcx_init
                0x000000008000f520      0x280 /usr/local/xenon/usr/lib/libxenon.a(xenon_sfcx.o)
                0x000000008000f520                sfcx_init
 .text.sfcx_read_page
                0x000000008000f7a0      0x170 /usr/local/xenon/usr/lib/libxenon.a(xenon_sfcx.o)
                0x000000008000f7a0                sfcx_read_page
 .text          0x000000008000f910       0x1c /usr/local/xenon/xenon/lib/32/libc.a(lib_a-abort.o)
                0x000000008000f910                abort
 *fill*         0x000000008000f92c        0x4 00
 .text          0x000000008000f930       0x88 /usr/local/xenon/xenon/lib/32/libc.a(lib_a-assert.o)
                0x000000008000f934                __assert_func
                0x000000008000f9a0                __assert
 .text          0x000000008000f9b8       0x40 /usr/local/xenon/xenon/lib/32/libc.a(lib_a-errno.o)
                0x000000008000f9bc                __errno
 .text          0x000000008000f9f8      0x1b8 /usr/local/xenon/xenon/lib/32/libc.a(lib_a-fclose.o)
                0x000000008000f9f8                _fclose_r
                0x000000008000fb6c                fclose
 .text          0x000000008000fbb0      0x2ec /usr/local/xenon/xenon/lib/32/libc.a(lib_a-fflush.o)
                0x000000008000fe2c                fflush
                0x000000008000fbb0                _fflush_r
 *fill*         0x000000008000fe9c        0x4 00
 .text          0x000000008000fea0      0x49c /usr/local/xenon/xenon/lib/32/libc.a(lib_a-findfp.o)
                0x000000008001009c                __sinit
                0x0000000080010150                __sfmoreglue
                0x000000008000ffb4                _cleanup
                0x000000008000ff74                _cleanup_r
                0x000000008000ff24                __fp_lock_all
                0x000000008000fea0                __sfp_lock_acquire
                0x00000000800101d4                __sfp
                0x000000008000feb8                __sinit_lock_release
                0x000000008000fed4                __fp_unlock_all
                0x000000008000fea8                __sfp_lock_release
                0x000000008000feb0                __sinit_lock_acquire
 *fill*         0x000000008001033c        0x4 00
 .text          0x0000000080010340      0x12c /usr/local/xenon/xenon/lib/32/libc.a(lib_a-fiprintf.o)
                0x00000000800103f0                _fiprintf_r
                0x0000000080010344                fiprintf
 *fill*         0x000000008001046c        0x4 00
 .text          0x0000000080010470      0x428 /usr/local/xenon/xenon/lib/32/libc.a(lib_a-freer.o)
                0x00000000800105d4                _free_r
                0x0000000080010474                _malloc_trim_r
 .text          0x0000000080010898       0x9c /usr/local/xenon/xenon/lib/32/libc.a(lib_a-fstatr.o)
                0x000000008001089c                _fstat_r
 *fill*         0x0000000080010934        0x4 00
 .text          0x0000000080010938      0x18c /usr/local/xenon/xenon/lib/32/libc.a(lib_a-fwalk.o)
                0x0000000080010a08                _fwalk
                0x0000000080010938                _fwalk_reent
 *fill*         0x0000000080010ac4        0x4 00
 .text          0x0000000080010ac8      0x22c /usr/local/xenon/xenon/lib/32/libc.a(lib_a-makebuf.o)
                0x0000000080010acc                __smakebuf_r
 *fill*         0x0000000080010cf4        0x4 00
 .text          0x0000000080010cf8       0x90 /usr/local/xenon/xenon/lib/32/libc.a(lib_a-malloc.o)
                0x0000000080010d44                malloc
                0x0000000080010cfc                free
 .text          0x0000000080010d88      0x880 /usr/local/xenon/xenon/lib/32/libc.a(lib_a-mallocr.o)
                0x0000000080010d8c                _malloc_r
 .text          0x0000000080011608      0x12c /usr/local/xenon/xenon/lib/32/libc.a(lib_a-memcpy.o)
                0x0000000080011608                memcpy
 *fill*         0x0000000080011734        0x4 00
 .text          0x0000000080011738      0x138 /usr/local/xenon/xenon/lib/32/libc.a(lib_a-memset.o)
                0x0000000080011738                memset
 .text          0x0000000080011870        0xc /usr/local/xenon/xenon/lib/32/libc.a(lib_a-mlock.o)
                0x0000000080011878                __malloc_unlock
                0x0000000080011870                __malloc_lock
 *fill*         0x000000008001187c        0x4 00
 .text          0x0000000080011880      0x140 /usr/local/xenon/xenon/lib/32/libc.a(lib_a-printf.o)
                0x0000000080011884                printf
                0x0000000080011938                _printf_r
 .text          0x00000000800119c0       0x74 /usr/local/xenon/xenon/lib/32/libc.a(lib_a-putchar.o)
                0x00000000800119c4                putchar
                0x0000000080011a10                _putchar_r
 *fill*         0x0000000080011a34        0x4 00
 .text          0x0000000080011a38      0x208 /usr/local/xenon/xenon/lib/32/libc.a(lib_a-putc.o)
                0x0000000080011b60                _putc_r
                0x0000000080011a3c                putc
 .text          0x0000000080011c40      0x130 /usr/local/xenon/xenon/lib/32/libc.a(lib_a-puts.o)
                0x0000000080011c44                _puts_r
                0x0000000080011d2c                puts
 .text          0x0000000080011d70       0x94 /usr/local/xenon/xenon/lib/32/libc.a(lib_a-sbrkr.o)
                0x0000000080011d74                _sbrk_r
 *fill*         0x0000000080011e04        0x4 00
 .text          0x0000000080011e08      0x3dc /usr/local/xenon/xenon/lib/32/libc.a(lib_a-signal.o)
                0x0000000080012108                _signal_r
                0x0000000080011e08                _raise_r
                0x0000000080012000                __sigtramp_r
                0x000000008001219c                signal
                0x0000000080011fbc                _init_signal
                0x0000000080011f38                _init_signal_r
                0x00000000800120c4                __sigtramp
                0x0000000080011ef4                raise
 *fill*         0x00000000800121e4        0x4 00
 .text          0x00000000800121e8       0xbc /usr/local/xenon/xenon/lib/32/libc.a(lib_a-signalr.o)
                0x000000008001220c                _kill_r
                0x00000000800121e8                _getpid_r
 *fill*         0x00000000800122a4        0x4 00
 .text          0x00000000800122a8      0x1a8 /usr/local/xenon/xenon/lib/32/libc.a(lib_a-stdio.o)
                0x00000000800122d0                __sseek
                0x00000000800123e8                __sread
                0x00000000800122a8                __sclose
                0x0000000080012340                __swrite
 .text          0x0000000080012450       0xe8 /usr/local/xenon/xenon/lib/32/libc.a(lib_a-strcmp.o)
                0x0000000080012450                strcmp
 .text          0x0000000080012538       0xb4 /usr/local/xenon/xenon/lib/32/libc.a(lib_a-strlen.o)
                0x0000000080012538                strlen
 *fill*         0x00000000800125ec        0x4 00
 .text          0x00000000800125f0     0x1224 /usr/local/xenon/xenon/lib/32/libc.a(lib_a-vfiprintf.o)
                0x00000000800137c4                vfiprintf
                0x000000008001265c                _vfiprintf_r
 *fill*         0x0000000080013814        0x4 00
 .text          0x0000000080013818     0x1ffc /usr/local/xenon/xenon/lib/32/libc.a(lib_a-vfprintf.o)
                0x0000000080013884                _vfprintf_r
                0x00000000800157c4                vfprintf
 *fill*         0x0000000080015814        0x4 00
 .text          0x0000000080015818       0x80 /usr/local/xenon/xenon/lib/32/libc.a(lib_a-vprintf.o)
                0x000000008001584c                vprintf
                0x0000000080015818                _vprintf_r
 .text          0x0000000080015898      0x1e4 /usr/local/xenon/xenon/lib/32/libc.a(lib_a-wbuf.o)
                0x0000000080015898                __swbuf_r
                0x0000000080015a34                __swbuf
 *fill*         0x0000000080015a7c        0x4 00
 .text          0x0000000080015a80       0x9c /usr/local/xenon/xenon/lib/32/libc.a(lib_a-writer.o)
                0x0000000080015a84                _write_r
 *fill*         0x0000000080015b1c        0x4 00
 .text          0x0000000080015b20      0x1a8 /usr/local/xenon/xenon/lib/32/libc.a(lib_a-wsetup.o)
                0x0000000080015b24                __swsetup_r
 .text          0x0000000080015cc8       0x94 /usr/local/xenon/xenon/lib/32/libc.a(lib_a-closer.o)
                0x0000000080015ccc                _close_r
 *fill*         0x0000000080015d5c        0x4 00
 .text          0x0000000080015d60     0x144c /usr/local/xenon/xenon/lib/32/libc.a(lib_a-dtoa.o)
                0x0000000080015f9c                _dtoa_r
 *fill*         0x00000000800171ac        0x4 00
 .text          0x00000000800171b0      0x58c /usr/local/xenon/xenon/lib/32/libc.a(lib_a-fvwrite.o)
                0x00000000800171b0                __sfvwrite_r
 *fill*         0x000000008001773c        0x4 00
 .text          0x0000000080017740       0x94 /usr/local/xenon/xenon/lib/32/libc.a(lib_a-isattyr.o)
                0x0000000080017744                _isatty_r
 *fill*         0x00000000800177d4        0x4 00
 .text          0x00000000800177d8      0x1ec /usr/local/xenon/xenon/lib/32/libc.a(lib_a-locale.o)
                0x00000000800178a4                _setlocale_r
                0x00000000800177dc                __locale_charset
                0x000000008001781c                _localeconv_r
                0x000000008001797c                setlocale
                0x000000008001785c                localeconv
 *fill*         0x00000000800179c4        0x4 00
 .text          0x00000000800179c8       0x9c /usr/local/xenon/xenon/lib/32/libc.a(lib_a-lseekr.o)
                0x00000000800179cc                _lseek_r
 *fill*         0x0000000080017a64        0x4 00
 .text          0x0000000080017a68      0x128 /usr/local/xenon/xenon/lib/32/libc.a(lib_a-memchr.o)
                0x0000000080017a68                memchr
 .text          0x0000000080017b90      0x16c /usr/local/xenon/xenon/lib/32/libc.a(lib_a-memmove.o)
                0x0000000080017b90                memmove
 *fill*         0x0000000080017cfc        0x4 00
 .text          0x0000000080017d00     0x1334 /usr/local/xenon/xenon/lib/32/libc.a(lib_a-mprec.o)
                0x000000008001824c                _mprec_log10
                0x0000000080018358                __any_on
                0x0000000080018400                _Balloc
                0x0000000080018160                __ratio
                0x0000000080018c30                __i2b
                0x0000000080017fd0                __b2d
                0x0000000080018f00                __s2b
                0x0000000080017e90                __mcmp
                0x0000000080017d28                __hi0bits
                0x0000000080018d9c                __pow5mult
                0x0000000080018848                __lshift
                0x00000000800189d8                __multiply
                0x00000000800184c0                __d2b
                0x00000000800182c8                __copybits
                0x0000000080017f20                __ulp
                0x0000000080018670                __mdiff
                0x0000000080017da0                __lo0bits
                0x0000000080018c70                __multadd
                0x0000000080017d00                _Bfree
 *fill*         0x0000000080019034        0x4 00
 .text          0x0000000080019038       0x9c /usr/local/xenon/xenon/lib/32/libc.a(lib_a-readr.o)
                0x000000008001903c                _read_r
 *fill*         0x00000000800190d4        0x4 00
 .text          0x00000000800190d8      0x650 /usr/local/xenon/xenon/lib/32/libc.a(lib_a-reallocr.o)
                0x00000000800190dc                _realloc_r
 .text          0x0000000080019728       0x44 /usr/local/xenon/xenon/lib/32/libc.a(lib_a-s_isinfd.o)
                0x0000000080019728                __isinfd
 *fill*         0x000000008001976c        0x4 00
 .text          0x0000000080019770       0x38 /usr/local/xenon/xenon/lib/32/libc.a(lib_a-s_isnand.o)
                0x0000000080019770                __isnand
 .text          0x00000000800197a8       0xd0 /usr/local/xenon/xenon/lib/32/libc.a(lib_a-callocr.o)
                0x00000000800197a8                _calloc_r
 *(.init*)

.elfldr         0x0000000080019878        0x0
                0x0000000080019878                elfldr_start = .
 *(.elfldr)
                0x0000000080019878                elfldr_end = .

.data           0x0000000080019878     0x75ac
 *(.data*)
 .data.content_datavsvsu
                0x0000000080019878       0xf0 ffs_content.o
                0x0000000080019878                content_datavsvsu
 .data.content_datapspsu
                0x0000000080019968       0xe0 ffs_content.o
                0x0000000080019968                content_datapspsu
 .data.console_color
                0x0000000080019a48        0x8 /usr/local/xenon/usr/lib/libxenon.a(console.o)
 .data.vfs_console_ops
                0x0000000080019a50       0x18 /usr/local/xenon/usr/lib/libxenon.a(newlib.o)
                0x0000000080019a50                vfs_console_ops
 .data.fd_array
                0x0000000080019a68      0xc00 /usr/local/xenon/usr/lib/libxenon.a(newlib.o)
 .data.ana_1360x768
                0x000000008001a668      0x400 /usr/local/xenon/usr/lib/libxenon.a(xenos.o)
                0x000000008001a668                ana_1360x768
 .data.xenos_modes
                0x000000008001aa68      0x2d8 /usr/local/xenon/usr/lib/libxenon.a(xenos.o)
                0x000000008001aa68                xenos_modes
 .data.ana_1280x720
                0x000000008001ad40      0x400 /usr/local/xenon/usr/lib/libxenon.a(xenos.o)
                0x000000008001ad40                ana_1280x720
 .data.ana_ntsc_480i
                0x000000008001b140      0x400 /usr/local/xenon/usr/lib/libxenon.a(xenos.o)
                0x000000008001b140                ana_ntsc_480i
 .data.ana_1024x768
                0x000000008001b540      0x400 /usr/local/xenon/usr/lib/libxenon.a(xenos.o)
                0x000000008001b540                ana_1024x768
 .data.ana_640x480p
                0x000000008001b940      0x400 /usr/local/xenon/usr/lib/libxenon.a(xenos.o)
                0x000000008001b940                ana_640x480p
 .data.ana_pal  0x000000008001bd40      0x400 /usr/local/xenon/usr/lib/libxenon.a(xenos.o)
                0x000000008001bd40                ana_pal
 .data.ana_yuv_480p
                0x000000008001c140      0x400 /usr/local/xenon/usr/lib/libxenon.a(xenos.o)
                0x000000008001c140                ana_yuv_480p
 .data.ana_hdmi_720p
                0x000000008001c540      0x400 /usr/local/xenon/usr/lib/libxenon.a(xenos.o)
                0x000000008001c540                ana_hdmi_720p
 .data.ana_yuv_720p
                0x000000008001c940      0x400 /usr/local/xenon/usr/lib/libxenon.a(xenos.o)
                0x000000008001c940                ana_yuv_720p
 .data.ana_1280x1024
                0x000000008001cd40      0x400 /usr/local/xenon/usr/lib/libxenon.a(xenos.o)
                0x000000008001cd40                ana_1280x1024
 .data.ana_640_480_composite
                0x000000008001d140      0x400 /usr/local/xenon/usr/lib/libxenon.a(xenos.o)
                0x000000008001d140                ana_640_480_composite
 .data.ana_1440x900
                0x000000008001d540      0x400 /usr/local/xenon/usr/lib/libxenon.a(xenos.o)
                0x000000008001d540                ana_1440x900
 .data.ana_1280x768
                0x000000008001d940      0x400 /usr/local/xenon/usr/lib/libxenon.a(xenos.o)
                0x000000008001d940                ana_1280x768
 .data.xenos_ucode0
                0x000000008001dd40      0x480 /usr/local/xenon/usr/lib/libxenon.a(ucode.o)
                0x000000008001dd40                xenos_ucode0
 .data.xenos_ucode1
                0x000000008001e1c0     0x2400 /usr/local/xenon/usr/lib/libxenon.a(ucode.o)
                0x000000008001e1c0                xenos_ucode1
 .data.rel.local
                0x00000000800205c0      0x428 /usr/local/xenon/xenon/lib/32/libc.a(lib_a-impure.o)
 .data.rel      0x00000000800209e8      0x408 /usr/local/xenon/xenon/lib/32/libc.a(lib_a-mallocr.o)
                0x00000000800209e8                __malloc_av_
 .data.rel.ro.local
                0x0000000080020df0       0x34 /usr/local/xenon/xenon/lib/32/libc.a(lib_a-locale.o)

.got2           0x0000000080020e24      0x190
 .got2          0x0000000080020e24       0x10 /usr/local/xenon/xenon/lib/32/libc.a(lib_a-assert.o)
 .got2          0x0000000080020e34        0x4 /usr/local/xenon/xenon/lib/32/libc.a(lib_a-errno.o)
 .got2          0x0000000080020e38        0x4 /usr/local/xenon/xenon/lib/32/libc.a(lib_a-fclose.o)
 .got2          0x0000000080020e3c        0xc /usr/local/xenon/xenon/lib/32/libc.a(lib_a-fflush.o)
 .got2          0x0000000080020e48       0x28 /usr/local/xenon/xenon/lib/32/libc.a(lib_a-findfp.o)
 .got2          0x0000000080020e70        0x4 /usr/local/xenon/xenon/lib/32/libc.a(lib_a-fiprintf.o)
 .got2          0x0000000080020e74       0x18 /usr/local/xenon/xenon/lib/32/libc.a(lib_a-freer.o)
 .got2          0x0000000080020e8c        0x4 /usr/local/xenon/xenon/lib/32/libc.a(lib_a-fstatr.o)
 .got2          0x0000000080020e90        0x8 /usr/local/xenon/xenon/lib/32/libc.a(lib_a-makebuf.o)
 .got2          0x0000000080020e98        0x4 /usr/local/xenon/xenon/lib/32/libc.a(lib_a-malloc.o)
 .got2          0x0000000080020e9c       0x1c /usr/local/xenon/xenon/lib/32/libc.a(lib_a-mallocr.o)
 .got2          0x0000000080020eb8        0x4 /usr/local/xenon/xenon/lib/32/libc.a(lib_a-printf.o)
 .got2          0x0000000080020ebc        0x4 /usr/local/xenon/xenon/lib/32/libc.a(lib_a-putchar.o)
 .got2          0x0000000080020ec0        0x4 /usr/local/xenon/xenon/lib/32/libc.a(lib_a-putc.o)
 .got2          0x0000000080020ec4        0x8 /usr/local/xenon/xenon/lib/32/libc.a(lib_a-puts.o)
 .got2          0x0000000080020ecc        0x4 /usr/local/xenon/xenon/lib/32/libc.a(lib_a-sbrkr.o)
 .got2          0x0000000080020ed0        0x4 /usr/local/xenon/xenon/lib/32/libc.a(lib_a-signal.o)
 .got2          0x0000000080020ed4        0x4 /usr/local/xenon/xenon/lib/32/libc.a(lib_a-signalr.o)
 .got2          0x0000000080020ed8       0x1c /usr/local/xenon/xenon/lib/32/libc.a(lib_a-vfiprintf.o)
 .got2          0x0000000080020ef4       0x34 /usr/local/xenon/xenon/lib/32/libc.a(lib_a-vfprintf.o)
 .got2          0x0000000080020f28        0x4 /usr/local/xenon/xenon/lib/32/libc.a(lib_a-vprintf.o)
 .got2          0x0000000080020f2c        0x4 /usr/local/xenon/xenon/lib/32/libc.a(lib_a-wbuf.o)
 .got2          0x0000000080020f30        0x4 /usr/local/xenon/xenon/lib/32/libc.a(lib_a-writer.o)
 .got2          0x0000000080020f34        0x4 /usr/local/xenon/xenon/lib/32/libc.a(lib_a-wsetup.o)
 .got2          0x0000000080020f38        0x4 /usr/local/xenon/xenon/lib/32/libc.a(lib_a-closer.o)
 .got2          0x0000000080020f3c       0x48 /usr/local/xenon/xenon/lib/32/libc.a(lib_a-dtoa.o)
 .got2          0x0000000080020f84        0x4 /usr/local/xenon/xenon/lib/32/libc.a(lib_a-isattyr.o)
 .got2          0x0000000080020f88       0x10 /usr/local/xenon/xenon/lib/32/libc.a(lib_a-locale.o)
 .got2          0x0000000080020f98        0x4 /usr/local/xenon/xenon/lib/32/libc.a(lib_a-lseekr.o)
 .got2          0x0000000080020f9c       0x10 /usr/local/xenon/xenon/lib/32/libc.a(lib_a-mprec.o)
 .got2          0x0000000080020fac        0x4 /usr/local/xenon/xenon/lib/32/libc.a(lib_a-readr.o)
 .got2          0x0000000080020fb0        0x4 /usr/local/xenon/xenon/lib/32/libc.a(lib_a-reallocr.o)

.sdata          0x0000000080020fb4       0x10
 *(.sdata*)
 .sdata         0x0000000080020fb4        0x8 /usr/local/xenon/xenon/lib/32/libc.a(lib_a-impure.o)
                0x0000000080020fb8                _global_impure_ptr
                0x0000000080020fb4                _impure_ptr
 .sdata         0x0000000080020fbc        0x8 /usr/local/xenon/xenon/lib/32/libc.a(lib_a-mallocr.o)
                0x0000000080020fc0                __malloc_sbrk_base
                0x0000000080020fbc                __malloc_trim_threshold

.rodata         0x0000000080020fc8     0x2790
 *(.rodata*)
 .rodata.C.19.4675
                0x0000000080020fc8        0xc main.o
 .rodata.vbf.4659
                0x0000000080020fd4       0x7c main.o
 .rodata.C.18.4674
                0x0000000080021050       0x40 main.o
 .rodata.str1.8
                0x0000000080021090       0x78 main.o
                                         0x71 (size before relaxing)
 .rodata.str1.1
                0x0000000080021108       0x33 /usr/local/xenon/usr/lib/libxenon.a(console.o)
 *fill*         0x000000008002113b        0x5 00
 .rodata.fontdata_8x16
                0x0000000080021140     0x1000 /usr/local/xenon/usr/lib/libxenon.a(console.o)
                0x0000000080021140                fontdata_8x16
 .rodata.str1.1
                0x0000000080022140       0x1d /usr/local/xenon/usr/lib/libxenon.a(newlib.o)
 *fill*         0x000000008002215d        0x3 00
 .rodata.C.11.3929
                0x0000000080022160       0x90 /usr/local/xenon/usr/lib/libxenon.a(edram.o)
 .rodata.C.41.4382
                0x00000000800221f0       0x40 /usr/local/xenon/usr/lib/libxenon.a(edram.o)
 .rodata.cst4   0x0000000080022230        0x8 /usr/local/xenon/usr/lib/libxenon.a(edram.o)
 .rodata.C.18.3936
                0x0000000080022238       0x40 /usr/local/xenon/usr/lib/libxenon.a(edram.o)
 .rodata.C.50.4419
                0x0000000080022278       0x60 /usr/local/xenon/usr/lib/libxenon.a(edram.o)
 .rodata.C.43.4384
                0x00000000800222d8       0x20 /usr/local/xenon/usr/lib/libxenon.a(edram.o)
 .rodata.C.44.4385
                0x00000000800222f8       0x18 /usr/local/xenon/usr/lib/libxenon.a(edram.o)
 .rodata.__FUNCTION__.3761
                0x0000000080022310        0x9 /usr/local/xenon/usr/lib/libxenon.a(edram.o)
 *fill*         0x0000000080022319        0x3 00
 .rodata.C.14.3932
                0x000000008002231c       0x24 /usr/local/xenon/usr/lib/libxenon.a(edram.o)
 .rodata.C.13.3931
                0x0000000080022340       0x24 /usr/local/xenon/usr/lib/libxenon.a(edram.o)
 .rodata.str1.1
                0x0000000080022364       0xe2 /usr/local/xenon/usr/lib/libxenon.a(edram.o)
                                         0xe4 (size before relaxing)
 *fill*         0x0000000080022446        0x2 00
 .rodata.C.12.3930
                0x0000000080022448      0x100 /usr/local/xenon/usr/lib/libxenon.a(edram.o)
 .rodata.C.17.3935
                0x0000000080022548       0x40 /usr/local/xenon/usr/lib/libxenon.a(edram.o)
 .rodata.C.45.4386
                0x0000000080022588       0x18 /usr/local/xenon/usr/lib/libxenon.a(edram.o)
 .rodata.C.46.4387
                0x00000000800225a0       0x14 /usr/local/xenon/usr/lib/libxenon.a(edram.o)
 .rodata.C.16.3934
                0x00000000800225b4       0x40 /usr/local/xenon/usr/lib/libxenon.a(edram.o)
 .rodata.C.53.4440
                0x00000000800225f4       0x60 /usr/local/xenon/usr/lib/libxenon.a(edram.o)
 .rodata.C.42.4383
                0x0000000080022654       0x40 /usr/local/xenon/usr/lib/libxenon.a(edram.o)
 .rodata.C.15.3933
                0x0000000080022694       0x10 /usr/local/xenon/usr/lib/libxenon.a(edram.o)
 .rodata.Xe_pCalcVtxCount
                0x00000000800226a4       0x20 /usr/local/xenon/usr/lib/libxenon.a(xe.o)
 *fill*         0x00000000800226c4        0x4 00
 .rodata.__FUNCTION__.5712
                0x00000000800226c8        0xd /usr/local/xenon/usr/lib/libxenon.a(xe.o)
 *fill*         0x00000000800226d5        0x3 00
 .rodata.__FUNCTION__.4085
                0x00000000800226d8       0x19 /usr/local/xenon/usr/lib/libxenon.a(xe.o)
 *fill*         0x00000000800226f1        0x7 00
 .rodata.__FUNCTION__.4657
                0x00000000800226f8       0x1c /usr/local/xenon/usr/lib/libxenon.a(xe.o)
 .rodata.str1.1
                0x0000000080022714      0x4cf /usr/local/xenon/usr/lib/libxenon.a(xe.o)
                                        0x4d9 (size before relaxing)
 *fill*         0x0000000080022be3        0x5 00
 .rodata.__FUNCTION__.6014
                0x0000000080022be8       0x18 /usr/local/xenon/usr/lib/libxenon.a(xe.o)
 .rodata.cst4   0x0000000080022c00        0x8 /usr/local/xenon/usr/lib/libxenon.a(xe.o)
 .rodata.C.55.5791
                0x0000000080022c08        0xc /usr/local/xenon/usr/lib/libxenon.a(xe.o)
 *fill*         0x0000000080022c14        0x4 00
 .rodata.__FUNCTION__.4811
                0x0000000080022c18       0x15 /usr/local/xenon/usr/lib/libxenon.a(xe.o)
 *fill*         0x0000000080022c2d        0x3 00
 .rodata.C.12.3393
                0x0000000080022c30       0x40 /usr/local/xenon/usr/lib/libxenon.a(xenos.o)
 .rodata.C.9.3384
                0x0000000080022c70       0x44 /usr/local/xenon/usr/lib/libxenon.a(xenos.o)
 .rodata.CSWTCH.31
                0x0000000080022cb4       0x10 /usr/local/xenon/usr/lib/libxenon.a(xenos.o)
 .rodata.C.13.3412
                0x0000000080022cc4       0x5c /usr/local/xenon/usr/lib/libxenon.a(xenos.o)
 .rodata.str1.1
                0x0000000080022d20      0x1e0 /usr/local/xenon/usr/lib/libxenon.a(xenos.o)
 .rodata.__FUNCTION__.3423
                0x0000000080022f00       0x12 /usr/local/xenon/usr/lib/libxenon.a(xenos.o)
 *fill*         0x0000000080022f12        0x6 00
 .rodata.__FUNCTION__.3628
                0x0000000080022f18       0x12 /usr/local/xenon/usr/lib/libxenon.a(xenos.o)
 *fill*         0x0000000080022f2a        0x2 00
 .rodata.C.6.3364
                0x0000000080022f2c       0x1c /usr/local/xenon/usr/lib/libxenon.a(xenos.o)
 .rodata.C.10.3385
                0x0000000080022f48       0x44 /usr/local/xenon/usr/lib/libxenon.a(xenos.o)
 .rodata.str1.1
                0x0000000080022f8c       0x4b /usr/local/xenon/usr/lib/libxenon.a(lib_malloc.o)
 .rodata.str1.1
                0x0000000080022fd7      0x10b /usr/local/xenon/usr/lib/libxenon.a(xenon_smc.o)
 .rodata.str1.1
                0x00000000800230e2       0x40 /usr/local/xenon/usr/lib/libxenon.a(xenon_config.o)
 .rodata.str1.1
                0x0000000080023122      0x11d /usr/local/xenon/usr/lib/libxenon.a(xenon_sfcx.o)
 *fill*         0x000000008002323f        0x1 00
 .rodata.str1.4
                0x0000000080023240       0x3f /usr/local/xenon/xenon/lib/32/libc.a(lib_a-assert.o)
                                         0x43 (size before relaxing)
 *fill*         0x000000008002327f        0x1 00
 .rodata.str1.4
                0x0000000080023280        0x2 /usr/local/xenon/xenon/lib/32/libc.a(lib_a-impure.o)
 *fill*         0x0000000080023282        0x2 00
 .rodata.str1.4
                0x0000000080023284        0x2 /usr/local/xenon/xenon/lib/32/libc.a(lib_a-puts.o)
 *fill*         0x0000000080023286        0x2 00
 .rodata        0x0000000080023288      0x184 /usr/local/xenon/xenon/lib/32/libc.a(lib_a-vfiprintf.o)
 .rodata.str1.4
                0x000000008002340c       0x2f /usr/local/xenon/xenon/lib/32/libc.a(lib_a-vfiprintf.o)
 *fill*         0x000000008002343b        0x1 00
 .rodata        0x000000008002343c      0x184 /usr/local/xenon/xenon/lib/32/libc.a(lib_a-vfprintf.o)
 .rodata.cst4   0x00000000800235c0        0x4 /usr/local/xenon/xenon/lib/32/libc.a(lib_a-vfprintf.o)
 .rodata.str1.4
                0x00000000800235c4       0x12 /usr/local/xenon/xenon/lib/32/libc.a(lib_a-vfprintf.o)
                                         0x42 (size before relaxing)
 *fill*         0x00000000800235d6        0x2 00
 .rodata.cst4   0x00000000800235d8       0x1c /usr/local/xenon/xenon/lib/32/libc.a(lib_a-dtoa.o)
                                         0x24 (size before relaxing)
 *fill*         0x00000000800235f4        0x4 00
 .rodata.cst8   0x00000000800235f8       0x18 /usr/local/xenon/xenon/lib/32/libc.a(lib_a-dtoa.o)
 .rodata.str1.4
                0x0000000080023610       0x10 /usr/local/xenon/xenon/lib/32/libc.a(lib_a-dtoa.o)
                                         0x12 (size before relaxing)
 .rodata.str1.4
                0x0000000080023620       0x10 /usr/local/xenon/xenon/lib/32/libc.a(lib_a-locale.o)
                                         0x17 (size before relaxing)
 .rodata        0x0000000080023630      0x128 /usr/local/xenon/xenon/lib/32/libc.a(lib_a-mprec.o)
                0x0000000080023730                __mprec_tinytens
                0x0000000080023640                __mprec_tens
                0x0000000080023708                __mprec_bigtens
 .rodata.cst4   0x0000000000000000        0x8 /usr/local/xenon/xenon/lib/32/libc.a(lib_a-mprec.o)

.ctors          0x0000000080023758        0x0
                0x0000000080023758                __CTOR_LIST__ = .
 *(.ctors)
                0x0000000080023758                __CTOR_END__ = .

.dtors          0x0000000080023758        0x0
                0x0000000080023758                __DTOR_LIST__ = .
 *(.dtors)
                0x0000000080023758                __DTOR_END__ = .

.eh_frame_hdr   0x0000000080023758      0x7e4
 *(.eh_frame_hdr)
 .eh_frame_hdr  0x0000000080023758      0x7e4 /usr/local/xenon/lib/gcc/xenon/4.4.0/../../../../xenon/lib/../lib/crt1.o

.eh_frame       0x0000000080023f3c     0x1fec
 *(.eh_frame)
 .eh_frame      0x0000000080023f3c       0x38 /usr/local/xenon/lib/gcc/xenon/4.4.0/../../../../xenon/lib/../lib/crt1.o
 .eh_frame      0x0000000080023f74        0x0 /usr/local/xenon/lib/gcc/xenon/4.4.0/32/crtbegin.o
 .eh_frame      0x0000000080023f74        0x0 engine.o
                                        0x1bc (size before relaxing)
 .eh_frame      0x0000000080023f74       0x30 main.o
                                         0x58 (size before relaxing)
 .eh_frame      0x0000000080023fa4        0x0 xee.o
                                         0xd8 (size before relaxing)
 .eh_frame      0x0000000080023fa4       0x90 /usr/local/xenon/usr/lib/libxenon.a(console.o)
                                         0xe0 (size before relaxing)
 .eh_frame      0x0000000080024034      0x120 /usr/local/xenon/usr/lib/libxenon.a(newlib.o)
                                        0x1f0 (size before relaxing)
 .eh_frame      0x0000000080024154       0x20 /usr/local/xenon/usr/lib/libxenon.a(xenon_uart.o)
                                         0x5c (size before relaxing)
 .eh_frame      0x0000000080024174      0x29c /usr/local/xenon/usr/lib/libxenon.a(edram.o)
                                        0x2f0 (size before relaxing)
 .eh_frame      0x0000000080024410      0x85c /usr/local/xenon/usr/lib/libxenon.a(xe.o)
                                        0xef4 (size before relaxing)
 .eh_frame      0x0000000080024c6c      0x1a0 /usr/local/xenon/usr/lib/libxenon.a(xenos.o)
                                        0x1b4 (size before relaxing)
 .eh_frame      0x0000000080024e0c       0x44 /usr/local/xenon/usr/lib/libxenon.a(lib_malloc.o)
                                         0xc0 (size before relaxing)
 .eh_frame      0x0000000080024e50       0x50 /usr/local/xenon/usr/lib/libxenon.a(io.o)
                                         0x64 (size before relaxing)
 .eh_frame      0x0000000080024ea0       0x28 /usr/local/xenon/usr/lib/libxenon.a(time.o)
                                         0x50 (size before relaxing)
 .eh_frame      0x0000000080024ec8       0x48 /usr/local/xenon/usr/lib/libxenon.a(xenon_gpio.o)
                                         0x7c (size before relaxing)
 .eh_frame      0x0000000080024f10       0xf0 /usr/local/xenon/usr/lib/libxenon.a(xenon_smc.o)
                                        0x1a4 (size before relaxing)
 .eh_frame      0x0000000080025000       0x34 /usr/local/xenon/usr/lib/libxenon.a(xenon_config.o)
                                         0x70 (size before relaxing)
 .eh_frame      0x0000000080025034       0x70 /usr/local/xenon/usr/lib/libxenon.a(xenon_sfcx.o)
                                        0x1e8 (size before relaxing)
 .eh_frame      0x00000000800250a4        0x0 /usr/local/xenon/xenon/lib/32/libm.a(lib_a-sf_tan.o)
                                         0x34 (size before relaxing)
 .eh_frame      0x00000000800250a4        0x0 /usr/local/xenon/xenon/lib/32/libm.a(lib_a-wf_sincos.o)
                                         0x3c (size before relaxing)
 .eh_frame      0x00000000800250a4        0x0 /usr/local/xenon/xenon/lib/32/libm.a(lib_a-w_sincos.o)
                                         0x3c (size before relaxing)
 .eh_frame      0x00000000800250a4        0x0 /usr/local/xenon/xenon/lib/32/libm.a(lib_a-ef_rem_pio2.o)
                                         0x3c (size before relaxing)
 .eh_frame      0x00000000800250a4        0x0 /usr/local/xenon/xenon/lib/32/libm.a(lib_a-kf_rem_pio2.o)
                                         0x64 (size before relaxing)
 .eh_frame      0x00000000800250a4        0x0 /usr/local/xenon/xenon/lib/32/libm.a(lib_a-kf_tan.o)
                                         0x34 (size before relaxing)
 .eh_frame      0x00000000800250a4        0x0 /usr/local/xenon/xenon/lib/32/libm.a(lib_a-s_cos.o)
                                         0x34 (size before relaxing)
 .eh_frame      0x00000000800250a4        0x0 /usr/local/xenon/xenon/lib/32/libm.a(lib_a-sf_cos.o)
                                         0x34 (size before relaxing)
 .eh_frame      0x00000000800250a4        0x0 /usr/local/xenon/xenon/lib/32/libm.a(lib_a-sf_fabs.o)
                                         0x28 (size before relaxing)
 .eh_frame      0x00000000800250a4        0x0 /usr/local/xenon/xenon/lib/32/libm.a(lib_a-sf_floor.o)
                                         0x34 (size before relaxing)
 .eh_frame      0x00000000800250a4        0x0 /usr/local/xenon/xenon/lib/32/libm.a(lib_a-sf_scalbn.o)
                                         0x38 (size before relaxing)
 .eh_frame      0x00000000800250a4        0x0 /usr/local/xenon/xenon/lib/32/libm.a(lib_a-sf_sin.o)
                                         0x34 (size before relaxing)
 .eh_frame      0x00000000800250a4        0x0 /usr/local/xenon/xenon/lib/32/libm.a(lib_a-s_sin.o)
                                         0x34 (size before relaxing)
 .eh_frame      0x00000000800250a4        0x0 /usr/local/xenon/xenon/lib/32/libm.a(lib_a-e_rem_pio2.o)
                                         0x3c (size before relaxing)
 .eh_frame      0x00000000800250a4        0x0 /usr/local/xenon/xenon/lib/32/libm.a(lib_a-k_cos.o)
                                         0x34 (size before relaxing)
 .eh_frame      0x00000000800250a4        0x0 /usr/local/xenon/xenon/lib/32/libm.a(lib_a-kf_cos.o)
                                         0x34 (size before relaxing)
 .eh_frame      0x00000000800250a4        0x0 /usr/local/xenon/xenon/lib/32/libm.a(lib_a-kf_sin.o)
                                         0x34 (size before relaxing)
 .eh_frame      0x00000000800250a4        0x0 /usr/local/xenon/xenon/lib/32/libm.a(lib_a-k_rem_pio2.o)
                                         0x64 (size before relaxing)
 .eh_frame      0x00000000800250a4        0x0 /usr/local/xenon/xenon/lib/32/libm.a(lib_a-k_sin.o)
                                         0x34 (size before relaxing)
 .eh_frame      0x00000000800250a4        0x0 /usr/local/xenon/xenon/lib/32/libm.a(lib_a-s_fabs.o)
                                         0x28 (size before relaxing)
 .eh_frame      0x00000000800250a4        0x0 /usr/local/xenon/xenon/lib/32/libm.a(lib_a-sf_copysign.o)
                                         0x28 (size before relaxing)
 .eh_frame      0x00000000800250a4        0x0 /usr/local/xenon/xenon/lib/32/libm.a(lib_a-s_floor.o)
                                         0x34 (size before relaxing)
 .eh_frame      0x00000000800250a4        0x0 /usr/local/xenon/xenon/lib/32/libm.a(lib_a-s_scalbn.o)
                                         0x38 (size before relaxing)
 .eh_frame      0x00000000800250a4        0x0 /usr/local/xenon/xenon/lib/32/libm.a(lib_a-s_copysign.o)
                                         0x28 (size before relaxing)
 .eh_frame      0x00000000800250a4       0x18 /usr/local/xenon/xenon/lib/32/libc.a(lib_a-abort.o)
                                         0x2c (size before relaxing)
 .eh_frame      0x00000000800250bc       0x38 /usr/local/xenon/xenon/lib/32/libc.a(lib_a-assert.o)
                                         0x4c (size before relaxing)
 .eh_frame      0x00000000800250f4       0x20 /usr/local/xenon/xenon/lib/32/libc.a(lib_a-errno.o)
                                         0x34 (size before relaxing)
 .eh_frame      0x0000000080025114       0x48 /usr/local/xenon/xenon/lib/32/libc.a(lib_a-fclose.o)
                                         0x5c (size before relaxing)
 .eh_frame      0x000000008002515c       0x48 /usr/local/xenon/xenon/lib/32/libc.a(lib_a-fflush.o)
                                         0x5c (size before relaxing)
 .eh_frame      0x00000000800251a4      0x190 /usr/local/xenon/xenon/lib/32/libc.a(lib_a-findfp.o)
                                        0x1a4 (size before relaxing)
 .eh_frame      0x0000000080025334       0x38 /usr/local/xenon/xenon/lib/32/libc.a(lib_a-fiprintf.o)
                                         0x4c (size before relaxing)
 .eh_frame      0x000000008002536c        0x0 /usr/local/xenon/xenon/lib/32/libc.a(lib_a-fopen.o)
                                         0x5c (size before relaxing)
 .eh_frame      0x000000008002536c        0x0 /usr/local/xenon/xenon/lib/32/libc.a(lib_a-fread.o)
                                         0x6c (size before relaxing)
 .eh_frame      0x000000008002536c       0x4c /usr/local/xenon/xenon/lib/32/libc.a(lib_a-freer.o)
                                         0x60 (size before relaxing)
 .eh_frame      0x00000000800253b8        0x0 /usr/local/xenon/xenon/lib/32/libc.a(lib_a-fseek.o)
                                         0x68 (size before relaxing)
 .eh_frame      0x00000000800253b8       0x24 /usr/local/xenon/xenon/lib/32/libc.a(lib_a-fstatr.o)
                                         0x38 (size before relaxing)
 .eh_frame      0x00000000800253dc        0x0 /usr/local/xenon/xenon/lib/32/libc.a(lib_a-ftell.o)
                                         0x58 (size before relaxing)
 .eh_frame      0x00000000800253dc       0x54 /usr/local/xenon/xenon/lib/32/libc.a(lib_a-fwalk.o)
                                         0x68 (size before relaxing)
 .eh_frame      0x0000000080025430       0x28 /usr/local/xenon/xenon/lib/32/libc.a(lib_a-makebuf.o)
                                         0x3c (size before relaxing)
 .eh_frame      0x0000000080025458       0x40 /usr/local/xenon/xenon/lib/32/libc.a(lib_a-malloc.o)
                                         0x54 (size before relaxing)
 .eh_frame      0x0000000080025498       0x34 /usr/local/xenon/xenon/lib/32/libc.a(lib_a-mallocr.o)
                                         0x48 (size before relaxing)
 .eh_frame      0x00000000800254cc       0x1c /usr/local/xenon/xenon/lib/32/libc.a(lib_a-memcpy.o)
                                         0x30 (size before relaxing)
 .eh_frame      0x00000000800254e8       0x1c /usr/local/xenon/xenon/lib/32/libc.a(lib_a-memset.o)
                                         0x30 (size before relaxing)
 .eh_frame      0x0000000080025504       0x28 /usr/local/xenon/xenon/lib/32/libc.a(lib_a-mlock.o)
                                         0x3c (size before relaxing)
 .eh_frame      0x000000008002552c        0x0 /usr/local/xenon/xenon/lib/32/libc.a(lib_a-openr.o)
                                         0x38 (size before relaxing)
 .eh_frame      0x000000008002552c       0x38 /usr/local/xenon/xenon/lib/32/libc.a(lib_a-printf.o)
                                         0x4c (size before relaxing)
 .eh_frame      0x0000000080025564       0x38 /usr/local/xenon/xenon/lib/32/libc.a(lib_a-putchar.o)
                                         0x4c (size before relaxing)
 .eh_frame      0x000000008002559c       0x48 /usr/local/xenon/xenon/lib/32/libc.a(lib_a-putc.o)
                                         0x5c (size before relaxing)
 .eh_frame      0x00000000800255e4       0x44 /usr/local/xenon/xenon/lib/32/libc.a(lib_a-puts.o)
                                         0x58 (size before relaxing)
 .eh_frame      0x0000000080025628        0x0 /usr/local/xenon/xenon/lib/32/libc.a(lib_a-reent.o)
                                         0x84 (size before relaxing)
 .eh_frame      0x0000000080025628        0x0 /usr/local/xenon/xenon/lib/32/libc.a(lib_a-refill.o)
                                         0x50 (size before relaxing)
 .eh_frame      0x0000000080025628       0x24 /usr/local/xenon/xenon/lib/32/libc.a(lib_a-sbrkr.o)
                                         0x38 (size before relaxing)
 .eh_frame      0x000000008002564c      0x104 /usr/local/xenon/xenon/lib/32/libc.a(lib_a-signal.o)
                                        0x118 (size before relaxing)
 .eh_frame      0x0000000080025750       0x3c /usr/local/xenon/xenon/lib/32/libc.a(lib_a-signalr.o)
                                         0x50 (size before relaxing)
 .eh_frame      0x000000008002578c       0x74 /usr/local/xenon/xenon/lib/32/libc.a(lib_a-stdio.o)
                                         0x88 (size before relaxing)
 .eh_frame      0x0000000080025800       0x1c /usr/local/xenon/xenon/lib/32/libc.a(lib_a-strcmp.o)
                                         0x30 (size before relaxing)
 .eh_frame      0x000000008002581c        0x0 /usr/local/xenon/xenon/lib/32/libc.a(lib_a-strcpy.o)
                                         0x30 (size before relaxing)
 .eh_frame      0x000000008002581c       0x1c /usr/local/xenon/xenon/lib/32/libc.a(lib_a-strlen.o)
                                         0x30 (size before relaxing)
 .eh_frame      0x0000000080025838        0x0 /usr/local/xenon/xenon/lib/32/libc.a(lib_a-strncmp.o)
                                         0x30 (size before relaxing)
 .eh_frame      0x0000000080025838       0x88 /usr/local/xenon/xenon/lib/32/libc.a(lib_a-vfiprintf.o)
                                         0x9c (size before relaxing)
 .eh_frame      0x00000000800258c0       0x8c /usr/local/xenon/xenon/lib/32/libc.a(lib_a-vfprintf.o)
                                         0xa0 (size before relaxing)
 .eh_frame      0x000000008002594c       0x38 /usr/local/xenon/xenon/lib/32/libc.a(lib_a-vprintf.o)
                                         0x4c (size before relaxing)
 .eh_frame      0x0000000080025984       0x48 /usr/local/xenon/xenon/lib/32/libc.a(lib_a-wbuf.o)
                                         0x5c (size before relaxing)
 .eh_frame      0x00000000800259cc       0x24 /usr/local/xenon/xenon/lib/32/libc.a(lib_a-writer.o)
                                         0x38 (size before relaxing)
 .eh_frame      0x00000000800259f0       0x24 /usr/local/xenon/xenon/lib/32/libc.a(lib_a-wsetup.o)
                                         0x38 (size before relaxing)
 .eh_frame      0x0000000080025a14       0x24 /usr/local/xenon/xenon/lib/32/libc.a(lib_a-closer.o)
                                         0x38 (size before relaxing)
 .eh_frame      0x0000000080025a38       0x80 /usr/local/xenon/xenon/lib/32/libc.a(lib_a-dtoa.o)
                                         0x94 (size before relaxing)
 .eh_frame      0x0000000080025ab8        0x0 /usr/local/xenon/xenon/lib/32/libc.a(lib_a-flags.o)
                                         0x28 (size before relaxing)
 .eh_frame      0x0000000080025ab8       0x34 /usr/local/xenon/xenon/lib/32/libc.a(lib_a-fvwrite.o)
                                         0x48 (size before relaxing)
 .eh_frame      0x0000000080025aec       0x24 /usr/local/xenon/xenon/lib/32/libc.a(lib_a-isattyr.o)
                                         0x38 (size before relaxing)
 .eh_frame      0x0000000080025b10       0xa8 /usr/local/xenon/xenon/lib/32/libc.a(lib_a-locale.o)
                                         0xbc (size before relaxing)
 .eh_frame      0x0000000080025bb8       0x24 /usr/local/xenon/xenon/lib/32/libc.a(lib_a-lseekr.o)
                                         0x38 (size before relaxing)
 .eh_frame      0x0000000080025bdc       0x1c /usr/local/xenon/xenon/lib/32/libc.a(lib_a-memchr.o)
                                         0x30 (size before relaxing)
 .eh_frame      0x0000000080025bf8       0x1c /usr/local/xenon/xenon/lib/32/libc.a(lib_a-memmove.o)
                                         0x30 (size before relaxing)
 .eh_frame      0x0000000080025c14      0x270 /usr/local/xenon/xenon/lib/32/libc.a(lib_a-mprec.o)
                                        0x284 (size before relaxing)
 .eh_frame      0x0000000080025e84       0x24 /usr/local/xenon/xenon/lib/32/libc.a(lib_a-readr.o)
                                         0x38 (size before relaxing)
 .eh_frame      0x0000000080025ea8       0x38 /usr/local/xenon/xenon/lib/32/libc.a(lib_a-reallocr.o)
                                         0x4c (size before relaxing)
 .eh_frame      0x0000000080025ee0       0x14 /usr/local/xenon/xenon/lib/32/libc.a(lib_a-s_isinfd.o)
                                         0x28 (size before relaxing)
 .eh_frame      0x0000000080025ef4       0x14 /usr/local/xenon/xenon/lib/32/libc.a(lib_a-s_isnand.o)
                                         0x28 (size before relaxing)
 .eh_frame      0x0000000080025f08       0x1c /usr/local/xenon/xenon/lib/32/libc.a(lib_a-callocr.o)
                                         0x30 (size before relaxing)
 .eh_frame      0x0000000080025f24        0x4 /usr/local/xenon/lib/gcc/xenon/4.4.0/32/crtend.o

.rela.dyn       0x0000000080025f28        0x0
 .rela.text.call_ctors
                0x0000000000000000        0x0 /usr/local/xenon/lib/gcc/xenon/4.4.0/../../../../xenon/lib/../lib/crt1.o
 .rela.got2     0x0000000000000000        0x0 /usr/local/xenon/lib/gcc/xenon/4.4.0/../../../../xenon/lib/../lib/crt1.o
 .rela.text.glTranslate
                0x0000000000000000        0x0 /usr/local/xenon/lib/gcc/xenon/4.4.0/../../../../xenon/lib/../lib/crt1.o
 .rela.text.glScale
                0x0000000000000000        0x0 /usr/local/xenon/lib/gcc/xenon/4.4.0/../../../../xenon/lib/../lib/crt1.o
 .rela.text.glMultMatrix
                0x0000000000000000        0x0 /usr/local/xenon/lib/gcc/xenon/4.4.0/../../../../xenon/lib/../lib/crt1.o
 .rela.text.glPopMatrix
                0x0000000000000000        0x0 /usr/local/xenon/lib/gcc/xenon/4.4.0/../../../../xenon/lib/../lib/crt1.o
 .rela.text.glPushMatrix
                0x0000000000000000        0x0 /usr/local/xenon/lib/gcc/xenon/4.4.0/../../../../xenon/lib/../lib/crt1.o
 .rela.text.glLoadMatrix
                0x0000000000000000        0x0 /usr/local/xenon/lib/gcc/xenon/4.4.0/../../../../xenon/lib/../lib/crt1.o
 .rela.text.glLoadIdentity
                0x0000000000000000        0x0 /usr/local/xenon/lib/gcc/xenon/4.4.0/../../../../xenon/lib/../lib/crt1.o
 .rela.text.glRotate
                0x0000000000000000        0x0 /usr/local/xenon/lib/gcc/xenon/4.4.0/../../../../xenon/lib/../lib/crt1.o
 .rela.text.main
                0x0000000000000000        0x0 /usr/local/xenon/lib/gcc/xenon/4.4.0/../../../../xenon/lib/../lib/crt1.o
 .rela.text.M_LoadMW
                0x0000000000000000        0x0 /usr/local/xenon/lib/gcc/xenon/4.4.0/../../../../xenon/lib/../lib/crt1.o
 .rela.text.M_LoadMV
                0x0000000000000000        0x0 /usr/local/xenon/lib/gcc/xenon/4.4.0/../../../../xenon/lib/../lib/crt1.o
 .rela.text     0x0000000000000000        0x0 /usr/local/xenon/lib/gcc/xenon/4.4.0/../../../../xenon/lib/../lib/crt1.o
 .rela.text.console_close
                0x0000000000000000        0x0 /usr/local/xenon/lib/gcc/xenon/4.4.0/../../../../xenon/lib/../lib/crt1.o
 .rela.text.console_init
                0x0000000000000000        0x0 /usr/local/xenon/lib/gcc/xenon/4.4.0/../../../../xenon/lib/../lib/crt1.o
 .rela.text.sbrk
                0x0000000000000000        0x0 /usr/local/xenon/lib/gcc/xenon/4.4.0/../../../../xenon/lib/../lib/crt1.o
 .rela.text.edram_72c
                0x0000000000000000        0x0 /usr/local/xenon/lib/gcc/xenon/4.4.0/../../../../xenon/lib/../lib/crt1.o
 .rela.text.edram_974
                0x0000000000000000        0x0 /usr/local/xenon/lib/gcc/xenon/4.4.0/../../../../xenon/lib/../lib/crt1.o
 .rela.text.edram_9e4
                0x0000000000000000        0x0 /usr/local/xenon/lib/gcc/xenon/4.4.0/../../../../xenon/lib/../lib/crt1.o
 .rela.text.edram_bec
                0x0000000000000000        0x0 /usr/local/xenon/lib/gcc/xenon/4.4.0/../../../../xenon/lib/../lib/crt1.o
 .rela.text.edram_4c
                0x0000000000000000        0x0 /usr/local/xenon/lib/gcc/xenon/4.4.0/../../../../xenon/lib/../lib/crt1.o
 .rela.text.edram_p2
                0x0000000000000000        0x0 /usr/local/xenon/lib/gcc/xenon/4.4.0/../../../../xenon/lib/../lib/crt1.o
 .rela.text.edram_init_state1
                0x0000000000000000        0x0 /usr/local/xenon/lib/gcc/xenon/4.4.0/../../../../xenon/lib/../lib/crt1.o
 .rela.text.edram_init
                0x0000000000000000        0x0 /usr/local/xenon/lib/gcc/xenon/4.4.0/../../../../xenon/lib/../lib/crt1.o
 .rela.text.Xe_pMasterInit
                0x0000000000000000        0x0 /usr/local/xenon/lib/gcc/xenon/4.4.0/../../../../xenon/lib/../lib/crt1.o
 .rela.text.kmem_init
                0x0000000000000000        0x0 /usr/local/xenon/lib/gcc/xenon/4.4.0/../../../../xenon/lib/../lib/crt1.o
 .rela.text.xenon_config_init
                0x0000000000000000        0x0 /usr/local/xenon/lib/gcc/xenon/4.4.0/../../../../xenon/lib/../lib/crt1.o

.gcc_except_table
 *(.gcc_except_table .gcc_except_table.*)
                0x0000000080025f28                bss_start = .

.bss            0x0000000080025f28     0x29f0
 *(.bss*)
 .bss.console_size
                0x0000000080025f28        0x4 /usr/local/xenon/usr/lib/libxenon.a(console.o)
 .bss.offset_x  0x0000000080025f2c        0x4 /usr/local/xenon/usr/lib/libxenon.a(console.o)
 .bss.console_width
                0x0000000080025f30        0x4 /usr/local/xenon/usr/lib/libxenon.a(console.o)
 .bss.offset_y  0x0000000080025f34        0x4 /usr/local/xenon/usr/lib/libxenon.a(console.o)
 .bss.console_fb
                0x0000000080025f38        0x4 /usr/local/xenon/usr/lib/libxenon.a(console.o)
 .bss.console_height
                0x0000000080025f3c        0x4 /usr/local/xenon/usr/lib/libxenon.a(console.o)
 .bss.max_x     0x0000000080025f40        0x4 /usr/local/xenon/usr/lib/libxenon.a(console.o)
 .bss.max_y     0x0000000080025f44        0x4 /usr/local/xenon/usr/lib/libxenon.a(console.o)
 .bss.cursor_x  0x0000000080025f48        0x4 /usr/local/xenon/usr/lib/libxenon.a(console.o)
 .bss.cursor_y  0x0000000080025f4c        0x4 /usr/local/xenon/usr/lib/libxenon.a(console.o)
 .bss.base.4307
                0x0000000080025f50        0x4 /usr/local/xenon/usr/lib/libxenon.a(edram.o)
 .bss.ptr.4308  0x0000000080025f54        0x4 /usr/local/xenon/usr/lib/libxenon.a(edram.o)
 .bss.xenos_current_mode
                0x0000000080025f58        0x4 /usr/local/xenon/usr/lib/libxenon.a(xenos.o)
 *fill*         0x0000000080025f5c        0x4 00
 .bss.sfcx_page
                0x0000000080025f60      0x210 /usr/local/xenon/usr/lib/libxenon.a(xenon_config.o)
 .bss.secured_settings
                0x0000000080026170      0x208 /usr/local/xenon/usr/lib/libxenon.a(xenon_config.o)
                0x0000000080026170                secured_settings
 .bss.xenon_config_initialized
                0x0000000080026378        0x4 /usr/local/xenon/usr/lib/libxenon.a(xenon_config.o)
 .bss.sfc       0x000000008002637c       0x44 /usr/local/xenon/usr/lib/libxenon.a(xenon_sfcx.o)
                0x000000008002637c                sfc
 .bss           0x00000000800263c0       0x28 /usr/local/xenon/xenon/lib/32/libc.a(lib_a-mallocr.o)
                0x00000000800263c0                __malloc_current_mallinfo
 COMMON         0x00000000800263e8     0x2508 main.o
                0x00000000800263e8                _xe
 COMMON         0x00000000800288f0       0x28 /usr/local/xenon/usr/lib/libxenon.a(edram.o)
                0x00000000800288f0                reloc

.sbss           0x0000000080028918       0x40
 *(.sbss*)
 .sbss          0x0000000000000000        0x0 /usr/local/xenon/lib/gcc/xenon/4.4.0/../../../../xenon/lib/../lib/crt1.o
 .sbss          0x0000000080028918       0x18 main.o
                0x0000000080028918                vb
                0x000000008002891c                xe
                0x0000000080028920                ib
                0x0000000080028924                sh_ps
                0x0000000080028928                fb
                0x000000008002892c                sh_vs
 .sbss.stdout_hook
                0x0000000080028930        0x4 /usr/local/xenon/usr/lib/libxenon.a(newlib.o)
                0x0000000080028930                stdout_hook
 .sbss          0x0000000080028934        0x4 /usr/local/xenon/usr/lib/libxenon.a(newlib.o)
                0x0000000080028934                heap_ptr
 .sbss.edram_id
                0x0000000080028938        0x4 /usr/local/xenon/usr/lib/libxenon.a(edram.o)
                0x0000000080028938                edram_id
 .sbss.edram_rev
                0x000000008002893c        0x4 /usr/local/xenon/usr/lib/libxenon.a(edram.o)
                0x000000008002893c                edram_rev
 .sbss.stat_alu_uploaded
                0x0000000080028940        0x4 /usr/local/xenon/usr/lib/libxenon.a(xe.o)
                0x0000000080028940                stat_alu_uploaded
 .sbss.xenos_id
                0x0000000080028944        0x4 /usr/local/xenon/usr/lib/libxenon.a(xenos.o)
                0x0000000080028944                xenos_id
 .sbss          0x0000000080028948        0xc /usr/local/xenon/xenon/lib/32/libc.a(lib_a-mallocr.o)
                0x0000000080028948                __malloc_top_pad
                0x000000008002894c                __malloc_max_sbrked_mem
                0x0000000080028950                __malloc_max_total_mem
 .sbss          0x0000000080028954        0x4 /usr/local/xenon/xenon/lib/32/libc.a(lib_a-reent.o)
                0x0000000080028954                errno
                0x0000000080028958                bss_end = .
                0x0000000080028958                heap_begin = .
                0x0000000090000000                . = 0x90000000
                0x0000000090000000                __libc_stack_end = .
                0x0000000090000000                heap_end = .
                0x00000000a0000000                . = 0xa0000000
OUTPUT(/home/tiffany/libxenon/basicrender/xenon.elf elf32-powerpc)

.debug_abbrev   0x0000000000000000     0x8bea
 .debug_abbrev  0x0000000000000000       0x7d /usr/local/xenon/lib/gcc/xenon/4.4.0/../../../../xenon/lib/../lib/crt1.o
 .debug_abbrev  0x000000000000007d      0x176 engine.o
 .debug_abbrev  0x00000000000001f3       0x49 ffs_content.o
 .debug_abbrev  0x000000000000023c      0x1d3 main.o
 .debug_abbrev  0x000000000000040f      0x199 xee.o
 .debug_abbrev  0x00000000000005a8      0x1dd /usr/local/xenon/usr/lib/libxenon.a(console.o)
 .debug_abbrev  0x0000000000000785      0x247 /usr/local/xenon/usr/lib/libxenon.a(newlib.o)
 .debug_abbrev  0x00000000000009cc       0x63 /usr/local/xenon/usr/lib/libxenon.a(vm.o)
 .debug_abbrev  0x0000000000000a2f       0xc8 /usr/local/xenon/usr/lib/libxenon.a(xenon_uart.o)
 .debug_abbrev  0x0000000000000af7      0x31f /usr/local/xenon/usr/lib/libxenon.a(edram.o)
 .debug_abbrev  0x0000000000000e16      0x4c2 /usr/local/xenon/usr/lib/libxenon.a(xe.o)
 .debug_abbrev  0x00000000000012d8      0x205 /usr/local/xenon/usr/lib/libxenon.a(xenos.o)
 .debug_abbrev  0x00000000000014dd      0x26c /usr/local/xenon/usr/lib/libxenon.a(lib_malloc.o)
 .debug_abbrev  0x0000000000001749       0xad /usr/local/xenon/usr/lib/libxenon.a(io.o)
 .debug_abbrev  0x00000000000017f6      0x11d /usr/local/xenon/usr/lib/libxenon.a(time.o)
 .debug_abbrev  0x0000000000001913       0xa5 /usr/local/xenon/usr/lib/libxenon.a(xenon_gpio.o)
 .debug_abbrev  0x00000000000019b8      0x10c /usr/local/xenon/usr/lib/libxenon.a(xenon_smc.o)
 .debug_abbrev  0x0000000000001ac4      0x173 /usr/local/xenon/usr/lib/libxenon.a(xenon_config.o)
 .debug_abbrev  0x0000000000001c37       0x70 /usr/local/xenon/usr/lib/libxenon.a(ucode.o)
 .debug_abbrev  0x0000000000001ca7      0x1f7 /usr/local/xenon/usr/lib/libxenon.a(xenon_sfcx.o)
 .debug_abbrev  0x0000000000001e9e       0xe0 /usr/local/xenon/xenon/lib/32/libm.a(lib_a-sf_tan.o)
 .debug_abbrev  0x0000000000001f7e       0x71 /usr/local/xenon/xenon/lib/32/libm.a(lib_a-wf_sincos.o)
 .debug_abbrev  0x0000000000001fef       0x71 /usr/local/xenon/xenon/lib/32/libm.a(lib_a-w_sincos.o)
 .debug_abbrev  0x0000000000002060      0x119 /usr/local/xenon/xenon/lib/32/libm.a(lib_a-ef_rem_pio2.o)
 .debug_abbrev  0x0000000000002179      0x10b /usr/local/xenon/xenon/lib/32/libm.a(lib_a-kf_rem_pio2.o)
 .debug_abbrev  0x0000000000002284      0x110 /usr/local/xenon/xenon/lib/32/libm.a(lib_a-kf_tan.o)
 .debug_abbrev  0x0000000000002394       0xfc /usr/local/xenon/xenon/lib/32/libm.a(lib_a-s_cos.o)
 .debug_abbrev  0x0000000000002490       0xf8 /usr/local/xenon/xenon/lib/32/libm.a(lib_a-sf_cos.o)
 .debug_abbrev  0x0000000000002588       0x73 /usr/local/xenon/xenon/lib/32/libm.a(lib_a-sf_fabs.o)
 .debug_abbrev  0x00000000000025fb       0x8d /usr/local/xenon/xenon/lib/32/libm.a(lib_a-sf_floor.o)
 .debug_abbrev  0x0000000000002688       0xca /usr/local/xenon/xenon/lib/32/libm.a(lib_a-sf_scalbn.o)
 .debug_abbrev  0x0000000000002752       0xe0 /usr/local/xenon/xenon/lib/32/libm.a(lib_a-sf_sin.o)
 .debug_abbrev  0x0000000000002832       0xfc /usr/local/xenon/xenon/lib/32/libm.a(lib_a-s_sin.o)
 .debug_abbrev  0x000000000000292e      0x147 /usr/local/xenon/xenon/lib/32/libm.a(lib_a-e_rem_pio2.o)
 .debug_abbrev  0x0000000000002a75      0x11e /usr/local/xenon/xenon/lib/32/libm.a(lib_a-k_cos.o)
 .debug_abbrev  0x0000000000002b93       0xe6 /usr/local/xenon/xenon/lib/32/libm.a(lib_a-kf_cos.o)
 .debug_abbrev  0x0000000000002c79       0xe8 /usr/local/xenon/xenon/lib/32/libm.a(lib_a-kf_sin.o)
 .debug_abbrev  0x0000000000002d61      0x10b /usr/local/xenon/xenon/lib/32/libm.a(lib_a-k_rem_pio2.o)
 .debug_abbrev  0x0000000000002e6c      0x113 /usr/local/xenon/xenon/lib/32/libm.a(lib_a-k_sin.o)
 .debug_abbrev  0x0000000000002f7f       0xce /usr/local/xenon/xenon/lib/32/libm.a(lib_a-s_fabs.o)
 .debug_abbrev  0x000000000000304d       0x82 /usr/local/xenon/xenon/lib/32/libm.a(lib_a-sf_copysign.o)
 .debug_abbrev  0x00000000000030cf      0x100 /usr/local/xenon/xenon/lib/32/libm.a(lib_a-s_floor.o)
 .debug_abbrev  0x00000000000031cf       0xfc /usr/local/xenon/xenon/lib/32/libm.a(lib_a-s_scalbn.o)
 .debug_abbrev  0x00000000000032cb       0xe2 /usr/local/xenon/xenon/lib/32/libm.a(lib_a-s_copysign.o)
 .debug_abbrev  0x00000000000033ad       0x48 /usr/local/xenon/xenon/lib/32/libc.a(lib_a-abort.o)
 .debug_abbrev  0x00000000000033f5      0x177 /usr/local/xenon/xenon/lib/32/libc.a(lib_a-assert.o)
 .debug_abbrev  0x000000000000356c      0x168 /usr/local/xenon/xenon/lib/32/libc.a(lib_a-errno.o)
 .debug_abbrev  0x00000000000036d4      0x1b0 /usr/local/xenon/xenon/lib/32/libc.a(lib_a-fclose.o)
 .debug_abbrev  0x0000000000003884      0x1c4 /usr/local/xenon/xenon/lib/32/libc.a(lib_a-fflush.o)
 .debug_abbrev  0x0000000000003a48      0x244 /usr/local/xenon/xenon/lib/32/libc.a(lib_a-findfp.o)
 .debug_abbrev  0x0000000000003c8c      0x1b3 /usr/local/xenon/xenon/lib/32/libc.a(lib_a-fiprintf.o)
 .debug_abbrev  0x0000000000003e3f      0x1bf /usr/local/xenon/xenon/lib/32/libc.a(lib_a-fopen.o)
 .debug_abbrev  0x0000000000003ffe      0x1e0 /usr/local/xenon/xenon/lib/32/libc.a(lib_a-fread.o)
 .debug_abbrev  0x00000000000041de      0x1e2 /usr/local/xenon/xenon/lib/32/libc.a(lib_a-freer.o)
 .debug_abbrev  0x00000000000043c0      0x20d /usr/local/xenon/xenon/lib/32/libc.a(lib_a-fseek.o)
 .debug_abbrev  0x00000000000045cd      0x197 /usr/local/xenon/xenon/lib/32/libc.a(lib_a-fstatr.o)
 .debug_abbrev  0x0000000000004764      0x1a1 /usr/local/xenon/xenon/lib/32/libc.a(lib_a-ftell.o)
 .debug_abbrev  0x0000000000004905      0x1ee /usr/local/xenon/xenon/lib/32/libc.a(lib_a-fwalk.o)
 .debug_abbrev  0x0000000000004af3      0x160 /usr/local/xenon/xenon/lib/32/libc.a(lib_a-impure.o)
 .debug_abbrev  0x0000000000004c53      0x193 /usr/local/xenon/xenon/lib/32/libc.a(lib_a-makebuf.o)
 .debug_abbrev  0x0000000000004de6      0x190 /usr/local/xenon/xenon/lib/32/libc.a(lib_a-malloc.o)
 .debug_abbrev  0x0000000000004f76      0x221 /usr/local/xenon/xenon/lib/32/libc.a(lib_a-mallocr.o)
 .debug_abbrev  0x0000000000005197       0xb1 /usr/local/xenon/xenon/lib/32/libc.a(lib_a-memcpy.o)
 .debug_abbrev  0x0000000000005248       0xa3 /usr/local/xenon/xenon/lib/32/libc.a(lib_a-memset.o)
 .debug_abbrev  0x00000000000052eb      0x173 /usr/local/xenon/xenon/lib/32/libc.a(lib_a-mlock.o)
 .debug_abbrev  0x000000000000545e      0x197 /usr/local/xenon/xenon/lib/32/libc.a(lib_a-openr.o)
 .debug_abbrev  0x00000000000055f5      0x1c2 /usr/local/xenon/xenon/lib/32/libc.a(lib_a-printf.o)
 .debug_abbrev  0x00000000000057b7      0x192 /usr/local/xenon/xenon/lib/32/libc.a(lib_a-putchar.o)
 .debug_abbrev  0x0000000000005949      0x1a1 /usr/local/xenon/xenon/lib/32/libc.a(lib_a-putc.o)
 .debug_abbrev  0x0000000000005aea      0x1b5 /usr/local/xenon/xenon/lib/32/libc.a(lib_a-puts.o)
 .debug_abbrev  0x0000000000005c9f      0x1fa /usr/local/xenon/xenon/lib/32/libc.a(lib_a-reent.o)
 .debug_abbrev  0x0000000000005e99      0x190 /usr/local/xenon/xenon/lib/32/libc.a(lib_a-refill.o)
 .debug_abbrev  0x0000000000006029      0x197 /usr/local/xenon/xenon/lib/32/libc.a(lib_a-sbrkr.o)
 .debug_abbrev  0x00000000000061c0      0x1bb /usr/local/xenon/xenon/lib/32/libc.a(lib_a-signal.o)
 .debug_abbrev  0x000000000000637b      0x195 /usr/local/xenon/xenon/lib/32/libc.a(lib_a-signalr.o)
 .debug_abbrev  0x0000000000006510      0x1aa /usr/local/xenon/xenon/lib/32/libc.a(lib_a-stdio.o)
 .debug_abbrev  0x00000000000066ba       0x89 /usr/local/xenon/xenon/lib/32/libc.a(lib_a-strcmp.o)
 .debug_abbrev  0x0000000000006743       0x89 /usr/local/xenon/xenon/lib/32/libc.a(lib_a-strcpy.o)
 .debug_abbrev  0x00000000000067cc       0x94 /usr/local/xenon/xenon/lib/32/libc.a(lib_a-strlen.o)
 .debug_abbrev  0x0000000000006860       0x96 /usr/local/xenon/xenon/lib/32/libc.a(lib_a-strncmp.o)
 .debug_abbrev  0x00000000000068f6      0x2a3 /usr/local/xenon/xenon/lib/32/libc.a(lib_a-vfiprintf.o)
 .debug_abbrev  0x0000000000006b99      0x313 /usr/local/xenon/xenon/lib/32/libc.a(lib_a-vfprintf.o)
 .debug_abbrev  0x0000000000006eac      0x192 /usr/local/xenon/xenon/lib/32/libc.a(lib_a-vprintf.o)
 .debug_abbrev  0x000000000000703e      0x1a1 /usr/local/xenon/xenon/lib/32/libc.a(lib_a-wbuf.o)
 .debug_abbrev  0x00000000000071df      0x18d /usr/local/xenon/xenon/lib/32/libc.a(lib_a-writer.o)
 .debug_abbrev  0x000000000000736c      0x179 /usr/local/xenon/xenon/lib/32/libc.a(lib_a-wsetup.o)
 .debug_abbrev  0x00000000000074e5      0x188 /usr/local/xenon/xenon/lib/32/libc.a(lib_a-closer.o)
 .debug_abbrev  0x000000000000766d      0x23b /usr/local/xenon/xenon/lib/32/libc.a(lib_a-dtoa.o)
 .debug_abbrev  0x00000000000078a8      0x186 /usr/local/xenon/xenon/lib/32/libc.a(lib_a-flags.o)
 .debug_abbrev  0x0000000000007a2e      0x1ac /usr/local/xenon/xenon/lib/32/libc.a(lib_a-fvwrite.o)
 .debug_abbrev  0x0000000000007bda      0x188 /usr/local/xenon/xenon/lib/32/libc.a(lib_a-isattyr.o)
 .debug_abbrev  0x0000000000007d62      0x1ee /usr/local/xenon/xenon/lib/32/libc.a(lib_a-locale.o)
 .debug_abbrev  0x0000000000007f50      0x197 /usr/local/xenon/xenon/lib/32/libc.a(lib_a-lseekr.o)
 .debug_abbrev  0x00000000000080e7       0xdc /usr/local/xenon/xenon/lib/32/libc.a(lib_a-memchr.o)
 .debug_abbrev  0x00000000000081c3       0xb1 /usr/local/xenon/xenon/lib/32/libc.a(lib_a-memmove.o)
 .debug_abbrev  0x0000000000008274      0x2ad /usr/local/xenon/xenon/lib/32/libc.a(lib_a-mprec.o)
 .debug_abbrev  0x0000000000008521      0x188 /usr/local/xenon/xenon/lib/32/libc.a(lib_a-readr.o)
 .debug_abbrev  0x00000000000086a9      0x1d5 /usr/local/xenon/xenon/lib/32/libc.a(lib_a-reallocr.o)
 .debug_abbrev  0x000000000000887e       0xdd /usr/local/xenon/xenon/lib/32/libc.a(lib_a-s_isinfd.o)
 .debug_abbrev  0x000000000000895b       0xce /usr/local/xenon/xenon/lib/32/libc.a(lib_a-s_isnand.o)
 .debug_abbrev  0x0000000000008a29      0x1c1 /usr/local/xenon/xenon/lib/32/libc.a(lib_a-callocr.o)

.debug_info     0x0000000000000000    0x2d014
 .debug_info    0x0000000000000000       0x94 /usr/local/xenon/lib/gcc/xenon/4.4.0/../../../../xenon/lib/../lib/crt1.o
 .debug_info    0x0000000000000094      0x7ab engine.o
 .debug_info    0x000000000000083f       0x70 ffs_content.o
 .debug_info    0x00000000000008af      0xbba main.o
 .debug_info    0x0000000000001469      0xc57 xee.o
 .debug_info    0x00000000000020c0      0x537 /usr/local/xenon/usr/lib/libxenon.a(console.o)
 .debug_info    0x00000000000025f7      0xbeb /usr/local/xenon/usr/lib/libxenon.a(newlib.o)
 .debug_info    0x00000000000031e2       0x9c /usr/local/xenon/usr/lib/libxenon.a(vm.o)
 .debug_info    0x000000000000327e      0x118 /usr/local/xenon/usr/lib/libxenon.a(xenon_uart.o)
 .debug_info    0x0000000000003396      0xfc1 /usr/local/xenon/usr/lib/libxenon.a(edram.o)
 .debug_info    0x0000000000004357     0x426b /usr/local/xenon/usr/lib/libxenon.a(xe.o)
 .debug_info    0x00000000000085c2      0x70e /usr/local/xenon/usr/lib/libxenon.a(xenos.o)
 .debug_info    0x0000000000008cd0      0x4f4 /usr/local/xenon/usr/lib/libxenon.a(lib_malloc.o)
 .debug_info    0x00000000000091c4      0x131 /usr/local/xenon/usr/lib/libxenon.a(io.o)
 .debug_info    0x00000000000092f5      0x2cd /usr/local/xenon/usr/lib/libxenon.a(time.o)
 .debug_info    0x00000000000095c2      0x15b /usr/local/xenon/usr/lib/libxenon.a(xenon_gpio.o)
 .debug_info    0x000000000000971d      0x435 /usr/local/xenon/usr/lib/libxenon.a(xenon_smc.o)
 .debug_info    0x0000000000009b52      0x4ee /usr/local/xenon/usr/lib/libxenon.a(xenon_config.o)
 .debug_info    0x000000000000a040       0xd9 /usr/local/xenon/usr/lib/libxenon.a(ucode.o)
 .debug_info    0x000000000000a119      0x672 /usr/local/xenon/usr/lib/libxenon.a(xenon_sfcx.o)
 .debug_info    0x000000000000a78b      0x148 /usr/local/xenon/xenon/lib/32/libm.a(lib_a-sf_tan.o)
 .debug_info    0x000000000000a8d3       0xd7 /usr/local/xenon/xenon/lib/32/libm.a(lib_a-wf_sincos.o)
 .debug_info    0x000000000000a9aa       0xd7 /usr/local/xenon/xenon/lib/32/libm.a(lib_a-w_sincos.o)
 .debug_info    0x000000000000aa81      0x2df /usr/local/xenon/xenon/lib/32/libm.a(lib_a-ef_rem_pio2.o)
 .debug_info    0x000000000000ad60      0x2d0 /usr/local/xenon/xenon/lib/32/libm.a(lib_a-kf_rem_pio2.o)
 .debug_info    0x000000000000b030      0x237 /usr/local/xenon/xenon/lib/32/libm.a(lib_a-kf_tan.o)
 .debug_info    0x000000000000b267      0x172 /usr/local/xenon/xenon/lib/32/libm.a(lib_a-s_cos.o)
 .debug_info    0x000000000000b3d9      0x161 /usr/local/xenon/xenon/lib/32/libm.a(lib_a-sf_cos.o)
 .debug_info    0x000000000000b53a       0xc8 /usr/local/xenon/xenon/lib/32/libm.a(lib_a-sf_fabs.o)
 .debug_info    0x000000000000b602      0x119 /usr/local/xenon/xenon/lib/32/libm.a(lib_a-sf_floor.o)
 .debug_info    0x000000000000b71b      0x18b /usr/local/xenon/xenon/lib/32/libm.a(lib_a-sf_scalbn.o)
 .debug_info    0x000000000000b8a6      0x148 /usr/local/xenon/xenon/lib/32/libm.a(lib_a-sf_sin.o)
 .debug_info    0x000000000000b9ee      0x172 /usr/local/xenon/xenon/lib/32/libm.a(lib_a-s_sin.o)
 .debug_info    0x000000000000bb60      0x3cd /usr/local/xenon/xenon/lib/32/libm.a(lib_a-e_rem_pio2.o)
 .debug_info    0x000000000000bf2d      0x23b /usr/local/xenon/xenon/lib/32/libm.a(lib_a-k_cos.o)
 .debug_info    0x000000000000c168      0x1d3 /usr/local/xenon/xenon/lib/32/libm.a(lib_a-kf_cos.o)
 .debug_info    0x000000000000c33b      0x1cc /usr/local/xenon/xenon/lib/32/libm.a(lib_a-kf_sin.o)
 .debug_info    0x000000000000c507      0x2e0 /usr/local/xenon/xenon/lib/32/libm.a(lib_a-k_rem_pio2.o)
 .debug_info    0x000000000000c7e7      0x213 /usr/local/xenon/xenon/lib/32/libm.a(lib_a-k_sin.o)
 .debug_info    0x000000000000c9fa      0x13a /usr/local/xenon/xenon/lib/32/libm.a(lib_a-s_fabs.o)
 .debug_info    0x000000000000cb34       0xde /usr/local/xenon/xenon/lib/32/libm.a(lib_a-sf_copysign.o)
 .debug_info    0x000000000000cc12      0x1af /usr/local/xenon/xenon/lib/32/libm.a(lib_a-s_floor.o)
 .debug_info    0x000000000000cdc1      0x215 /usr/local/xenon/xenon/lib/32/libm.a(lib_a-s_scalbn.o)
 .debug_info    0x000000000000cfd6      0x188 /usr/local/xenon/xenon/lib/32/libm.a(lib_a-s_copysign.o)
 .debug_info    0x000000000000d15e       0x8b /usr/local/xenon/xenon/lib/32/libc.a(lib_a-abort.o)
 .debug_info    0x000000000000d1e9      0x9d7 /usr/local/xenon/xenon/lib/32/libc.a(lib_a-assert.o)
 .debug_info    0x000000000000dbc0      0x959 /usr/local/xenon/xenon/lib/32/libc.a(lib_a-errno.o)
 .debug_info    0x000000000000e519      0x9c0 /usr/local/xenon/xenon/lib/32/libc.a(lib_a-fclose.o)
 .debug_info    0x000000000000eed9      0xa22 /usr/local/xenon/xenon/lib/32/libc.a(lib_a-fflush.o)
 .debug_info    0x000000000000f8fb      0xbb0 /usr/local/xenon/xenon/lib/32/libc.a(lib_a-findfp.o)
 .debug_info    0x00000000000104ab      0xa7e /usr/local/xenon/xenon/lib/32/libc.a(lib_a-fiprintf.o)
 .debug_info    0x0000000000010f29      0xa0c /usr/local/xenon/xenon/lib/32/libc.a(lib_a-fopen.o)
 .debug_info    0x0000000000011935      0xa8a /usr/local/xenon/xenon/lib/32/libc.a(lib_a-fread.o)
 .debug_info    0x00000000000123bf      0xbf2 /usr/local/xenon/xenon/lib/32/libc.a(lib_a-freer.o)
 .debug_info    0x0000000000012fb1      0xbff /usr/local/xenon/xenon/lib/32/libc.a(lib_a-fseek.o)
 .debug_info    0x0000000000013bb0      0xb27 /usr/local/xenon/xenon/lib/32/libc.a(lib_a-fstatr.o)
 .debug_info    0x00000000000146d7      0x9c2 /usr/local/xenon/xenon/lib/32/libc.a(lib_a-ftell.o)
 .debug_info    0x0000000000015099      0xb1e /usr/local/xenon/xenon/lib/32/libc.a(lib_a-fwalk.o)
 .debug_info    0x0000000000015bb7      0x968 /usr/local/xenon/xenon/lib/32/libc.a(lib_a-impure.o)
 .debug_info    0x000000000001651f      0xb47 /usr/local/xenon/xenon/lib/32/libc.a(lib_a-makebuf.o)
 .debug_info    0x0000000000017066      0x99b /usr/local/xenon/xenon/lib/32/libc.a(lib_a-malloc.o)
 .debug_info    0x0000000000017a01      0xcfd /usr/local/xenon/xenon/lib/32/libc.a(lib_a-mallocr.o)
 .debug_info    0x00000000000186fe      0x140 /usr/local/xenon/xenon/lib/32/libc.a(lib_a-memcpy.o)
 .debug_info    0x000000000001883e      0x115 /usr/local/xenon/xenon/lib/32/libc.a(lib_a-memset.o)
 .debug_info    0x0000000000018953      0x980 /usr/local/xenon/xenon/lib/32/libc.a(lib_a-mlock.o)
 .debug_info    0x00000000000192d3      0x9a2 /usr/local/xenon/xenon/lib/32/libc.a(lib_a-openr.o)
 .debug_info    0x0000000000019c75      0xa60 /usr/local/xenon/xenon/lib/32/libc.a(lib_a-printf.o)
 .debug_info    0x000000000001a6d5      0x9a0 /usr/local/xenon/xenon/lib/32/libc.a(lib_a-putchar.o)
 .debug_info    0x000000000001b075      0x9eb /usr/local/xenon/xenon/lib/32/libc.a(lib_a-putc.o)
 .debug_info    0x000000000001ba60      0xa51 /usr/local/xenon/xenon/lib/32/libc.a(lib_a-puts.o)
 .debug_info    0x000000000001c4b1      0xa4c /usr/local/xenon/xenon/lib/32/libc.a(lib_a-reent.o)
 .debug_info    0x000000000001cefd      0x9b6 /usr/local/xenon/xenon/lib/32/libc.a(lib_a-refill.o)
 .debug_info    0x000000000001d8b3      0x98f /usr/local/xenon/xenon/lib/32/libc.a(lib_a-sbrkr.o)
 .debug_info    0x000000000001e242      0xb1a /usr/local/xenon/xenon/lib/32/libc.a(lib_a-signal.o)
 .debug_info    0x000000000001ed5c      0x9cb /usr/local/xenon/xenon/lib/32/libc.a(lib_a-signalr.o)
 .debug_info    0x000000000001f727      0xad9 /usr/local/xenon/xenon/lib/32/libc.a(lib_a-stdio.o)
 .debug_info    0x0000000000020200       0xdb /usr/local/xenon/xenon/lib/32/libc.a(lib_a-strcmp.o)
 .debug_info    0x00000000000202db      0x108 /usr/local/xenon/xenon/lib/32/libc.a(lib_a-strcpy.o)
 .debug_info    0x00000000000203e3       0xd7 /usr/local/xenon/xenon/lib/32/libc.a(lib_a-strlen.o)
 .debug_info    0x00000000000204ba       0xf3 /usr/local/xenon/xenon/lib/32/libc.a(lib_a-strncmp.o)
 .debug_info    0x00000000000205ad      0xe55 /usr/local/xenon/xenon/lib/32/libc.a(lib_a-vfiprintf.o)
 .debug_info    0x0000000000021402     0x113d /usr/local/xenon/xenon/lib/32/libc.a(lib_a-vfprintf.o)
 .debug_info    0x000000000002253f      0xa19 /usr/local/xenon/xenon/lib/32/libc.a(lib_a-vprintf.o)
 .debug_info    0x0000000000022f58      0x9da /usr/local/xenon/xenon/lib/32/libc.a(lib_a-wbuf.o)
 .debug_info    0x0000000000023932      0x9be /usr/local/xenon/xenon/lib/32/libc.a(lib_a-writer.o)
 .debug_info    0x00000000000242f0      0x986 /usr/local/xenon/xenon/lib/32/libc.a(lib_a-wsetup.o)
 .debug_info    0x0000000000024c76      0x983 /usr/local/xenon/xenon/lib/32/libc.a(lib_a-closer.o)
 .debug_info    0x00000000000255f9      0xd9e /usr/local/xenon/xenon/lib/32/libc.a(lib_a-dtoa.o)
 .debug_info    0x0000000000026397      0x9a0 /usr/local/xenon/xenon/lib/32/libc.a(lib_a-flags.o)
 .debug_info    0x0000000000026d37      0xaad /usr/local/xenon/xenon/lib/32/libc.a(lib_a-fvwrite.o)
 .debug_info    0x00000000000277e4      0x983 /usr/local/xenon/xenon/lib/32/libc.a(lib_a-isattyr.o)
 .debug_info    0x0000000000028167      0xbcb /usr/local/xenon/xenon/lib/32/libc.a(lib_a-locale.o)
 .debug_info    0x0000000000028d32      0x9ac /usr/local/xenon/xenon/lib/32/libc.a(lib_a-lseekr.o)
 .debug_info    0x00000000000296de      0x123 /usr/local/xenon/xenon/lib/32/libc.a(lib_a-memchr.o)
 .debug_info    0x0000000000029801      0x140 /usr/local/xenon/xenon/lib/32/libc.a(lib_a-memmove.o)
 .debug_info    0x0000000000029941     0x145d /usr/local/xenon/xenon/lib/32/libc.a(lib_a-mprec.o)
 .debug_info    0x000000000002ad9e      0x9b7 /usr/local/xenon/xenon/lib/32/libc.a(lib_a-readr.o)
 .debug_info    0x000000000002b755      0xbde /usr/local/xenon/xenon/lib/32/libc.a(lib_a-reallocr.o)
 .debug_info    0x000000000002c333      0x14f /usr/local/xenon/xenon/lib/32/libc.a(lib_a-s_isinfd.o)
 .debug_info    0x000000000002c482      0x14e /usr/local/xenon/xenon/lib/32/libc.a(lib_a-s_isnand.o)
 .debug_info    0x000000000002c5d0      0xa44 /usr/local/xenon/xenon/lib/32/libc.a(lib_a-callocr.o)

.debug_line     0x0000000000000000     0xdd9c
 .debug_line    0x0000000000000000       0x56 /usr/local/xenon/lib/gcc/xenon/4.4.0/../../../../xenon/lib/../lib/crt1.o
 .debug_line    0x0000000000000056      0x392 engine.o
 .debug_line    0x00000000000003e8       0x58 ffs_content.o
 .debug_line    0x0000000000000440      0x1e7 main.o
 .debug_line    0x0000000000000627      0x242 xee.o
 .debug_line    0x0000000000000869      0x238 /usr/local/xenon/usr/lib/libxenon.a(console.o)
 .debug_line    0x0000000000000aa1      0x306 /usr/local/xenon/usr/lib/libxenon.a(newlib.o)
 .debug_line    0x0000000000000da7       0x82 /usr/local/xenon/usr/lib/libxenon.a(vm.o)
 .debug_line    0x0000000000000e29       0xcf /usr/local/xenon/usr/lib/libxenon.a(xenon_uart.o)
 .debug_line    0x0000000000000ef8     0x2422 /usr/local/xenon/usr/lib/libxenon.a(edram.o)
 .debug_line    0x000000000000331a     0x19cb /usr/local/xenon/usr/lib/libxenon.a(xe.o)
 .debug_line    0x0000000000004ce5      0x310 /usr/local/xenon/usr/lib/libxenon.a(xenos.o)
 .debug_line    0x0000000000004ff5      0x1d1 /usr/local/xenon/usr/lib/libxenon.a(lib_malloc.o)
 .debug_line    0x00000000000051c6       0xc1 /usr/local/xenon/usr/lib/libxenon.a(io.o)
 .debug_line    0x0000000000005287      0x13d /usr/local/xenon/usr/lib/libxenon.a(time.o)
 .debug_line    0x00000000000053c4       0xdb /usr/local/xenon/usr/lib/libxenon.a(xenon_gpio.o)
 .debug_line    0x000000000000549f      0x267 /usr/local/xenon/usr/lib/libxenon.a(xenon_smc.o)
 .debug_line    0x0000000000005706      0x13b /usr/local/xenon/usr/lib/libxenon.a(xenon_config.o)
 .debug_line    0x0000000000005841       0xa2 /usr/local/xenon/usr/lib/libxenon.a(ucode.o)
 .debug_line    0x00000000000058e3      0x2c1 /usr/local/xenon/usr/lib/libxenon.a(xenon_sfcx.o)
 .debug_line    0x0000000000005ba4      0x16f /usr/local/xenon/xenon/lib/32/libm.a(lib_a-sf_tan.o)
 .debug_line    0x0000000000005d13       0xbc /usr/local/xenon/xenon/lib/32/libm.a(lib_a-wf_sincos.o)
 .debug_line    0x0000000000005dcf       0xbb /usr/local/xenon/xenon/lib/32/libm.a(lib_a-w_sincos.o)
 .debug_line    0x0000000000005e8a      0x1bd /usr/local/xenon/xenon/lib/32/libm.a(lib_a-ef_rem_pio2.o)
 .debug_line    0x0000000000006047      0x294 /usr/local/xenon/xenon/lib/32/libm.a(lib_a-kf_rem_pio2.o)
 .debug_line    0x00000000000062db      0x185 /usr/local/xenon/xenon/lib/32/libm.a(lib_a-kf_tan.o)
 .debug_line    0x0000000000006460      0x16f /usr/local/xenon/xenon/lib/32/libm.a(lib_a-s_cos.o)
 .debug_line    0x00000000000065cf      0x172 /usr/local/xenon/xenon/lib/32/libm.a(lib_a-sf_cos.o)
 .debug_line    0x0000000000006741      0x114 /usr/local/xenon/xenon/lib/32/libm.a(lib_a-sf_fabs.o)
 .debug_line    0x0000000000006855      0x136 /usr/local/xenon/xenon/lib/32/libm.a(lib_a-sf_floor.o)
 .debug_line    0x000000000000698b      0x152 /usr/local/xenon/xenon/lib/32/libm.a(lib_a-sf_scalbn.o)
 .debug_line    0x0000000000006add      0x172 /usr/local/xenon/xenon/lib/32/libm.a(lib_a-sf_sin.o)
 .debug_line    0x0000000000006c4f      0x170 /usr/local/xenon/xenon/lib/32/libm.a(lib_a-s_sin.o)
 .debug_line    0x0000000000006dbf      0x1c7 /usr/local/xenon/xenon/lib/32/libm.a(lib_a-e_rem_pio2.o)
 .debug_line    0x0000000000006f86      0x148 /usr/local/xenon/xenon/lib/32/libm.a(lib_a-k_cos.o)
 .debug_line    0x00000000000070ce      0x14f /usr/local/xenon/xenon/lib/32/libm.a(lib_a-kf_cos.o)
 .debug_line    0x000000000000721d      0x11f /usr/local/xenon/xenon/lib/32/libm.a(lib_a-kf_sin.o)
 .debug_line    0x000000000000733c      0x290 /usr/local/xenon/xenon/lib/32/libm.a(lib_a-k_rem_pio2.o)
 .debug_line    0x00000000000075cc      0x11e /usr/local/xenon/xenon/lib/32/libm.a(lib_a-k_sin.o)
 .debug_line    0x00000000000076ea      0x15b /usr/local/xenon/xenon/lib/32/libm.a(lib_a-s_fabs.o)
 .debug_line    0x0000000000007845      0x11a /usr/local/xenon/xenon/lib/32/libm.a(lib_a-sf_copysign.o)
 .debug_line    0x000000000000795f      0x188 /usr/local/xenon/xenon/lib/32/libm.a(lib_a-s_floor.o)
 .debug_line    0x0000000000007ae7      0x16f /usr/local/xenon/xenon/lib/32/libm.a(lib_a-s_scalbn.o)
 .debug_line    0x0000000000007c56      0x129 /usr/local/xenon/xenon/lib/32/libm.a(lib_a-s_copysign.o)
 .debug_line    0x0000000000007d7f       0xbd /usr/local/xenon/xenon/lib/32/libc.a(lib_a-abort.o)
 .debug_line    0x0000000000007e3c      0x163 /usr/local/xenon/xenon/lib/32/libc.a(lib_a-assert.o)
 .debug_line    0x0000000000007f9f      0x114 /usr/local/xenon/xenon/lib/32/libc.a(lib_a-errno.o)
 .debug_line    0x00000000000080b3      0x181 /usr/local/xenon/xenon/lib/32/libc.a(lib_a-fclose.o)
 .debug_line    0x0000000000008234      0x1f9 /usr/local/xenon/xenon/lib/32/libc.a(lib_a-fflush.o)
 .debug_line    0x000000000000842d      0x201 /usr/local/xenon/xenon/lib/32/libc.a(lib_a-findfp.o)
 .debug_line    0x000000000000862e      0x182 /usr/local/xenon/xenon/lib/32/libc.a(lib_a-fiprintf.o)
 .debug_line    0x00000000000087b0      0x17f /usr/local/xenon/xenon/lib/32/libc.a(lib_a-fopen.o)
 .debug_line    0x000000000000892f      0x1db /usr/local/xenon/xenon/lib/32/libc.a(lib_a-fread.o)
 .debug_line    0x0000000000008b0a      0x198 /usr/local/xenon/xenon/lib/32/libc.a(lib_a-freer.o)
 .debug_line    0x0000000000008ca2      0x284 /usr/local/xenon/xenon/lib/32/libc.a(lib_a-fseek.o)
 .debug_line    0x0000000000008f26      0x173 /usr/local/xenon/xenon/lib/32/libc.a(lib_a-fstatr.o)
 .debug_line    0x0000000000009099      0x190 /usr/local/xenon/xenon/lib/32/libc.a(lib_a-ftell.o)
 .debug_line    0x0000000000009229      0x186 /usr/local/xenon/xenon/lib/32/libc.a(lib_a-fwalk.o)
 .debug_line    0x00000000000093af       0xfa /usr/local/xenon/xenon/lib/32/libc.a(lib_a-impure.o)
 .debug_line    0x00000000000094a9      0x1d7 /usr/local/xenon/xenon/lib/32/libc.a(lib_a-makebuf.o)
 .debug_line    0x0000000000009680      0x15f /usr/local/xenon/xenon/lib/32/libc.a(lib_a-malloc.o)
 .debug_line    0x00000000000097df      0x294 /usr/local/xenon/xenon/lib/32/libc.a(lib_a-mallocr.o)
 .debug_line    0x0000000000009a73      0x155 /usr/local/xenon/xenon/lib/32/libc.a(lib_a-memcpy.o)
 .debug_line    0x0000000000009bc8      0x147 /usr/local/xenon/xenon/lib/32/libc.a(lib_a-memset.o)
 .debug_line    0x0000000000009d0f      0x10c /usr/local/xenon/xenon/lib/32/libc.a(lib_a-mlock.o)
 .debug_line    0x0000000000009e1b      0x15f /usr/local/xenon/xenon/lib/32/libc.a(lib_a-openr.o)
 .debug_line    0x0000000000009f7a      0x18b /usr/local/xenon/xenon/lib/32/libc.a(lib_a-printf.o)
 .debug_line    0x000000000000a105      0x15e /usr/local/xenon/xenon/lib/32/libc.a(lib_a-putchar.o)
 .debug_line    0x000000000000a263      0x17a /usr/local/xenon/xenon/lib/32/libc.a(lib_a-putc.o)
 .debug_line    0x000000000000a3dd      0x180 /usr/local/xenon/xenon/lib/32/libc.a(lib_a-puts.o)
 .debug_line    0x000000000000a55d      0x149 /usr/local/xenon/xenon/lib/32/libc.a(lib_a-reent.o)
 .debug_line    0x000000000000a6a6      0x1b0 /usr/local/xenon/xenon/lib/32/libc.a(lib_a-refill.o)
 .debug_line    0x000000000000a856      0x15d /usr/local/xenon/xenon/lib/32/libc.a(lib_a-sbrkr.o)
 .debug_line    0x000000000000a9b3      0x1de /usr/local/xenon/xenon/lib/32/libc.a(lib_a-signal.o)
 .debug_line    0x000000000000ab91      0x165 /usr/local/xenon/xenon/lib/32/libc.a(lib_a-signalr.o)
 .debug_line    0x000000000000acf6      0x18f /usr/local/xenon/xenon/lib/32/libc.a(lib_a-stdio.o)
 .debug_line    0x000000000000ae85       0xd5 /usr/local/xenon/xenon/lib/32/libc.a(lib_a-strcmp.o)
 .debug_line    0x000000000000af5a       0xc7 /usr/local/xenon/xenon/lib/32/libc.a(lib_a-strcpy.o)
 .debug_line    0x000000000000b021      0x102 /usr/local/xenon/xenon/lib/32/libc.a(lib_a-strlen.o)
 .debug_line    0x000000000000b123      0x137 /usr/local/xenon/xenon/lib/32/libc.a(lib_a-strncmp.o)
 .debug_line    0x000000000000b25a      0x39f /usr/local/xenon/xenon/lib/32/libc.a(lib_a-vfiprintf.o)
 .debug_line    0x000000000000b5f9      0x559 /usr/local/xenon/xenon/lib/32/libc.a(lib_a-vfprintf.o)
 .debug_line    0x000000000000bb52      0x16c /usr/local/xenon/xenon/lib/32/libc.a(lib_a-vprintf.o)
 .debug_line    0x000000000000bcbe      0x191 /usr/local/xenon/xenon/lib/32/libc.a(lib_a-wbuf.o)
 .debug_line    0x000000000000be4f      0x160 /usr/local/xenon/xenon/lib/32/libc.a(lib_a-writer.o)
 .debug_line    0x000000000000bfaf      0x183 /usr/local/xenon/xenon/lib/32/libc.a(lib_a-wsetup.o)
 .debug_line    0x000000000000c132      0x15e /usr/local/xenon/xenon/lib/32/libc.a(lib_a-closer.o)
 .debug_line    0x000000000000c290      0x517 /usr/local/xenon/xenon/lib/32/libc.a(lib_a-dtoa.o)
 .debug_line    0x000000000000c7a7      0x12a /usr/local/xenon/xenon/lib/32/libc.a(lib_a-flags.o)
 .debug_line    0x000000000000c8d1      0x23c /usr/local/xenon/xenon/lib/32/libc.a(lib_a-fvwrite.o)
 .debug_line    0x000000000000cb0d      0x15f /usr/local/xenon/xenon/lib/32/libc.a(lib_a-isattyr.o)
 .debug_line    0x000000000000cc6c      0x182 /usr/local/xenon/xenon/lib/32/libc.a(lib_a-locale.o)
 .debug_line    0x000000000000cdee      0x160 /usr/local/xenon/xenon/lib/32/libc.a(lib_a-lseekr.o)
 .debug_line    0x000000000000cf4e      0x127 /usr/local/xenon/xenon/lib/32/libc.a(lib_a-memchr.o)
 .debug_line    0x000000000000d075      0x164 /usr/local/xenon/xenon/lib/32/libc.a(lib_a-memmove.o)
 .debug_line    0x000000000000d1d9      0x515 /usr/local/xenon/xenon/lib/32/libc.a(lib_a-mprec.o)
 .debug_line    0x000000000000d6ee      0x15f /usr/local/xenon/xenon/lib/32/libc.a(lib_a-readr.o)
 .debug_line    0x000000000000d84d      0x1e4 /usr/local/xenon/xenon/lib/32/libc.a(lib_a-reallocr.o)
 .debug_line    0x000000000000da31      0x128 /usr/local/xenon/xenon/lib/32/libc.a(lib_a-s_isinfd.o)
 .debug_line    0x000000000000db59      0x126 /usr/local/xenon/xenon/lib/32/libc.a(lib_a-s_isnand.o)
 .debug_line    0x000000000000dc7f      0x11d /usr/local/xenon/xenon/lib/32/libc.a(lib_a-callocr.o)

.debug_loc      0x0000000000000000    0x10a35
 .debug_loc     0x0000000000000000       0x27 /usr/local/xenon/lib/gcc/xenon/4.4.0/../../../../xenon/lib/../lib/crt1.o
 .debug_loc     0x0000000000000027      0x607 engine.o
 .debug_loc     0x000000000000062e       0x4e main.o
 .debug_loc     0x000000000000067c      0x245 xee.o
 .debug_loc     0x00000000000008c1      0x194 /usr/local/xenon/usr/lib/libxenon.a(console.o)
 .debug_loc     0x0000000000000a55      0x5c2 /usr/local/xenon/usr/lib/libxenon.a(newlib.o)
 .debug_loc     0x0000000000001017       0x63 /usr/local/xenon/usr/lib/libxenon.a(xenon_uart.o)
 .debug_loc     0x000000000000107a      0x6e7 /usr/local/xenon/usr/lib/libxenon.a(edram.o)
 .debug_loc     0x0000000000001761     0x2ab5 /usr/local/xenon/usr/lib/libxenon.a(xe.o)
 .debug_loc     0x0000000000004216      0x369 /usr/local/xenon/usr/lib/libxenon.a(xenos.o)
 .debug_loc     0x000000000000457f      0x214 /usr/local/xenon/usr/lib/libxenon.a(lib_malloc.o)
 .debug_loc     0x0000000000004793       0x26 /usr/local/xenon/usr/lib/libxenon.a(io.o)
 .debug_loc     0x00000000000047b9      0x136 /usr/local/xenon/usr/lib/libxenon.a(time.o)
 .debug_loc     0x00000000000048ef      0x104 /usr/local/xenon/usr/lib/libxenon.a(xenon_gpio.o)
 .debug_loc     0x00000000000049f3      0x3af /usr/local/xenon/usr/lib/libxenon.a(xenon_smc.o)
 .debug_loc     0x0000000000004da2       0x6d /usr/local/xenon/usr/lib/libxenon.a(xenon_config.o)
 .debug_loc     0x0000000000004e0f      0x53e /usr/local/xenon/usr/lib/libxenon.a(xenon_sfcx.o)
 .debug_loc     0x000000000000534d       0x69 /usr/local/xenon/xenon/lib/32/libm.a(lib_a-sf_tan.o)
 .debug_loc     0x00000000000053b6       0x70 /usr/local/xenon/xenon/lib/32/libm.a(lib_a-wf_sincos.o)
 .debug_loc     0x0000000000005426       0x70 /usr/local/xenon/xenon/lib/32/libm.a(lib_a-w_sincos.o)
 .debug_loc     0x0000000000005496      0x293 /usr/local/xenon/xenon/lib/32/libm.a(lib_a-ef_rem_pio2.o)
 .debug_loc     0x0000000000005729      0x6f9 /usr/local/xenon/xenon/lib/32/libm.a(lib_a-kf_rem_pio2.o)
 .debug_loc     0x0000000000005e22      0x1cb /usr/local/xenon/xenon/lib/32/libm.a(lib_a-kf_tan.o)
 .debug_loc     0x0000000000005fed       0x5e /usr/local/xenon/xenon/lib/32/libm.a(lib_a-s_cos.o)
 .debug_loc     0x000000000000604b       0x69 /usr/local/xenon/xenon/lib/32/libm.a(lib_a-sf_cos.o)
 .debug_loc     0x00000000000060b4       0x28 /usr/local/xenon/xenon/lib/32/libm.a(lib_a-sf_fabs.o)
 .debug_loc     0x00000000000060dc       0xd9 /usr/local/xenon/xenon/lib/32/libm.a(lib_a-sf_floor.o)
 .debug_loc     0x00000000000061b5      0x127 /usr/local/xenon/xenon/lib/32/libm.a(lib_a-sf_scalbn.o)
 .debug_loc     0x00000000000062dc       0x69 /usr/local/xenon/xenon/lib/32/libm.a(lib_a-sf_sin.o)
 .debug_loc     0x0000000000006345       0x5e /usr/local/xenon/xenon/lib/32/libm.a(lib_a-s_sin.o)
 .debug_loc     0x00000000000063a3      0x288 /usr/local/xenon/xenon/lib/32/libm.a(lib_a-e_rem_pio2.o)
 .debug_loc     0x000000000000662b      0x10f /usr/local/xenon/xenon/lib/32/libm.a(lib_a-k_cos.o)
 .debug_loc     0x000000000000673a       0xe0 /usr/local/xenon/xenon/lib/32/libm.a(lib_a-kf_cos.o)
 .debug_loc     0x000000000000681a       0xc7 /usr/local/xenon/xenon/lib/32/libm.a(lib_a-kf_sin.o)
 .debug_loc     0x00000000000068e1      0x731 /usr/local/xenon/xenon/lib/32/libm.a(lib_a-k_rem_pio2.o)
 .debug_loc     0x0000000000007012       0xc0 /usr/local/xenon/xenon/lib/32/libm.a(lib_a-k_sin.o)
 .debug_loc     0x00000000000070d2       0x28 /usr/local/xenon/xenon/lib/32/libm.a(lib_a-s_fabs.o)
 .debug_loc     0x00000000000070fa       0x28 /usr/local/xenon/xenon/lib/32/libm.a(lib_a-sf_copysign.o)
 .debug_loc     0x0000000000007122      0x1f4 /usr/local/xenon/xenon/lib/32/libm.a(lib_a-s_floor.o)
 .debug_loc     0x0000000000007316      0x151 /usr/local/xenon/xenon/lib/32/libm.a(lib_a-s_scalbn.o)
 .debug_loc     0x0000000000007467       0x3c /usr/local/xenon/xenon/lib/32/libm.a(lib_a-s_copysign.o)
 .debug_loc     0x00000000000074a3       0x14 /usr/local/xenon/xenon/lib/32/libc.a(lib_a-abort.o)
 .debug_loc     0x00000000000074b7       0xfa /usr/local/xenon/xenon/lib/32/libc.a(lib_a-assert.o)
 .debug_loc     0x00000000000075b1       0x14 /usr/local/xenon/xenon/lib/32/libc.a(lib_a-errno.o)
 .debug_loc     0x00000000000075c5       0xe2 /usr/local/xenon/xenon/lib/32/libc.a(lib_a-fclose.o)
 .debug_loc     0x00000000000076a7      0x1c8 /usr/local/xenon/xenon/lib/32/libc.a(lib_a-fflush.o)
 .debug_loc     0x000000000000786f      0x280 /usr/local/xenon/xenon/lib/32/libc.a(lib_a-findfp.o)
 .debug_loc     0x0000000000007aef       0x94 /usr/local/xenon/xenon/lib/32/libc.a(lib_a-fiprintf.o)
 .debug_loc     0x0000000000007b83      0x15a /usr/local/xenon/xenon/lib/32/libc.a(lib_a-fopen.o)
 .debug_loc     0x0000000000007cdd      0x2c8 /usr/local/xenon/xenon/lib/32/libc.a(lib_a-fread.o)
 .debug_loc     0x0000000000007fa5      0x3aa /usr/local/xenon/xenon/lib/32/libc.a(lib_a-freer.o)
 .debug_loc     0x000000000000834f      0x3d8 /usr/local/xenon/xenon/lib/32/libc.a(lib_a-fseek.o)
 .debug_loc     0x0000000000008727       0x81 /usr/local/xenon/xenon/lib/32/libc.a(lib_a-fstatr.o)
 .debug_loc     0x00000000000087a8      0x10e /usr/local/xenon/xenon/lib/32/libc.a(lib_a-ftell.o)
 .debug_loc     0x00000000000088b6      0x122 /usr/local/xenon/xenon/lib/32/libc.a(lib_a-fwalk.o)
 .debug_loc     0x00000000000089d8      0x13a /usr/local/xenon/xenon/lib/32/libc.a(lib_a-makebuf.o)
 .debug_loc     0x0000000000008b12       0x64 /usr/local/xenon/xenon/lib/32/libc.a(lib_a-malloc.o)
 .debug_loc     0x0000000000008b76      0x88f /usr/local/xenon/xenon/lib/32/libc.a(lib_a-mallocr.o)
 .debug_loc     0x0000000000009405       0xf2 /usr/local/xenon/xenon/lib/32/libc.a(lib_a-memcpy.o)
 .debug_loc     0x00000000000094f7      0x108 /usr/local/xenon/xenon/lib/32/libc.a(lib_a-memset.o)
 .debug_loc     0x00000000000095ff       0x94 /usr/local/xenon/xenon/lib/32/libc.a(lib_a-openr.o)
 .debug_loc     0x0000000000009693       0x8c /usr/local/xenon/xenon/lib/32/libc.a(lib_a-printf.o)
 .debug_loc     0x000000000000971f       0x6c /usr/local/xenon/xenon/lib/32/libc.a(lib_a-putchar.o)
 .debug_loc     0x000000000000978b      0x15d /usr/local/xenon/xenon/lib/32/libc.a(lib_a-putc.o)
 .debug_loc     0x00000000000098e8       0x96 /usr/local/xenon/xenon/lib/32/libc.a(lib_a-puts.o)
 .debug_loc     0x000000000000997e      0x137 /usr/local/xenon/xenon/lib/32/libc.a(lib_a-reent.o)
 .debug_loc     0x0000000000009ab5       0xe5 /usr/local/xenon/xenon/lib/32/libc.a(lib_a-refill.o)
 .debug_loc     0x0000000000009b9a       0x6e /usr/local/xenon/xenon/lib/32/libc.a(lib_a-sbrkr.o)
 .debug_loc     0x0000000000009c08      0x31d /usr/local/xenon/xenon/lib/32/libc.a(lib_a-signal.o)
 .debug_loc     0x0000000000009f25       0xa8 /usr/local/xenon/xenon/lib/32/libc.a(lib_a-signalr.o)
 .debug_loc     0x0000000000009fcd      0x1ee /usr/local/xenon/xenon/lib/32/libc.a(lib_a-stdio.o)
 .debug_loc     0x000000000000a1bb       0x6e /usr/local/xenon/xenon/lib/32/libc.a(lib_a-strcmp.o)
 .debug_loc     0x000000000000a229       0x5b /usr/local/xenon/xenon/lib/32/libc.a(lib_a-strcpy.o)
 .debug_loc     0x000000000000a284       0x3d /usr/local/xenon/xenon/lib/32/libc.a(lib_a-strlen.o)
 .debug_loc     0x000000000000a2c1      0x110 /usr/local/xenon/xenon/lib/32/libc.a(lib_a-strncmp.o)
 .debug_loc     0x000000000000a3d1      0xf7a /usr/local/xenon/xenon/lib/32/libc.a(lib_a-vfiprintf.o)
 .debug_loc     0x000000000000b34b     0x18e3 /usr/local/xenon/xenon/lib/32/libc.a(lib_a-vfprintf.o)
 .debug_loc     0x000000000000cc2e       0xa8 /usr/local/xenon/xenon/lib/32/libc.a(lib_a-vprintf.o)
 .debug_loc     0x000000000000ccd6      0x108 /usr/local/xenon/xenon/lib/32/libc.a(lib_a-wbuf.o)
 .debug_loc     0x000000000000cdde       0x94 /usr/local/xenon/xenon/lib/32/libc.a(lib_a-writer.o)
 .debug_loc     0x000000000000ce72       0x71 /usr/local/xenon/xenon/lib/32/libc.a(lib_a-wsetup.o)
 .debug_loc     0x000000000000cee3       0x6e /usr/local/xenon/xenon/lib/32/libc.a(lib_a-closer.o)
 .debug_loc     0x000000000000cf51     0x1544 /usr/local/xenon/xenon/lib/32/libc.a(lib_a-dtoa.o)
 .debug_loc     0x000000000000e495       0xe6 /usr/local/xenon/xenon/lib/32/libc.a(lib_a-flags.o)
 .debug_loc     0x000000000000e57b      0x3a3 /usr/local/xenon/xenon/lib/32/libc.a(lib_a-fvwrite.o)
 .debug_loc     0x000000000000e91e       0x6e /usr/local/xenon/xenon/lib/32/libc.a(lib_a-isattyr.o)
 .debug_loc     0x000000000000e98c      0x15a /usr/local/xenon/xenon/lib/32/libc.a(lib_a-locale.o)
 .debug_loc     0x000000000000eae6       0x94 /usr/local/xenon/xenon/lib/32/libc.a(lib_a-lseekr.o)
 .debug_loc     0x000000000000eb7a       0xd6 /usr/local/xenon/xenon/lib/32/libc.a(lib_a-memchr.o)
 .debug_loc     0x000000000000ec50      0x155 /usr/local/xenon/xenon/lib/32/libc.a(lib_a-memmove.o)
 .debug_loc     0x000000000000eda5     0x12ec /usr/local/xenon/xenon/lib/32/libc.a(lib_a-mprec.o)
 .debug_loc     0x0000000000010091       0x94 /usr/local/xenon/xenon/lib/32/libc.a(lib_a-readr.o)
 .debug_loc     0x0000000000010125      0x7ac /usr/local/xenon/xenon/lib/32/libc.a(lib_a-reallocr.o)
 .debug_loc     0x00000000000108d1       0x53 /usr/local/xenon/xenon/lib/32/libc.a(lib_a-s_isinfd.o)
 .debug_loc     0x0000000000010924       0x28 /usr/local/xenon/xenon/lib/32/libc.a(lib_a-s_isnand.o)
 .debug_loc     0x000000000001094c       0xe9 /usr/local/xenon/xenon/lib/32/libc.a(lib_a-callocr.o)

.debug_pubnames
                0x0000000000000000     0x26dd
 .debug_pubnames
                0x0000000000000000       0x21 /usr/local/xenon/lib/gcc/xenon/4.4.0/../../../../xenon/lib/../lib/crt1.o
 .debug_pubnames
                0x0000000000000021      0x180 engine.o
 .debug_pubnames
                0x00000000000001a1       0x3e ffs_content.o
 .debug_pubnames
                0x00000000000001df       0x5a main.o
 .debug_pubnames
                0x0000000000000239       0x79 xee.o
 .debug_pubnames
                0x00000000000002b2       0x95 /usr/local/xenon/usr/lib/libxenon.a(console.o)
 .debug_pubnames
                0x0000000000000347      0x14f /usr/local/xenon/usr/lib/libxenon.a(newlib.o)
 .debug_pubnames
                0x0000000000000496       0x20 /usr/local/xenon/usr/lib/libxenon.a(vm.o)
 .debug_pubnames
                0x00000000000004b6       0x30 /usr/local/xenon/usr/lib/libxenon.a(xenon_uart.o)
 .debug_pubnames
                0x00000000000004e6       0xeb /usr/local/xenon/usr/lib/libxenon.a(edram.o)
 .debug_pubnames
                0x00000000000005d1      0xaba /usr/local/xenon/usr/lib/libxenon.a(xe.o)
 .debug_pubnames
                0x000000000000108b      0x20a /usr/local/xenon/usr/lib/libxenon.a(xenos.o)
 .debug_pubnames
                0x0000000000001295       0x94 /usr/local/xenon/usr/lib/libxenon.a(lib_malloc.o)
 .debug_pubnames
                0x0000000000001329       0x42 /usr/local/xenon/usr/lib/libxenon.a(io.o)
 .debug_pubnames
                0x000000000000136b       0x32 /usr/local/xenon/usr/lib/libxenon.a(time.o)
 .debug_pubnames
                0x000000000000139d       0x52 /usr/local/xenon/usr/lib/libxenon.a(xenon_gpio.o)
 .debug_pubnames
                0x00000000000013ef      0x184 /usr/local/xenon/usr/lib/libxenon.a(xenon_smc.o)
 .debug_pubnames
                0x0000000000001573       0x98 /usr/local/xenon/usr/lib/libxenon.a(xenon_config.o)
 .debug_pubnames
                0x000000000000160b       0x34 /usr/local/xenon/usr/lib/libxenon.a(ucode.o)
 .debug_pubnames
                0x000000000000163f      0x1a1 /usr/local/xenon/usr/lib/libxenon.a(xenon_sfcx.o)
 .debug_pubnames
                0x00000000000017e0       0x1b /usr/local/xenon/xenon/lib/32/libm.a(lib_a-sf_tan.o)
 .debug_pubnames
                0x00000000000017fb       0x1e /usr/local/xenon/xenon/lib/32/libm.a(lib_a-wf_sincos.o)
 .debug_pubnames
                0x0000000000001819       0x1d /usr/local/xenon/xenon/lib/32/libm.a(lib_a-w_sincos.o)
 .debug_pubnames
                0x0000000000001836       0x2a /usr/local/xenon/xenon/lib/32/libm.a(lib_a-ef_rem_pio2.o)
 .debug_pubnames
                0x0000000000001860       0x29 /usr/local/xenon/xenon/lib/32/libm.a(lib_a-kf_rem_pio2.o)
 .debug_pubnames
                0x0000000000001889       0x24 /usr/local/xenon/xenon/lib/32/libm.a(lib_a-kf_tan.o)
 .debug_pubnames
                0x00000000000018ad       0x1a /usr/local/xenon/xenon/lib/32/libm.a(lib_a-s_cos.o)
 .debug_pubnames
                0x00000000000018c7       0x1b /usr/local/xenon/xenon/lib/32/libm.a(lib_a-sf_cos.o)
 .debug_pubnames
                0x00000000000018e2       0x1c /usr/local/xenon/xenon/lib/32/libm.a(lib_a-sf_fabs.o)
 .debug_pubnames
                0x00000000000018fe       0x1d /usr/local/xenon/xenon/lib/32/libm.a(lib_a-sf_floor.o)
 .debug_pubnames
                0x000000000000191b       0x1e /usr/local/xenon/xenon/lib/32/libm.a(lib_a-sf_scalbn.o)
 .debug_pubnames
                0x0000000000001939       0x1b /usr/local/xenon/xenon/lib/32/libm.a(lib_a-sf_sin.o)
 .debug_pubnames
                0x0000000000001954       0x1a /usr/local/xenon/xenon/lib/32/libm.a(lib_a-s_sin.o)
 .debug_pubnames
                0x000000000000196e       0x29 /usr/local/xenon/xenon/lib/32/libm.a(lib_a-e_rem_pio2.o)
 .debug_pubnames
                0x0000000000001997       0x23 /usr/local/xenon/xenon/lib/32/libm.a(lib_a-k_cos.o)
 .debug_pubnames
                0x00000000000019ba       0x24 /usr/local/xenon/xenon/lib/32/libm.a(lib_a-kf_cos.o)
 .debug_pubnames
                0x00000000000019de       0x24 /usr/local/xenon/xenon/lib/32/libm.a(lib_a-kf_sin.o)
 .debug_pubnames
                0x0000000000001a02       0x28 /usr/local/xenon/xenon/lib/32/libm.a(lib_a-k_rem_pio2.o)
 .debug_pubnames
                0x0000000000001a2a       0x23 /usr/local/xenon/xenon/lib/32/libm.a(lib_a-k_sin.o)
 .debug_pubnames
                0x0000000000001a4d       0x1b /usr/local/xenon/xenon/lib/32/libm.a(lib_a-s_fabs.o)
 .debug_pubnames
                0x0000000000001a68       0x20 /usr/local/xenon/xenon/lib/32/libm.a(lib_a-sf_copysign.o)
 .debug_pubnames
                0x0000000000001a88       0x1c /usr/local/xenon/xenon/lib/32/libm.a(lib_a-s_floor.o)
 .debug_pubnames
                0x0000000000001aa4       0x1d /usr/local/xenon/xenon/lib/32/libm.a(lib_a-s_scalbn.o)
 .debug_pubnames
                0x0000000000001ac1       0x1f /usr/local/xenon/xenon/lib/32/libm.a(lib_a-s_copysign.o)
 .debug_pubnames
                0x0000000000001ae0       0x1c /usr/local/xenon/xenon/lib/32/libc.a(lib_a-abort.o)
 .debug_pubnames
                0x0000000000001afc       0x31 /usr/local/xenon/xenon/lib/32/libc.a(lib_a-assert.o)
 .debug_pubnames
                0x0000000000001b2d       0x1e /usr/local/xenon/xenon/lib/32/libc.a(lib_a-errno.o)
 .debug_pubnames
                0x0000000000001b4b       0x2b /usr/local/xenon/xenon/lib/32/libc.a(lib_a-fclose.o)
 .debug_pubnames
                0x0000000000001b76       0x2b /usr/local/xenon/xenon/lib/32/libc.a(lib_a-fflush.o)
 .debug_pubnames
                0x0000000000001ba1       0xdb /usr/local/xenon/xenon/lib/32/libc.a(lib_a-findfp.o)
 .debug_pubnames
                0x0000000000001c7c       0x2f /usr/local/xenon/xenon/lib/32/libc.a(lib_a-fiprintf.o)
 .debug_pubnames
                0x0000000000001cab       0x29 /usr/local/xenon/xenon/lib/32/libc.a(lib_a-fopen.o)
 .debug_pubnames
                0x0000000000001cd4       0x29 /usr/local/xenon/xenon/lib/32/libc.a(lib_a-fread.o)
 .debug_pubnames
                0x0000000000001cfd       0x31 /usr/local/xenon/xenon/lib/32/libc.a(lib_a-freer.o)
 .debug_pubnames
                0x0000000000001d2e       0x29 /usr/local/xenon/xenon/lib/32/libc.a(lib_a-fseek.o)
 .debug_pubnames
                0x0000000000001d57       0x1f /usr/local/xenon/xenon/lib/32/libc.a(lib_a-fstatr.o)
 .debug_pubnames
                0x0000000000001d76       0x29 /usr/local/xenon/xenon/lib/32/libc.a(lib_a-ftell.o)
 .debug_pubnames
                0x0000000000001d9f       0x2e /usr/local/xenon/xenon/lib/32/libc.a(lib_a-fwalk.o)
 .debug_pubnames
                0x0000000000001dcd       0x39 /usr/local/xenon/xenon/lib/32/libc.a(lib_a-impure.o)
 .debug_pubnames
                0x0000000000001e06       0x23 /usr/local/xenon/xenon/lib/32/libc.a(lib_a-makebuf.o)
 .debug_pubnames
                0x0000000000001e29       0x26 /usr/local/xenon/xenon/lib/32/libc.a(lib_a-malloc.o)
 .debug_pubnames
                0x0000000000001e4f       0xce /usr/local/xenon/xenon/lib/32/libc.a(lib_a-mallocr.o)
 .debug_pubnames
                0x0000000000001f1d       0x1d /usr/local/xenon/xenon/lib/32/libc.a(lib_a-memcpy.o)
 .debug_pubnames
                0x0000000000001f3a       0x1d /usr/local/xenon/xenon/lib/32/libc.a(lib_a-memset.o)
 .debug_pubnames
                0x0000000000001f57       0x38 /usr/local/xenon/xenon/lib/32/libc.a(lib_a-mlock.o)
 .debug_pubnames
                0x0000000000001f8f       0x1e /usr/local/xenon/xenon/lib/32/libc.a(lib_a-openr.o)
 .debug_pubnames
                0x0000000000001fad       0x2b /usr/local/xenon/xenon/lib/32/libc.a(lib_a-printf.o)
 .debug_pubnames
                0x0000000000001fd8       0x2d /usr/local/xenon/xenon/lib/32/libc.a(lib_a-putchar.o)
 .debug_pubnames
                0x0000000000002005       0x27 /usr/local/xenon/xenon/lib/32/libc.a(lib_a-putc.o)
 .debug_pubnames
                0x000000000000202c       0x27 /usr/local/xenon/xenon/lib/32/libc.a(lib_a-puts.o)
 .debug_pubnames
                0x0000000000002053       0x52 /usr/local/xenon/xenon/lib/32/libc.a(lib_a-reent.o)
 .debug_pubnames
                0x00000000000020a5       0x22 /usr/local/xenon/xenon/lib/32/libc.a(lib_a-refill.o)
 .debug_pubnames
                0x00000000000020c7       0x1e /usr/local/xenon/xenon/lib/32/libc.a(lib_a-sbrkr.o)
 .debug_pubnames
                0x00000000000020e5       0x86 /usr/local/xenon/xenon/lib/32/libc.a(lib_a-signal.o)
 .debug_pubnames
                0x000000000000216b       0x2c /usr/local/xenon/xenon/lib/32/libc.a(lib_a-signalr.o)
 .debug_pubnames
                0x0000000000002197       0x44 /usr/local/xenon/xenon/lib/32/libc.a(lib_a-stdio.o)
 .debug_pubnames
                0x00000000000021db       0x1d /usr/local/xenon/xenon/lib/32/libc.a(lib_a-strcmp.o)
 .debug_pubnames
                0x00000000000021f8       0x1d /usr/local/xenon/xenon/lib/32/libc.a(lib_a-strcpy.o)
 .debug_pubnames
                0x0000000000002215       0x1d /usr/local/xenon/xenon/lib/32/libc.a(lib_a-strlen.o)
 .debug_pubnames
                0x0000000000002232       0x1e /usr/local/xenon/xenon/lib/32/libc.a(lib_a-strncmp.o)
 .debug_pubnames
                0x0000000000002250       0x31 /usr/local/xenon/xenon/lib/32/libc.a(lib_a-vfiprintf.o)
 .debug_pubnames
                0x0000000000002281       0x2f /usr/local/xenon/xenon/lib/32/libc.a(lib_a-vfprintf.o)
 .debug_pubnames
                0x00000000000022b0       0x2d /usr/local/xenon/xenon/lib/32/libc.a(lib_a-vprintf.o)
 .debug_pubnames
                0x00000000000022dd       0x2c /usr/local/xenon/xenon/lib/32/libc.a(lib_a-wbuf.o)
 .debug_pubnames
                0x0000000000002309       0x1f /usr/local/xenon/xenon/lib/32/libc.a(lib_a-writer.o)
 .debug_pubnames
                0x0000000000002328       0x22 /usr/local/xenon/xenon/lib/32/libc.a(lib_a-wsetup.o)
 .debug_pubnames
                0x000000000000234a       0x1f /usr/local/xenon/xenon/lib/32/libc.a(lib_a-closer.o)
 .debug_pubnames
                0x0000000000002369       0x1e /usr/local/xenon/xenon/lib/32/libc.a(lib_a-dtoa.o)
 .debug_pubnames
                0x0000000000002387       0x1f /usr/local/xenon/xenon/lib/32/libc.a(lib_a-flags.o)
 .debug_pubnames
                0x00000000000023a6       0x23 /usr/local/xenon/xenon/lib/32/libc.a(lib_a-fvwrite.o)
 .debug_pubnames
                0x00000000000023c9       0x20 /usr/local/xenon/xenon/lib/32/libc.a(lib_a-isattyr.o)
 .debug_pubnames
                0x00000000000023e9       0xc3 /usr/local/xenon/xenon/lib/32/libc.a(lib_a-locale.o)
 .debug_pubnames
                0x00000000000024ac       0x1f /usr/local/xenon/xenon/lib/32/libc.a(lib_a-lseekr.o)
 .debug_pubnames
                0x00000000000024cb       0x1d /usr/local/xenon/xenon/lib/32/libc.a(lib_a-memchr.o)
 .debug_pubnames
                0x00000000000024e8       0x1e /usr/local/xenon/xenon/lib/32/libc.a(lib_a-memmove.o)
 .debug_pubnames
                0x0000000000002506      0x13a /usr/local/xenon/xenon/lib/32/libc.a(lib_a-mprec.o)
 .debug_pubnames
                0x0000000000002640       0x1e /usr/local/xenon/xenon/lib/32/libc.a(lib_a-readr.o)
 .debug_pubnames
                0x000000000000265e       0x21 /usr/local/xenon/xenon/lib/32/libc.a(lib_a-reallocr.o)
 .debug_pubnames
                0x000000000000267f       0x1f /usr/local/xenon/xenon/lib/32/libc.a(lib_a-s_isinfd.o)
 .debug_pubnames
                0x000000000000269e       0x1f /usr/local/xenon/xenon/lib/32/libc.a(lib_a-s_isnand.o)
 .debug_pubnames
                0x00000000000026bd       0x20 /usr/local/xenon/xenon/lib/32/libc.a(lib_a-callocr.o)

.debug_aranges  0x0000000000000000     0x1408
 .debug_aranges
                0x0000000000000000       0x20 /usr/local/xenon/lib/gcc/xenon/4.4.0/../../../../xenon/lib/../lib/crt1.o
 .debug_aranges
                0x0000000000000020       0xa0 engine.o
 .debug_aranges
                0x00000000000000c0       0x28 main.o
 .debug_aranges
                0x00000000000000e8       0x48 xee.o
 .debug_aranges
                0x0000000000000130       0x50 /usr/local/xenon/usr/lib/libxenon.a(console.o)
 .debug_aranges
                0x0000000000000180       0xa8 /usr/local/xenon/usr/lib/libxenon.a(newlib.o)
 .debug_aranges
                0x0000000000000228       0x30 /usr/local/xenon/usr/lib/libxenon.a(xenon_uart.o)
 .debug_aranges
                0x0000000000000258       0x90 /usr/local/xenon/usr/lib/libxenon.a(edram.o)
 .debug_aranges
                0x00000000000002e8      0x448 /usr/local/xenon/usr/lib/libxenon.a(xe.o)
 .debug_aranges
                0x0000000000000730       0x80 /usr/local/xenon/usr/lib/libxenon.a(xenos.o)
 .debug_aranges
                0x00000000000007b0       0x58 /usr/local/xenon/usr/lib/libxenon.a(lib_malloc.o)
 .debug_aranges
                0x0000000000000808       0x38 /usr/local/xenon/usr/lib/libxenon.a(io.o)
 .debug_aranges
                0x0000000000000840       0x30 /usr/local/xenon/usr/lib/libxenon.a(time.o)
 .debug_aranges
                0x0000000000000870       0x30 /usr/local/xenon/usr/lib/libxenon.a(xenon_gpio.o)
 .debug_aranges
                0x00000000000008a0       0x88 /usr/local/xenon/usr/lib/libxenon.a(xenon_smc.o)
 .debug_aranges
                0x0000000000000928       0x38 /usr/local/xenon/usr/lib/libxenon.a(xenon_config.o)
 .debug_aranges
                0x0000000000000960       0xa8 /usr/local/xenon/usr/lib/libxenon.a(xenon_sfcx.o)
 .debug_aranges
                0x0000000000000a08       0x20 /usr/local/xenon/xenon/lib/32/libm.a(lib_a-sf_tan.o)
 .debug_aranges
                0x0000000000000a28       0x20 /usr/local/xenon/xenon/lib/32/libm.a(lib_a-wf_sincos.o)
 .debug_aranges
                0x0000000000000a48       0x20 /usr/local/xenon/xenon/lib/32/libm.a(lib_a-w_sincos.o)
 .debug_aranges
                0x0000000000000a68       0x20 /usr/local/xenon/xenon/lib/32/libm.a(lib_a-ef_rem_pio2.o)
 .debug_aranges
                0x0000000000000a88       0x20 /usr/local/xenon/xenon/lib/32/libm.a(lib_a-kf_rem_pio2.o)
 .debug_aranges
                0x0000000000000aa8       0x20 /usr/local/xenon/xenon/lib/32/libm.a(lib_a-kf_tan.o)
 .debug_aranges
                0x0000000000000ac8       0x20 /usr/local/xenon/xenon/lib/32/libm.a(lib_a-s_cos.o)
 .debug_aranges
                0x0000000000000ae8       0x20 /usr/local/xenon/xenon/lib/32/libm.a(lib_a-sf_cos.o)
 .debug_aranges
                0x0000000000000b08       0x20 /usr/local/xenon/xenon/lib/32/libm.a(lib_a-sf_fabs.o)
 .debug_aranges
                0x0000000000000b28       0x20 /usr/local/xenon/xenon/lib/32/libm.a(lib_a-sf_floor.o)
 .debug_aranges
                0x0000000000000b48       0x20 /usr/local/xenon/xenon/lib/32/libm.a(lib_a-sf_scalbn.o)
 .debug_aranges
                0x0000000000000b68       0x20 /usr/local/xenon/xenon/lib/32/libm.a(lib_a-sf_sin.o)
 .debug_aranges
                0x0000000000000b88       0x20 /usr/local/xenon/xenon/lib/32/libm.a(lib_a-s_sin.o)
 .debug_aranges
                0x0000000000000ba8       0x20 /usr/local/xenon/xenon/lib/32/libm.a(lib_a-e_rem_pio2.o)
 .debug_aranges
                0x0000000000000bc8       0x20 /usr/local/xenon/xenon/lib/32/libm.a(lib_a-k_cos.o)
 .debug_aranges
                0x0000000000000be8       0x20 /usr/local/xenon/xenon/lib/32/libm.a(lib_a-kf_cos.o)
 .debug_aranges
                0x0000000000000c08       0x20 /usr/local/xenon/xenon/lib/32/libm.a(lib_a-kf_sin.o)
 .debug_aranges
                0x0000000000000c28       0x20 /usr/local/xenon/xenon/lib/32/libm.a(lib_a-k_rem_pio2.o)
 .debug_aranges
                0x0000000000000c48       0x20 /usr/local/xenon/xenon/lib/32/libm.a(lib_a-k_sin.o)
 .debug_aranges
                0x0000000000000c68       0x20 /usr/local/xenon/xenon/lib/32/libm.a(lib_a-s_fabs.o)
 .debug_aranges
                0x0000000000000c88       0x20 /usr/local/xenon/xenon/lib/32/libm.a(lib_a-sf_copysign.o)
 .debug_aranges
                0x0000000000000ca8       0x20 /usr/local/xenon/xenon/lib/32/libm.a(lib_a-s_floor.o)
 .debug_aranges
                0x0000000000000cc8       0x20 /usr/local/xenon/xenon/lib/32/libm.a(lib_a-s_scalbn.o)
 .debug_aranges
                0x0000000000000ce8       0x20 /usr/local/xenon/xenon/lib/32/libm.a(lib_a-s_copysign.o)
 .debug_aranges
                0x0000000000000d08       0x20 /usr/local/xenon/xenon/lib/32/libc.a(lib_a-abort.o)
 .debug_aranges
                0x0000000000000d28       0x20 /usr/local/xenon/xenon/lib/32/libc.a(lib_a-assert.o)
 .debug_aranges
                0x0000000000000d48       0x20 /usr/local/xenon/xenon/lib/32/libc.a(lib_a-errno.o)
 .debug_aranges
                0x0000000000000d68       0x20 /usr/local/xenon/xenon/lib/32/libc.a(lib_a-fclose.o)
 .debug_aranges
                0x0000000000000d88       0x20 /usr/local/xenon/xenon/lib/32/libc.a(lib_a-fflush.o)
 .debug_aranges
                0x0000000000000da8       0x20 /usr/local/xenon/xenon/lib/32/libc.a(lib_a-findfp.o)
 .debug_aranges
                0x0000000000000dc8       0x20 /usr/local/xenon/xenon/lib/32/libc.a(lib_a-fiprintf.o)
 .debug_aranges
                0x0000000000000de8       0x20 /usr/local/xenon/xenon/lib/32/libc.a(lib_a-fopen.o)
 .debug_aranges
                0x0000000000000e08       0x20 /usr/local/xenon/xenon/lib/32/libc.a(lib_a-fread.o)
 .debug_aranges
                0x0000000000000e28       0x20 /usr/local/xenon/xenon/lib/32/libc.a(lib_a-freer.o)
 .debug_aranges
                0x0000000000000e48       0x20 /usr/local/xenon/xenon/lib/32/libc.a(lib_a-fseek.o)
 .debug_aranges
                0x0000000000000e68       0x20 /usr/local/xenon/xenon/lib/32/libc.a(lib_a-fstatr.o)
 .debug_aranges
                0x0000000000000e88       0x20 /usr/local/xenon/xenon/lib/32/libc.a(lib_a-ftell.o)
 .debug_aranges
                0x0000000000000ea8       0x20 /usr/local/xenon/xenon/lib/32/libc.a(lib_a-fwalk.o)
 .debug_aranges
                0x0000000000000ec8       0x20 /usr/local/xenon/xenon/lib/32/libc.a(lib_a-makebuf.o)
 .debug_aranges
                0x0000000000000ee8       0x20 /usr/local/xenon/xenon/lib/32/libc.a(lib_a-malloc.o)
 .debug_aranges
                0x0000000000000f08       0x20 /usr/local/xenon/xenon/lib/32/libc.a(lib_a-mallocr.o)
 .debug_aranges
                0x0000000000000f28       0x20 /usr/local/xenon/xenon/lib/32/libc.a(lib_a-memcpy.o)
 .debug_aranges
                0x0000000000000f48       0x20 /usr/local/xenon/xenon/lib/32/libc.a(lib_a-memset.o)
 .debug_aranges
                0x0000000000000f68       0x20 /usr/local/xenon/xenon/lib/32/libc.a(lib_a-mlock.o)
 .debug_aranges
                0x0000000000000f88       0x20 /usr/local/xenon/xenon/lib/32/libc.a(lib_a-openr.o)
 .debug_aranges
                0x0000000000000fa8       0x20 /usr/local/xenon/xenon/lib/32/libc.a(lib_a-printf.o)
 .debug_aranges
                0x0000000000000fc8       0x20 /usr/local/xenon/xenon/lib/32/libc.a(lib_a-putchar.o)
 .debug_aranges
                0x0000000000000fe8       0x20 /usr/local/xenon/xenon/lib/32/libc.a(lib_a-putc.o)
 .debug_aranges
                0x0000000000001008       0x20 /usr/local/xenon/xenon/lib/32/libc.a(lib_a-puts.o)
 .debug_aranges
                0x0000000000001028       0x20 /usr/local/xenon/xenon/lib/32/libc.a(lib_a-reent.o)
 .debug_aranges
                0x0000000000001048       0x20 /usr/local/xenon/xenon/lib/32/libc.a(lib_a-refill.o)
 .debug_aranges
                0x0000000000001068       0x20 /usr/local/xenon/xenon/lib/32/libc.a(lib_a-sbrkr.o)
 .debug_aranges
                0x0000000000001088       0x20 /usr/local/xenon/xenon/lib/32/libc.a(lib_a-signal.o)
 .debug_aranges
                0x00000000000010a8       0x20 /usr/local/xenon/xenon/lib/32/libc.a(lib_a-signalr.o)
 .debug_aranges
                0x00000000000010c8       0x20 /usr/local/xenon/xenon/lib/32/libc.a(lib_a-stdio.o)
 .debug_aranges
                0x00000000000010e8       0x20 /usr/local/xenon/xenon/lib/32/libc.a(lib_a-strcmp.o)
 .debug_aranges
                0x0000000000001108       0x20 /usr/local/xenon/xenon/lib/32/libc.a(lib_a-strcpy.o)
 .debug_aranges
                0x0000000000001128       0x20 /usr/local/xenon/xenon/lib/32/libc.a(lib_a-strlen.o)
 .debug_aranges
                0x0000000000001148       0x20 /usr/local/xenon/xenon/lib/32/libc.a(lib_a-strncmp.o)
 .debug_aranges
                0x0000000000001168       0x20 /usr/local/xenon/xenon/lib/32/libc.a(lib_a-vfiprintf.o)
 .debug_aranges
                0x0000000000001188       0x20 /usr/local/xenon/xenon/lib/32/libc.a(lib_a-vfprintf.o)
 .debug_aranges
                0x00000000000011a8       0x20 /usr/local/xenon/xenon/lib/32/libc.a(lib_a-vprintf.o)
 .debug_aranges
                0x00000000000011c8       0x20 /usr/local/xenon/xenon/lib/32/libc.a(lib_a-wbuf.o)
 .debug_aranges
                0x00000000000011e8       0x20 /usr/local/xenon/xenon/lib/32/libc.a(lib_a-writer.o)
 .debug_aranges
                0x0000000000001208       0x20 /usr/local/xenon/xenon/lib/32/libc.a(lib_a-wsetup.o)
 .debug_aranges
                0x0000000000001228       0x20 /usr/local/xenon/xenon/lib/32/libc.a(lib_a-closer.o)
 .debug_aranges
                0x0000000000001248       0x20 /usr/local/xenon/xenon/lib/32/libc.a(lib_a-dtoa.o)
 .debug_aranges
                0x0000000000001268       0x20 /usr/local/xenon/xenon/lib/32/libc.a(lib_a-flags.o)
 .debug_aranges
                0x0000000000001288       0x20 /usr/local/xenon/xenon/lib/32/libc.a(lib_a-fvwrite.o)
 .debug_aranges
                0x00000000000012a8       0x20 /usr/local/xenon/xenon/lib/32/libc.a(lib_a-isattyr.o)
 .debug_aranges
                0x00000000000012c8       0x20 /usr/local/xenon/xenon/lib/32/libc.a(lib_a-locale.o)
 .debug_aranges
                0x00000000000012e8       0x20 /usr/local/xenon/xenon/lib/32/libc.a(lib_a-lseekr.o)
 .debug_aranges
                0x0000000000001308       0x20 /usr/local/xenon/xenon/lib/32/libc.a(lib_a-memchr.o)
 .debug_aranges
                0x0000000000001328       0x20 /usr/local/xenon/xenon/lib/32/libc.a(lib_a-memmove.o)
 .debug_aranges
                0x0000000000001348       0x20 /usr/local/xenon/xenon/lib/32/libc.a(lib_a-mprec.o)
 .debug_aranges
                0x0000000000001368       0x20 /usr/local/xenon/xenon/lib/32/libc.a(lib_a-readr.o)
 .debug_aranges
                0x0000000000001388       0x20 /usr/local/xenon/xenon/lib/32/libc.a(lib_a-reallocr.o)
 .debug_aranges
                0x00000000000013a8       0x20 /usr/local/xenon/xenon/lib/32/libc.a(lib_a-s_isinfd.o)
 .debug_aranges
                0x00000000000013c8       0x20 /usr/local/xenon/xenon/lib/32/libc.a(lib_a-s_isnand.o)
 .debug_aranges
                0x00000000000013e8       0x20 /usr/local/xenon/xenon/lib/32/libc.a(lib_a-callocr.o)

.debug_ranges   0x0000000000000000     0x1af0
 .debug_ranges  0x0000000000000000       0x18 /usr/local/xenon/lib/gcc/xenon/4.4.0/../../../../xenon/lib/../lib/crt1.o
 .debug_ranges  0x0000000000000018       0xe0 engine.o
 .debug_ranges  0x00000000000000f8       0x20 main.o
 .debug_ranges  0x0000000000000118       0x40 xee.o
 .debug_ranges  0x0000000000000158      0x1e8 /usr/local/xenon/usr/lib/libxenon.a(console.o)
 .debug_ranges  0x0000000000000340      0x148 /usr/local/xenon/usr/lib/libxenon.a(newlib.o)
 .debug_ranges  0x0000000000000488       0x28 /usr/local/xenon/usr/lib/libxenon.a(xenon_uart.o)
 .debug_ranges  0x00000000000004b0      0x2d8 /usr/local/xenon/usr/lib/libxenon.a(edram.o)
 .debug_ranges  0x0000000000000788      0x9f8 /usr/local/xenon/usr/lib/libxenon.a(xe.o)
 .debug_ranges  0x0000000000001180       0xc8 /usr/local/xenon/usr/lib/libxenon.a(xenos.o)
 .debug_ranges  0x0000000000001248       0xa0 /usr/local/xenon/usr/lib/libxenon.a(lib_malloc.o)
 .debug_ranges  0x00000000000012e8       0x30 /usr/local/xenon/usr/lib/libxenon.a(io.o)
 .debug_ranges  0x0000000000001318       0xe8 /usr/local/xenon/usr/lib/libxenon.a(time.o)
 .debug_ranges  0x0000000000001400       0x28 /usr/local/xenon/usr/lib/libxenon.a(xenon_gpio.o)
 .debug_ranges  0x0000000000001428       0x80 /usr/local/xenon/usr/lib/libxenon.a(xenon_smc.o)
 .debug_ranges  0x00000000000014a8       0x30 /usr/local/xenon/usr/lib/libxenon.a(xenon_config.o)
 .debug_ranges  0x00000000000014d8       0xa0 /usr/local/xenon/usr/lib/libxenon.a(xenon_sfcx.o)
 .debug_ranges  0x0000000000001578       0x18 /usr/local/xenon/xenon/lib/32/libm.a(lib_a-ef_rem_pio2.o)
 .debug_ranges  0x0000000000001590       0x20 /usr/local/xenon/xenon/lib/32/libm.a(lib_a-kf_tan.o)
 .debug_ranges  0x00000000000015b0       0x18 /usr/local/xenon/xenon/lib/32/libm.a(lib_a-s_cos.o)
 .debug_ranges  0x00000000000015c8       0x18 /usr/local/xenon/xenon/lib/32/libm.a(lib_a-s_sin.o)
 .debug_ranges  0x00000000000015e0       0x90 /usr/local/xenon/xenon/lib/32/libm.a(lib_a-e_rem_pio2.o)
 .debug_ranges  0x0000000000001670       0x30 /usr/local/xenon/xenon/lib/32/libm.a(lib_a-s_floor.o)
 .debug_ranges  0x00000000000016a0       0x70 /usr/local/xenon/xenon/lib/32/libm.a(lib_a-s_scalbn.o)
 .debug_ranges  0x0000000000001710       0x18 /usr/local/xenon/xenon/lib/32/libm.a(lib_a-s_copysign.o)
 .debug_ranges  0x0000000000001728       0x50 /usr/local/xenon/xenon/lib/32/libc.a(lib_a-fflush.o)
 .debug_ranges  0x0000000000001778       0x38 /usr/local/xenon/xenon/lib/32/libc.a(lib_a-fread.o)
 .debug_ranges  0x00000000000017b0       0x18 /usr/local/xenon/xenon/lib/32/libc.a(lib_a-fseek.o)
 .debug_ranges  0x00000000000017c8       0x60 /usr/local/xenon/xenon/lib/32/libc.a(lib_a-fwalk.o)
 .debug_ranges  0x0000000000001828       0x50 /usr/local/xenon/xenon/lib/32/libc.a(lib_a-mallocr.o)
 .debug_ranges  0x0000000000001878       0x30 /usr/local/xenon/xenon/lib/32/libc.a(lib_a-vfiprintf.o)
 .debug_ranges  0x00000000000018a8      0x190 /usr/local/xenon/xenon/lib/32/libc.a(lib_a-vfprintf.o)
 .debug_ranges  0x0000000000001a38       0x20 /usr/local/xenon/xenon/lib/32/libc.a(lib_a-fvwrite.o)
 .debug_ranges  0x0000000000001a58       0x80 /usr/local/xenon/xenon/lib/32/libc.a(lib_a-reallocr.o)
 .debug_ranges  0x0000000000001ad8       0x18 /usr/local/xenon/xenon/lib/32/libc.a(lib_a-callocr.o)

.debug_str      0x0000000000000000     0x4ac8
 .debug_str     0x0000000000000000       0x7d /usr/local/xenon/lib/gcc/xenon/4.4.0/../../../../xenon/lib/../lib/crt1.o
 .debug_str     0x000000000000007d      0x227 engine.o
                                        0x27f (size before relaxing)
 .debug_str     0x00000000000002a4       0x5c ffs_content.o
                                         0x76 (size before relaxing)
 .debug_str     0x0000000000000300      0x56b main.o
                                        0x6dd (size before relaxing)
 .debug_str     0x000000000000086b       0x97 xee.o
                                        0x6d7 (size before relaxing)
 .debug_str     0x0000000000000902      0x18b /usr/local/xenon/usr/lib/libxenon.a(console.o)
                                        0x27d (size before relaxing)
 .debug_str     0x0000000000000a8d      0x28c /usr/local/xenon/usr/lib/libxenon.a(newlib.o)
                                        0x3db (size before relaxing)
 .debug_str     0x0000000000000d19       0x21 /usr/local/xenon/usr/lib/libxenon.a(vm.o)
                                         0xe4 (size before relaxing)
 .debug_str     0x0000000000000d3a       0x32 /usr/local/xenon/usr/lib/libxenon.a(xenon_uart.o)
                                        0x102 (size before relaxing)
 .debug_str     0x0000000000000d6c      0x1c9 /usr/local/xenon/usr/lib/libxenon.a(edram.o)
                                        0x662 (size before relaxing)
 .debug_str     0x0000000000000f35      0xf8b /usr/local/xenon/usr/lib/libxenon.a(xe.o)
                                       0x156a (size before relaxing)
 .debug_str     0x0000000000001ec0      0x2d1 /usr/local/xenon/usr/lib/libxenon.a(xenos.o)
                                        0x3ea (size before relaxing)
 .debug_str     0x0000000000002191      0x146 /usr/local/xenon/usr/lib/libxenon.a(lib_malloc.o)
                                        0x2a8 (size before relaxing)
 .debug_str     0x00000000000022d7       0x28 /usr/local/xenon/usr/lib/libxenon.a(io.o)
                                         0xff (size before relaxing)
 .debug_str     0x00000000000022ff       0x34 /usr/local/xenon/usr/lib/libxenon.a(time.o)
                                        0x106 (size before relaxing)
 .debug_str     0x0000000000002333       0x59 /usr/local/xenon/usr/lib/libxenon.a(xenon_gpio.o)
                                        0x122 (size before relaxing)
 .debug_str     0x000000000000238c      0x17e /usr/local/xenon/usr/lib/libxenon.a(xenon_smc.o)
                                        0x265 (size before relaxing)
 .debug_str     0x000000000000250a      0x2b8 /usr/local/xenon/usr/lib/libxenon.a(xenon_config.o)
                                        0x3bc (size before relaxing)
 .debug_str     0x00000000000027c2       0x1c /usr/local/xenon/usr/lib/libxenon.a(ucode.o)
                                        0x106 (size before relaxing)
 .debug_str     0x00000000000027de      0x165 /usr/local/xenon/usr/lib/libxenon.a(xenon_sfcx.o)
                                        0x33f (size before relaxing)
 .debug_str     0x0000000000002943       0xba /usr/local/xenon/xenon/lib/32/libm.a(lib_a-sf_tan.o)
                                        0x167 (size before relaxing)
 .debug_str     0x00000000000029fd       0x4f /usr/local/xenon/xenon/lib/32/libm.a(lib_a-wf_sincos.o)
                                        0x13c (size before relaxing)
 .debug_str     0x0000000000002a4c       0x43 /usr/local/xenon/xenon/lib/32/libm.a(lib_a-w_sincos.o)
                                        0x13a (size before relaxing)
 .debug_str     0x0000000000002a8f       0xb1 /usr/local/xenon/xenon/lib/32/libm.a(lib_a-ef_rem_pio2.o)
                                        0x1d9 (size before relaxing)
 .debug_str     0x0000000000002b40       0x7b /usr/local/xenon/xenon/lib/32/libm.a(lib_a-kf_rem_pio2.o)
                                        0x181 (size before relaxing)
 .debug_str     0x0000000000002bbb       0x54 /usr/local/xenon/xenon/lib/32/libm.a(lib_a-kf_tan.o)
                                        0x17c (size before relaxing)
 .debug_str     0x0000000000002c0f       0x5b /usr/local/xenon/xenon/lib/32/libm.a(lib_a-s_cos.o)
                                        0x163 (size before relaxing)
 .debug_str     0x0000000000002c6a       0x3a /usr/local/xenon/xenon/lib/32/libm.a(lib_a-sf_cos.o)
                                        0x167 (size before relaxing)
 .debug_str     0x0000000000002ca4       0x41 /usr/local/xenon/xenon/lib/32/libm.a(lib_a-sf_fabs.o)
                                        0x139 (size before relaxing)
 .debug_str     0x0000000000002ce5       0x48 /usr/local/xenon/xenon/lib/32/libm.a(lib_a-sf_floor.o)
                                        0x14a (size before relaxing)
 .debug_str     0x0000000000002d2d       0x9a /usr/local/xenon/xenon/lib/32/libm.a(lib_a-sf_scalbn.o)
                                        0x188 (size before relaxing)
 .debug_str     0x0000000000002dc7       0x3a /usr/local/xenon/xenon/lib/32/libm.a(lib_a-sf_sin.o)
                                        0x167 (size before relaxing)
 .debug_str     0x0000000000002e01       0x39 /usr/local/xenon/xenon/lib/32/libm.a(lib_a-s_sin.o)
                                        0x163 (size before relaxing)
 .debug_str     0x0000000000002e3a       0x66 /usr/local/xenon/xenon/lib/32/libm.a(lib_a-e_rem_pio2.o)
                                        0x1e9 (size before relaxing)
 .debug_str     0x0000000000002ea0       0x4b /usr/local/xenon/xenon/lib/32/libm.a(lib_a-k_cos.o)
                                        0x175 (size before relaxing)
 .debug_str     0x0000000000002eeb       0x48 /usr/local/xenon/xenon/lib/32/libm.a(lib_a-kf_cos.o)
                                        0x170 (size before relaxing)
 .debug_str     0x0000000000002f33       0x48 /usr/local/xenon/xenon/lib/32/libm.a(lib_a-kf_sin.o)
                                        0x175 (size before relaxing)
 .debug_str     0x0000000000002f7b       0x57 /usr/local/xenon/xenon/lib/32/libm.a(lib_a-k_rem_pio2.o)
                                        0x181 (size before relaxing)
 .debug_str     0x0000000000002fd2       0x46 /usr/local/xenon/xenon/lib/32/libm.a(lib_a-k_sin.o)
                                        0x175 (size before relaxing)
 .debug_str     0x0000000000003018       0x3f /usr/local/xenon/xenon/lib/32/libm.a(lib_a-s_fabs.o)
                                        0x164 (size before relaxing)
 .debug_str     0x0000000000003057       0x4b /usr/local/xenon/xenon/lib/32/libm.a(lib_a-sf_copysign.o)
                                        0x145 (size before relaxing)
 .debug_str     0x00000000000030a2       0x46 /usr/local/xenon/xenon/lib/32/libm.a(lib_a-s_floor.o)
                                        0x175 (size before relaxing)
 .debug_str     0x00000000000030e8       0x52 /usr/local/xenon/xenon/lib/32/libm.a(lib_a-s_scalbn.o)
                                        0x192 (size before relaxing)
 .debug_str     0x000000000000313a       0x49 /usr/local/xenon/xenon/lib/32/libm.a(lib_a-s_copysign.o)
                                        0x170 (size before relaxing)
 .debug_str     0x0000000000003183       0x82 /usr/local/xenon/xenon/lib/32/libc.a(lib_a-abort.o)
                                        0x117 (size before relaxing)
 .debug_str     0x0000000000003205       0x5e /usr/local/xenon/xenon/lib/32/libc.a(lib_a-assert.o)
                                        0x4fe (size before relaxing)
 .debug_str     0x0000000000003263       0x82 /usr/local/xenon/xenon/lib/32/libc.a(lib_a-errno.o)
                                        0x4d2 (size before relaxing)
 .debug_str     0x00000000000032e5       0x91 /usr/local/xenon/xenon/lib/32/libc.a(lib_a-fclose.o)
                                        0x4e6 (size before relaxing)
 .debug_str     0x0000000000003376       0x66 /usr/local/xenon/xenon/lib/32/libc.a(lib_a-fflush.o)
                                        0x502 (size before relaxing)
 .debug_str     0x00000000000033dc      0x103 /usr/local/xenon/xenon/lib/32/libc.a(lib_a-findfp.o)
                                        0x5c4 (size before relaxing)
 .debug_str     0x00000000000034df       0x49 /usr/local/xenon/xenon/lib/32/libc.a(lib_a-fiprintf.o)
                                        0x535 (size before relaxing)
 .debug_str     0x0000000000003528       0x49 /usr/local/xenon/xenon/lib/32/libc.a(lib_a-fopen.o)
                                        0x4f5 (size before relaxing)
 .debug_str     0x0000000000003571       0x71 /usr/local/xenon/xenon/lib/32/libc.a(lib_a-fread.o)
                                        0x51e (size before relaxing)
 .debug_str     0x00000000000035e2      0x156 /usr/local/xenon/xenon/lib/32/libc.a(lib_a-freer.o)
                                        0x613 (size before relaxing)
 .debug_str     0x0000000000003738       0x64 /usr/local/xenon/xenon/lib/32/libc.a(lib_a-fseek.o)
                                        0x602 (size before relaxing)
 .debug_str     0x000000000000379c       0x8a /usr/local/xenon/xenon/lib/32/libc.a(lib_a-fstatr.o)
                                        0x5c1 (size before relaxing)
 .debug_str     0x0000000000003826       0x49 /usr/local/xenon/xenon/lib/32/libc.a(lib_a-ftell.o)
                                        0x4de (size before relaxing)
 .debug_str     0x000000000000386f       0x5f /usr/local/xenon/xenon/lib/32/libc.a(lib_a-fwalk.o)
                                        0x505 (size before relaxing)
 .debug_str     0x00000000000038ce       0x47 /usr/local/xenon/xenon/lib/32/libc.a(lib_a-impure.o)
                                        0x4ea (size before relaxing)
 .debug_str     0x0000000000003915       0x54 /usr/local/xenon/xenon/lib/32/libc.a(lib_a-makebuf.o)
                                        0x5d6 (size before relaxing)
 .debug_str     0x0000000000003969       0x48 /usr/local/xenon/xenon/lib/32/libc.a(lib_a-malloc.o)
                                        0x4ec (size before relaxing)
 .debug_str     0x00000000000039b1       0xe3 /usr/local/xenon/xenon/lib/32/libc.a(lib_a-mallocr.o)
                                        0x6c1 (size before relaxing)
 .debug_str     0x0000000000003a94       0xab /usr/local/xenon/xenon/lib/32/libc.a(lib_a-memcpy.o)
                                        0x147 (size before relaxing)
 .debug_str     0x0000000000003b3f       0x50 /usr/local/xenon/xenon/lib/32/libc.a(lib_a-memset.o)
                                        0x134 (size before relaxing)
 .debug_str     0x0000000000003b8f       0x6e /usr/local/xenon/xenon/lib/32/libc.a(lib_a-mlock.o)
                                        0x4f3 (size before relaxing)
 .debug_str     0x0000000000003bfd       0x42 /usr/local/xenon/xenon/lib/32/libc.a(lib_a-openr.o)
                                        0x4dc (size before relaxing)
 .debug_str     0x0000000000003c3f       0x45 /usr/local/xenon/xenon/lib/32/libc.a(lib_a-printf.o)
                                        0x52a (size before relaxing)
 .debug_str     0x0000000000003c84       0x4f /usr/local/xenon/xenon/lib/32/libc.a(lib_a-putchar.o)
                                        0x4df (size before relaxing)
 .debug_str     0x0000000000003cd3       0x46 /usr/local/xenon/xenon/lib/32/libc.a(lib_a-putc.o)
                                        0x4e2 (size before relaxing)
 .debug_str     0x0000000000003d19       0x82 /usr/local/xenon/xenon/lib/32/libc.a(lib_a-puts.o)
                                        0x519 (size before relaxing)
 .debug_str     0x0000000000003d9b       0x74 /usr/local/xenon/xenon/lib/32/libc.a(lib_a-reent.o)
                                        0x50f (size before relaxing)
 .debug_str     0x0000000000003e0f       0x4e /usr/local/xenon/xenon/lib/32/libc.a(lib_a-refill.o)
                                        0x4ea (size before relaxing)
 .debug_str     0x0000000000003e5d       0x42 /usr/local/xenon/xenon/lib/32/libc.a(lib_a-sbrkr.o)
                                        0x4db (size before relaxing)
 .debug_str     0x0000000000003e9f       0xd7 /usr/local/xenon/xenon/lib/32/libc.a(lib_a-signal.o)
                                        0x53d (size before relaxing)
 .debug_str     0x0000000000003f76       0x4e /usr/local/xenon/xenon/lib/32/libc.a(lib_a-signalr.o)
                                        0x4d8 (size before relaxing)
 .debug_str     0x0000000000003fc4       0x5c /usr/local/xenon/xenon/lib/32/libc.a(lib_a-stdio.o)
                                        0x501 (size before relaxing)
 .debug_str     0x0000000000004020       0x43 /usr/local/xenon/xenon/lib/32/libc.a(lib_a-strcmp.o)
                                        0x119 (size before relaxing)
 .debug_str     0x0000000000004063       0x43 /usr/local/xenon/xenon/lib/32/libc.a(lib_a-strcpy.o)
                                        0x13b (size before relaxing)
 .debug_str     0x00000000000040a6       0x43 /usr/local/xenon/xenon/lib/32/libc.a(lib_a-strlen.o)
                                        0x133 (size before relaxing)
 .debug_str     0x00000000000040e9       0x45 /usr/local/xenon/xenon/lib/32/libc.a(lib_a-strncmp.o)
                                        0x122 (size before relaxing)
 .debug_str     0x000000000000412e       0xd6 /usr/local/xenon/xenon/lib/32/libc.a(lib_a-vfiprintf.o)
                                        0x641 (size before relaxing)
 .debug_str     0x0000000000004204       0x76 /usr/local/xenon/xenon/lib/32/libc.a(lib_a-vfprintf.o)
                                        0x6d2 (size before relaxing)
 .debug_str     0x000000000000427a       0x4f /usr/local/xenon/xenon/lib/32/libc.a(lib_a-vprintf.o)
                                        0x516 (size before relaxing)
 .debug_str     0x00000000000042c9       0x4b /usr/local/xenon/xenon/lib/32/libc.a(lib_a-wbuf.o)
                                        0x4e0 (size before relaxing)
 .debug_str     0x0000000000004314       0x44 /usr/local/xenon/xenon/lib/32/libc.a(lib_a-writer.o)
                                        0x4de (size before relaxing)
 .debug_str     0x0000000000004358       0x47 /usr/local/xenon/xenon/lib/32/libc.a(lib_a-wsetup.o)
                                        0x4dc (size before relaxing)
 .debug_str     0x000000000000439f       0x44 /usr/local/xenon/xenon/lib/32/libc.a(lib_a-closer.o)
                                        0x4ce (size before relaxing)
 .debug_str     0x00000000000043e3       0xf7 /usr/local/xenon/xenon/lib/32/libc.a(lib_a-dtoa.o)
                                        0x5d1 (size before relaxing)
 .debug_str     0x00000000000044da       0x48 /usr/local/xenon/xenon/lib/32/libc.a(lib_a-flags.o)
                                        0x4d1 (size before relaxing)
 .debug_str     0x0000000000004522       0x67 /usr/local/xenon/xenon/lib/32/libc.a(lib_a-fvwrite.o)
                                        0x533 (size before relaxing)
 .debug_str     0x0000000000004589       0x46 /usr/local/xenon/xenon/lib/32/libc.a(lib_a-isattyr.o)
                                        0x4d0 (size before relaxing)
 .debug_str     0x00000000000045cf      0x1db /usr/local/xenon/xenon/lib/32/libc.a(lib_a-locale.o)
                                        0x679 (size before relaxing)
 .debug_str     0x00000000000047aa       0x44 /usr/local/xenon/xenon/lib/32/libc.a(lib_a-lseekr.o)
                                        0x4dc (size before relaxing)
 .debug_str     0x00000000000047ee       0x51 /usr/local/xenon/xenon/lib/32/libc.a(lib_a-memchr.o)
                                        0x13a (size before relaxing)
 .debug_str     0x000000000000483f       0x4e /usr/local/xenon/xenon/lib/32/libc.a(lib_a-memmove.o)
                                        0x153 (size before relaxing)
 .debug_str     0x000000000000488d       0xf9 /usr/local/xenon/xenon/lib/32/libc.a(lib_a-mprec.o)
                                        0x5de (size before relaxing)
 .debug_str     0x0000000000004986       0x42 /usr/local/xenon/xenon/lib/32/libc.a(lib_a-readr.o)
                                        0x4dc (size before relaxing)
 .debug_str     0x00000000000049c8       0x59 /usr/local/xenon/xenon/lib/32/libc.a(lib_a-reallocr.o)
                                        0x593 (size before relaxing)
 .debug_str     0x0000000000004a21       0x47 /usr/local/xenon/xenon/lib/32/libc.a(lib_a-s_isinfd.o)
                                        0x173 (size before relaxing)
 .debug_str     0x0000000000004a68       0x47 /usr/local/xenon/xenon/lib/32/libc.a(lib_a-s_isnand.o)
                                        0x173 (size before relaxing)
 .debug_str     0x0000000000004aaf       0x19 /usr/local/xenon/xenon/lib/32/libc.a(lib_a-callocr.o)
                                        0x512 (size before relaxing)

.comment        0x0000000000000000      0x73e
 .comment       0x0000000000000000       0x12 /usr/local/xenon/lib/gcc/xenon/4.4.0/../../../../xenon/lib/../lib/crt1.o
 .comment       0x0000000000000012       0x12 /usr/local/xenon/lib/gcc/xenon/4.4.0/32/crtbegin.o
 .comment       0x0000000000000024       0x12 engine.o
 .comment       0x0000000000000036       0x12 ffs_content.o
 .comment       0x0000000000000048       0x12 main.o
 .comment       0x000000000000005a       0x12 xee.o
 .comment       0x000000000000006c       0x12 /usr/local/xenon/usr/lib/libxenon.a(console.o)
 .comment       0x000000000000007e       0x12 /usr/local/xenon/usr/lib/libxenon.a(newlib.o)
 .comment       0x0000000000000090       0x12 /usr/local/xenon/usr/lib/libxenon.a(vm.o)
 .comment       0x00000000000000a2       0x12 /usr/local/xenon/usr/lib/libxenon.a(xenon_uart.o)
 .comment       0x00000000000000b4       0x12 /usr/local/xenon/usr/lib/libxenon.a(edram.o)
 .comment       0x00000000000000c6       0x12 /usr/local/xenon/usr/lib/libxenon.a(xe.o)
 .comment       0x00000000000000d8       0x12 /usr/local/xenon/usr/lib/libxenon.a(xenos.o)
 .comment       0x00000000000000ea       0x12 /usr/local/xenon/usr/lib/libxenon.a(lib_malloc.o)
 .comment       0x00000000000000fc       0x12 /usr/local/xenon/usr/lib/libxenon.a(io.o)
 .comment       0x000000000000010e       0x12 /usr/local/xenon/usr/lib/libxenon.a(time.o)
 .comment       0x0000000000000120       0x12 /usr/local/xenon/usr/lib/libxenon.a(xenon_gpio.o)
 .comment       0x0000000000000132       0x12 /usr/local/xenon/usr/lib/libxenon.a(xenon_smc.o)
 .comment       0x0000000000000144       0x12 /usr/local/xenon/usr/lib/libxenon.a(xenon_config.o)
 .comment       0x0000000000000156       0x12 /usr/local/xenon/usr/lib/libxenon.a(ucode.o)
 .comment       0x0000000000000168       0x12 /usr/local/xenon/usr/lib/libxenon.a(xenon_sfcx.o)
 .comment       0x000000000000017a       0x12 /usr/local/xenon/xenon/lib/32/libm.a(lib_a-sf_tan.o)
 .comment       0x000000000000018c       0x12 /usr/local/xenon/xenon/lib/32/libm.a(lib_a-wf_sincos.o)
 .comment       0x000000000000019e       0x12 /usr/local/xenon/xenon/lib/32/libm.a(lib_a-w_sincos.o)
 .comment       0x00000000000001b0       0x12 /usr/local/xenon/xenon/lib/32/libm.a(lib_a-ef_rem_pio2.o)
 .comment       0x00000000000001c2       0x12 /usr/local/xenon/xenon/lib/32/libm.a(lib_a-kf_rem_pio2.o)
 .comment       0x00000000000001d4       0x12 /usr/local/xenon/xenon/lib/32/libm.a(lib_a-kf_tan.o)
 .comment       0x00000000000001e6       0x12 /usr/local/xenon/xenon/lib/32/libm.a(lib_a-s_cos.o)
 .comment       0x00000000000001f8       0x12 /usr/local/xenon/xenon/lib/32/libm.a(lib_a-sf_cos.o)
 .comment       0x000000000000020a       0x12 /usr/local/xenon/xenon/lib/32/libm.a(lib_a-sf_fabs.o)
 .comment       0x000000000000021c       0x12 /usr/local/xenon/xenon/lib/32/libm.a(lib_a-sf_floor.o)
 .comment       0x000000000000022e       0x12 /usr/local/xenon/xenon/lib/32/libm.a(lib_a-sf_scalbn.o)
 .comment       0x0000000000000240       0x12 /usr/local/xenon/xenon/lib/32/libm.a(lib_a-sf_sin.o)
 .comment       0x0000000000000252       0x12 /usr/local/xenon/xenon/lib/32/libm.a(lib_a-s_sin.o)
 .comment       0x0000000000000264       0x12 /usr/local/xenon/xenon/lib/32/libm.a(lib_a-e_rem_pio2.o)
 .comment       0x0000000000000276       0x12 /usr/local/xenon/xenon/lib/32/libm.a(lib_a-k_cos.o)
 .comment       0x0000000000000288       0x12 /usr/local/xenon/xenon/lib/32/libm.a(lib_a-kf_cos.o)
 .comment       0x000000000000029a       0x12 /usr/local/xenon/xenon/lib/32/libm.a(lib_a-kf_sin.o)
 .comment       0x00000000000002ac       0x12 /usr/local/xenon/xenon/lib/32/libm.a(lib_a-k_rem_pio2.o)
 .comment       0x00000000000002be       0x12 /usr/local/xenon/xenon/lib/32/libm.a(lib_a-k_sin.o)
 .comment       0x00000000000002d0       0x12 /usr/local/xenon/xenon/lib/32/libm.a(lib_a-s_fabs.o)
 .comment       0x00000000000002e2       0x12 /usr/local/xenon/xenon/lib/32/libm.a(lib_a-sf_copysign.o)
 .comment       0x00000000000002f4       0x12 /usr/local/xenon/xenon/lib/32/libm.a(lib_a-s_floor.o)
 .comment       0x0000000000000306       0x12 /usr/local/xenon/xenon/lib/32/libm.a(lib_a-s_scalbn.o)
 .comment       0x0000000000000318       0x12 /usr/local/xenon/xenon/lib/32/libm.a(lib_a-s_copysign.o)
 .comment       0x000000000000032a       0x12 /usr/local/xenon/xenon/lib/32/libc.a(lib_a-abort.o)
 .comment       0x000000000000033c       0x12 /usr/local/xenon/xenon/lib/32/libc.a(lib_a-assert.o)
 .comment       0x000000000000034e       0x12 /usr/local/xenon/xenon/lib/32/libc.a(lib_a-errno.o)
 .comment       0x0000000000000360       0x12 /usr/local/xenon/xenon/lib/32/libc.a(lib_a-fclose.o)
 .comment       0x0000000000000372       0x12 /usr/local/xenon/xenon/lib/32/libc.a(lib_a-fflush.o)
 .comment       0x0000000000000384       0x12 /usr/local/xenon/xenon/lib/32/libc.a(lib_a-findfp.o)
 .comment       0x0000000000000396       0x12 /usr/local/xenon/xenon/lib/32/libc.a(lib_a-fiprintf.o)
 .comment       0x00000000000003a8       0x12 /usr/local/xenon/xenon/lib/32/libc.a(lib_a-fopen.o)
 .comment       0x00000000000003ba       0x12 /usr/local/xenon/xenon/lib/32/libc.a(lib_a-fread.o)
 .comment       0x00000000000003cc       0x12 /usr/local/xenon/xenon/lib/32/libc.a(lib_a-freer.o)
 .comment       0x00000000000003de       0x12 /usr/local/xenon/xenon/lib/32/libc.a(lib_a-fseek.o)
 .comment       0x00000000000003f0       0x12 /usr/local/xenon/xenon/lib/32/libc.a(lib_a-fstatr.o)
 .comment       0x0000000000000402       0x12 /usr/local/xenon/xenon/lib/32/libc.a(lib_a-ftell.o)
 .comment       0x0000000000000414       0x12 /usr/local/xenon/xenon/lib/32/libc.a(lib_a-fwalk.o)
 .comment       0x0000000000000426       0x12 /usr/local/xenon/xenon/lib/32/libc.a(lib_a-impure.o)
 .comment       0x0000000000000438       0x12 /usr/local/xenon/xenon/lib/32/libc.a(lib_a-makebuf.o)
 .comment       0x000000000000044a       0x12 /usr/local/xenon/xenon/lib/32/libc.a(lib_a-malloc.o)
 .comment       0x000000000000045c       0x12 /usr/local/xenon/xenon/lib/32/libc.a(lib_a-mallocr.o)
 .comment       0x000000000000046e       0x12 /usr/local/xenon/xenon/lib/32/libc.a(lib_a-memcpy.o)
 .comment       0x0000000000000480       0x12 /usr/local/xenon/xenon/lib/32/libc.a(lib_a-memset.o)
 .comment       0x0000000000000492       0x12 /usr/local/xenon/xenon/lib/32/libc.a(lib_a-mlock.o)
 .comment       0x00000000000004a4       0x12 /usr/local/xenon/xenon/lib/32/libc.a(lib_a-openr.o)
 .comment       0x00000000000004b6       0x12 /usr/local/xenon/xenon/lib/32/libc.a(lib_a-printf.o)
 .comment       0x00000000000004c8       0x12 /usr/local/xenon/xenon/lib/32/libc.a(lib_a-putchar.o)
 .comment       0x00000000000004da       0x12 /usr/local/xenon/xenon/lib/32/libc.a(lib_a-putc.o)
 .comment       0x00000000000004ec       0x12 /usr/local/xenon/xenon/lib/32/libc.a(lib_a-puts.o)
 .comment       0x00000000000004fe       0x12 /usr/local/xenon/xenon/lib/32/libc.a(lib_a-reent.o)
 .comment       0x0000000000000510       0x12 /usr/local/xenon/xenon/lib/32/libc.a(lib_a-refill.o)
 .comment       0x0000000000000522       0x12 /usr/local/xenon/xenon/lib/32/libc.a(lib_a-sbrkr.o)
 .comment       0x0000000000000534       0x12 /usr/local/xenon/xenon/lib/32/libc.a(lib_a-signal.o)
 .comment       0x0000000000000546       0x12 /usr/local/xenon/xenon/lib/32/libc.a(lib_a-signalr.o)
 .comment       0x0000000000000558       0x12 /usr/local/xenon/xenon/lib/32/libc.a(lib_a-stdio.o)
 .comment       0x000000000000056a       0x12 /usr/local/xenon/xenon/lib/32/libc.a(lib_a-strcmp.o)
 .comment       0x000000000000057c       0x12 /usr/local/xenon/xenon/lib/32/libc.a(lib_a-strcpy.o)
 .comment       0x000000000000058e       0x12 /usr/local/xenon/xenon/lib/32/libc.a(lib_a-strlen.o)
 .comment       0x00000000000005a0       0x12 /usr/local/xenon/xenon/lib/32/libc.a(lib_a-strncmp.o)
 .comment       0x00000000000005b2       0x12 /usr/local/xenon/xenon/lib/32/libc.a(lib_a-vfiprintf.o)
 .comment       0x00000000000005c4       0x12 /usr/local/xenon/xenon/lib/32/libc.a(lib_a-vfprintf.o)
 .comment       0x00000000000005d6       0x12 /usr/local/xenon/xenon/lib/32/libc.a(lib_a-vprintf.o)
 .comment       0x00000000000005e8       0x12 /usr/local/xenon/xenon/lib/32/libc.a(lib_a-wbuf.o)
 .comment       0x00000000000005fa       0x12 /usr/local/xenon/xenon/lib/32/libc.a(lib_a-writer.o)
 .comment       0x000000000000060c       0x12 /usr/local/xenon/xenon/lib/32/libc.a(lib_a-wsetup.o)
 .comment       0x000000000000061e       0x12 /usr/local/xenon/xenon/lib/32/libc.a(lib_a-closer.o)
 .comment       0x0000000000000630       0x12 /usr/local/xenon/xenon/lib/32/libc.a(lib_a-dtoa.o)
 .comment       0x0000000000000642       0x12 /usr/local/xenon/xenon/lib/32/libc.a(lib_a-flags.o)
 .comment       0x0000000000000654       0x12 /usr/local/xenon/xenon/lib/32/libc.a(lib_a-fvwrite.o)
 .comment       0x0000000000000666       0x12 /usr/local/xenon/xenon/lib/32/libc.a(lib_a-isattyr.o)
 .comment       0x0000000000000678       0x12 /usr/local/xenon/xenon/lib/32/libc.a(lib_a-locale.o)
 .comment       0x000000000000068a       0x12 /usr/local/xenon/xenon/lib/32/libc.a(lib_a-lseekr.o)
 .comment       0x000000000000069c       0x12 /usr/local/xenon/xenon/lib/32/libc.a(lib_a-memchr.o)
 .comment       0x00000000000006ae       0x12 /usr/local/xenon/xenon/lib/32/libc.a(lib_a-memmove.o)
 .comment       0x00000000000006c0       0x12 /usr/local/xenon/xenon/lib/32/libc.a(lib_a-mprec.o)
 .comment       0x00000000000006d2       0x12 /usr/local/xenon/xenon/lib/32/libc.a(lib_a-readr.o)
 .comment       0x00000000000006e4       0x12 /usr/local/xenon/xenon/lib/32/libc.a(lib_a-reallocr.o)
 .comment       0x00000000000006f6       0x12 /usr/local/xenon/xenon/lib/32/libc.a(lib_a-s_isinfd.o)
 .comment       0x0000000000000708       0x12 /usr/local/xenon/xenon/lib/32/libc.a(lib_a-s_isnand.o)
 .comment       0x000000000000071a       0x12 /usr/local/xenon/xenon/lib/32/libc.a(lib_a-callocr.o)
 .comment       0x000000000000072c       0x12 /usr/local/xenon/lib/gcc/xenon/4.4.0/32/crtend.o

.note.GNU-stack
                0x0000000000000000        0x0
 .note.GNU-stack
                0x0000000000000000        0x0 /usr/local/xenon/lib/gcc/xenon/4.4.0/../../../../xenon/lib/../lib/crt1.o
 .note.GNU-stack
                0x0000000000000000        0x0 /usr/local/xenon/lib/gcc/xenon/4.4.0/32/crtbegin.o
 .note.GNU-stack
                0x0000000000000000        0x0 engine.o
 .note.GNU-stack
                0x0000000000000000        0x0 ffs_content.o
 .note.GNU-stack
                0x0000000000000000        0x0 main.o
 .note.GNU-stack
                0x0000000000000000        0x0 xee.o
 .note.GNU-stack
                0x0000000000000000        0x0 /usr/local/xenon/usr/lib/libxenon.a(console.o)
 .note.GNU-stack
                0x0000000000000000        0x0 /usr/local/xenon/usr/lib/libxenon.a(newlib.o)
 .note.GNU-stack
                0x0000000000000000        0x0 /usr/local/xenon/usr/lib/libxenon.a(vm.o)
 .note.GNU-stack
                0x0000000000000000        0x0 /usr/local/xenon/usr/lib/libxenon.a(xenon_uart.o)
 .note.GNU-stack
                0x0000000000000000        0x0 /usr/local/xenon/usr/lib/libxenon.a(edram.o)
 .note.GNU-stack
                0x0000000000000000        0x0 /usr/local/xenon/usr/lib/libxenon.a(xe.o)
 .note.GNU-stack
                0x0000000000000000        0x0 /usr/local/xenon/usr/lib/libxenon.a(xenos.o)
 .note.GNU-stack
                0x0000000000000000        0x0 /usr/local/xenon/usr/lib/libxenon.a(lib_malloc.o)
 .note.GNU-stack
                0x0000000000000000        0x0 /usr/local/xenon/usr/lib/libxenon.a(io.o)
 .note.GNU-stack
                0x0000000000000000        0x0 /usr/local/xenon/usr/lib/libxenon.a(time.o)
 .note.GNU-stack
                0x0000000000000000        0x0 /usr/local/xenon/usr/lib/libxenon.a(xenon_gpio.o)
 .note.GNU-stack
                0x0000000000000000        0x0 /usr/local/xenon/usr/lib/libxenon.a(xenon_smc.o)
 .note.GNU-stack
                0x0000000000000000        0x0 /usr/local/xenon/usr/lib/libxenon.a(xenon_config.o)
 .note.GNU-stack
                0x0000000000000000        0x0 /usr/local/xenon/usr/lib/libxenon.a(ucode.o)
 .note.GNU-stack
                0x0000000000000000        0x0 /usr/local/xenon/usr/lib/libxenon.a(xenon_sfcx.o)
 .note.GNU-stack
                0x0000000000000000        0x0 /usr/local/xenon/xenon/lib/32/libm.a(lib_a-sf_tan.o)
 .note.GNU-stack
                0x0000000000000000        0x0 /usr/local/xenon/xenon/lib/32/libm.a(lib_a-wf_sincos.o)
 .note.GNU-stack
                0x0000000000000000        0x0 /usr/local/xenon/xenon/lib/32/libm.a(lib_a-w_sincos.o)
 .note.GNU-stack
                0x0000000000000000        0x0 /usr/local/xenon/xenon/lib/32/libm.a(lib_a-ef_rem_pio2.o)
 .note.GNU-stack
                0x0000000000000000        0x0 /usr/local/xenon/xenon/lib/32/libm.a(lib_a-kf_rem_pio2.o)
 .note.GNU-stack
                0x0000000000000000        0x0 /usr/local/xenon/xenon/lib/32/libm.a(lib_a-kf_tan.o)
 .note.GNU-stack
                0x0000000000000000        0x0 /usr/local/xenon/xenon/lib/32/libm.a(lib_a-s_cos.o)
 .note.GNU-stack
                0x0000000000000000        0x0 /usr/local/xenon/xenon/lib/32/libm.a(lib_a-sf_cos.o)
 .note.GNU-stack
                0x0000000000000000        0x0 /usr/local/xenon/xenon/lib/32/libm.a(lib_a-sf_fabs.o)
 .note.GNU-stack
                0x0000000000000000        0x0 /usr/local/xenon/xenon/lib/32/libm.a(lib_a-sf_floor.o)
 .note.GNU-stack
                0x0000000000000000        0x0 /usr/local/xenon/xenon/lib/32/libm.a(lib_a-sf_scalbn.o)
 .note.GNU-stack
                0x0000000000000000        0x0 /usr/local/xenon/xenon/lib/32/libm.a(lib_a-sf_sin.o)
 .note.GNU-stack
                0x0000000000000000        0x0 /usr/local/xenon/xenon/lib/32/libm.a(lib_a-s_sin.o)
 .note.GNU-stack
                0x0000000000000000        0x0 /usr/local/xenon/xenon/lib/32/libm.a(lib_a-e_rem_pio2.o)
 .note.GNU-stack
                0x0000000000000000        0x0 /usr/local/xenon/xenon/lib/32/libm.a(lib_a-k_cos.o)
 .note.GNU-stack
                0x0000000000000000        0x0 /usr/local/xenon/xenon/lib/32/libm.a(lib_a-kf_cos.o)
 .note.GNU-stack
                0x0000000000000000        0x0 /usr/local/xenon/xenon/lib/32/libm.a(lib_a-kf_sin.o)
 .note.GNU-stack
                0x0000000000000000        0x0 /usr/local/xenon/xenon/lib/32/libm.a(lib_a-k_rem_pio2.o)
 .note.GNU-stack
                0x0000000000000000        0x0 /usr/local/xenon/xenon/lib/32/libm.a(lib_a-k_sin.o)
 .note.GNU-stack
                0x0000000000000000        0x0 /usr/local/xenon/xenon/lib/32/libm.a(lib_a-s_fabs.o)
 .note.GNU-stack
                0x0000000000000000        0x0 /usr/local/xenon/xenon/lib/32/libm.a(lib_a-sf_copysign.o)
 .note.GNU-stack
                0x0000000000000000        0x0 /usr/local/xenon/xenon/lib/32/libm.a(lib_a-s_floor.o)
 .note.GNU-stack
                0x0000000000000000        0x0 /usr/local/xenon/xenon/lib/32/libm.a(lib_a-s_scalbn.o)
 .note.GNU-stack
                0x0000000000000000        0x0 /usr/local/xenon/xenon/lib/32/libm.a(lib_a-s_copysign.o)
 .note.GNU-stack
                0x0000000000000000        0x0 /usr/local/xenon/xenon/lib/32/libc.a(lib_a-abort.o)
 .note.GNU-stack
                0x0000000000000000        0x0 /usr/local/xenon/xenon/lib/32/libc.a(lib_a-assert.o)
 .note.GNU-stack
                0x0000000000000000        0x0 /usr/local/xenon/xenon/lib/32/libc.a(lib_a-errno.o)
 .note.GNU-stack
                0x0000000000000000        0x0 /usr/local/xenon/xenon/lib/32/libc.a(lib_a-fclose.o)
 .note.GNU-stack
                0x0000000000000000        0x0 /usr/local/xenon/xenon/lib/32/libc.a(lib_a-fflush.o)
 .note.GNU-stack
                0x0000000000000000        0x0 /usr/local/xenon/xenon/lib/32/libc.a(lib_a-findfp.o)
 .note.GNU-stack
                0x0000000000000000        0x0 /usr/local/xenon/xenon/lib/32/libc.a(lib_a-fiprintf.o)
 .note.GNU-stack
                0x0000000000000000        0x0 /usr/local/xenon/xenon/lib/32/libc.a(lib_a-fopen.o)
 .note.GNU-stack
                0x0000000000000000        0x0 /usr/local/xenon/xenon/lib/32/libc.a(lib_a-fread.o)
 .note.GNU-stack
                0x0000000000000000        0x0 /usr/local/xenon/xenon/lib/32/libc.a(lib_a-freer.o)
 .note.GNU-stack
                0x0000000000000000        0x0 /usr/local/xenon/xenon/lib/32/libc.a(lib_a-fseek.o)
 .note.GNU-stack
                0x0000000000000000        0x0 /usr/local/xenon/xenon/lib/32/libc.a(lib_a-fstatr.o)
 .note.GNU-stack
                0x0000000000000000        0x0 /usr/local/xenon/xenon/lib/32/libc.a(lib_a-ftell.o)
 .note.GNU-stack
                0x0000000000000000        0x0 /usr/local/xenon/xenon/lib/32/libc.a(lib_a-fwalk.o)
 .note.GNU-stack
                0x0000000000000000        0x0 /usr/local/xenon/xenon/lib/32/libc.a(lib_a-impure.o)
 .note.GNU-stack
                0x0000000000000000        0x0 /usr/local/xenon/xenon/lib/32/libc.a(lib_a-makebuf.o)
 .note.GNU-stack
                0x0000000000000000        0x0 /usr/local/xenon/xenon/lib/32/libc.a(lib_a-malloc.o)
 .note.GNU-stack
                0x0000000000000000        0x0 /usr/local/xenon/xenon/lib/32/libc.a(lib_a-mallocr.o)
 .note.GNU-stack
                0x0000000000000000        0x0 /usr/local/xenon/xenon/lib/32/libc.a(lib_a-memcpy.o)
 .note.GNU-stack
                0x0000000000000000        0x0 /usr/local/xenon/xenon/lib/32/libc.a(lib_a-memset.o)
 .note.GNU-stack
                0x0000000000000000        0x0 /usr/local/xenon/xenon/lib/32/libc.a(lib_a-mlock.o)
 .note.GNU-stack
                0x0000000000000000        0x0 /usr/local/xenon/xenon/lib/32/libc.a(lib_a-openr.o)
 .note.GNU-stack
                0x0000000000000000        0x0 /usr/local/xenon/xenon/lib/32/libc.a(lib_a-printf.o)
 .note.GNU-stack
                0x0000000000000000        0x0 /usr/local/xenon/xenon/lib/32/libc.a(lib_a-putchar.o)
 .note.GNU-stack
                0x0000000000000000        0x0 /usr/local/xenon/xenon/lib/32/libc.a(lib_a-putc.o)
 .note.GNU-stack
                0x0000000000000000        0x0 /usr/local/xenon/xenon/lib/32/libc.a(lib_a-puts.o)
 .note.GNU-stack
                0x0000000000000000        0x0 /usr/local/xenon/xenon/lib/32/libc.a(lib_a-reent.o)
 .note.GNU-stack
                0x0000000000000000        0x0 /usr/local/xenon/xenon/lib/32/libc.a(lib_a-refill.o)
 .note.GNU-stack
                0x0000000000000000        0x0 /usr/local/xenon/xenon/lib/32/libc.a(lib_a-sbrkr.o)
 .note.GNU-stack
                0x0000000000000000        0x0 /usr/local/xenon/xenon/lib/32/libc.a(lib_a-signal.o)
 .note.GNU-stack
                0x0000000000000000        0x0 /usr/local/xenon/xenon/lib/32/libc.a(lib_a-signalr.o)
 .note.GNU-stack
                0x0000000000000000        0x0 /usr/local/xenon/xenon/lib/32/libc.a(lib_a-stdio.o)
 .note.GNU-stack
                0x0000000000000000        0x0 /usr/local/xenon/xenon/lib/32/libc.a(lib_a-strcmp.o)
 .note.GNU-stack
                0x0000000000000000        0x0 /usr/local/xenon/xenon/lib/32/libc.a(lib_a-strcpy.o)
 .note.GNU-stack
                0x0000000000000000        0x0 /usr/local/xenon/xenon/lib/32/libc.a(lib_a-strlen.o)
 .note.GNU-stack
                0x0000000000000000        0x0 /usr/local/xenon/xenon/lib/32/libc.a(lib_a-strncmp.o)
 .note.GNU-stack
                0x0000000000000000        0x0 /usr/local/xenon/xenon/lib/32/libc.a(lib_a-vfiprintf.o)
 .note.GNU-stack
                0x0000000000000000        0x0 /usr/local/xenon/xenon/lib/32/libc.a(lib_a-vfprintf.o)
 .note.GNU-stack
                0x0000000000000000        0x0 /usr/local/xenon/xenon/lib/32/libc.a(lib_a-vprintf.o)
 .note.GNU-stack
                0x0000000000000000        0x0 /usr/local/xenon/xenon/lib/32/libc.a(lib_a-wbuf.o)
 .note.GNU-stack
                0x0000000000000000        0x0 /usr/local/xenon/xenon/lib/32/libc.a(lib_a-writer.o)
 .note.GNU-stack
                0x0000000000000000        0x0 /usr/local/xenon/xenon/lib/32/libc.a(lib_a-wsetup.o)
 .note.GNU-stack
                0x0000000000000000        0x0 /usr/local/xenon/xenon/lib/32/libc.a(lib_a-closer.o)
 .note.GNU-stack
                0x0000000000000000        0x0 /usr/local/xenon/xenon/lib/32/libc.a(lib_a-dtoa.o)
 .note.GNU-stack
                0x0000000000000000        0x0 /usr/local/xenon/xenon/lib/32/libc.a(lib_a-flags.o)
 .note.GNU-stack
                0x0000000000000000        0x0 /usr/local/xenon/xenon/lib/32/libc.a(lib_a-fvwrite.o)
 .note.GNU-stack
                0x0000000000000000        0x0 /usr/local/xenon/xenon/lib/32/libc.a(lib_a-isattyr.o)
 .note.GNU-stack
                0x0000000000000000        0x0 /usr/local/xenon/xenon/lib/32/libc.a(lib_a-locale.o)
 .note.GNU-stack
                0x0000000000000000        0x0 /usr/local/xenon/xenon/lib/32/libc.a(lib_a-lseekr.o)
 .note.GNU-stack
                0x0000000000000000        0x0 /usr/local/xenon/xenon/lib/32/libc.a(lib_a-memchr.o)
 .note.GNU-stack
                0x0000000000000000        0x0 /usr/local/xenon/xenon/lib/32/libc.a(lib_a-memmove.o)
 .note.GNU-stack
                0x0000000000000000        0x0 /usr/local/xenon/xenon/lib/32/libc.a(lib_a-mprec.o)
 .note.GNU-stack
                0x0000000000000000        0x0 /usr/local/xenon/xenon/lib/32/libc.a(lib_a-readr.o)
 .note.GNU-stack
                0x0000000000000000        0x0 /usr/local/xenon/xenon/lib/32/libc.a(lib_a-reallocr.o)
 .note.GNU-stack
                0x0000000000000000        0x0 /usr/local/xenon/xenon/lib/32/libc.a(lib_a-s_isinfd.o)
 .note.GNU-stack
                0x0000000000000000        0x0 /usr/local/xenon/xenon/lib/32/libc.a(lib_a-s_isnand.o)
 .note.GNU-stack
                0x0000000000000000        0x0 /usr/local/xenon/xenon/lib/32/libc.a(lib_a-callocr.o)
 .note.GNU-stack
                0x0000000000000000        0x0 /usr/local/xenon/lib/gcc/xenon/4.4.0/32/crtend.o

.gnu.attributes
                0x0000000000000000       0x14
 .gnu.attributes
                0x0000000000000000       0x14 /usr/local/xenon/lib/gcc/xenon/4.4.0/../../../../xenon/lib/../lib/crt1.o
 .gnu.attributes
                0x0000000000000014       0x14 /usr/local/xenon/lib/gcc/xenon/4.4.0/32/crtbegin.o
 .gnu.attributes
                0x0000000000000028       0x14 engine.o
 .gnu.attributes
                0x000000000000003c       0x14 ffs_content.o
 .gnu.attributes
                0x0000000000000050       0x14 main.o
 .gnu.attributes
                0x0000000000000064       0x14 xee.o
 .gnu.attributes
                0x0000000000000078       0x14 /usr/local/xenon/usr/lib/libxenon.a(console.o)
 .gnu.attributes
                0x000000000000008c       0x14 /usr/local/xenon/usr/lib/libxenon.a(newlib.o)
 .gnu.attributes
                0x00000000000000a0       0x14 /usr/local/xenon/usr/lib/libxenon.a(vm.o)
 .gnu.attributes
                0x00000000000000b4       0x14 /usr/local/xenon/usr/lib/libxenon.a(xenon_uart.o)
 .gnu.attributes
                0x00000000000000c8       0x14 /usr/local/xenon/usr/lib/libxenon.a(edram.o)
 .gnu.attributes
                0x00000000000000dc       0x14 /usr/local/xenon/usr/lib/libxenon.a(xe.o)
 .gnu.attributes
                0x00000000000000f0       0x14 /usr/local/xenon/usr/lib/libxenon.a(xenos.o)
 .gnu.attributes
                0x0000000000000104       0x14 /usr/local/xenon/usr/lib/libxenon.a(lib_malloc.o)
 .gnu.attributes
                0x0000000000000118       0x14 /usr/local/xenon/usr/lib/libxenon.a(io.o)
 .gnu.attributes
                0x000000000000012c       0x14 /usr/local/xenon/usr/lib/libxenon.a(time.o)
 .gnu.attributes
                0x0000000000000140       0x14 /usr/local/xenon/usr/lib/libxenon.a(xenon_gpio.o)
 .gnu.attributes
                0x0000000000000154       0x14 /usr/local/xenon/usr/lib/libxenon.a(xenon_smc.o)
 .gnu.attributes
                0x0000000000000168       0x14 /usr/local/xenon/usr/lib/libxenon.a(xenon_config.o)
 .gnu.attributes
                0x000000000000017c       0x14 /usr/local/xenon/usr/lib/libxenon.a(ucode.o)
 .gnu.attributes
                0x0000000000000190       0x14 /usr/local/xenon/usr/lib/libxenon.a(xenon_sfcx.o)
 .gnu.attributes
                0x00000000000001a4       0x14 /usr/local/xenon/xenon/lib/32/libm.a(lib_a-sf_tan.o)
 .gnu.attributes
                0x00000000000001b8       0x14 /usr/local/xenon/xenon/lib/32/libm.a(lib_a-wf_sincos.o)
 .gnu.attributes
                0x00000000000001cc       0x14 /usr/local/xenon/xenon/lib/32/libm.a(lib_a-w_sincos.o)
 .gnu.attributes
                0x00000000000001e0       0x14 /usr/local/xenon/xenon/lib/32/libm.a(lib_a-ef_rem_pio2.o)
 .gnu.attributes
                0x00000000000001f4       0x14 /usr/local/xenon/xenon/lib/32/libm.a(lib_a-kf_rem_pio2.o)
 .gnu.attributes
                0x0000000000000208       0x14 /usr/local/xenon/xenon/lib/32/libm.a(lib_a-kf_tan.o)
 .gnu.attributes
                0x000000000000021c       0x14 /usr/local/xenon/xenon/lib/32/libm.a(lib_a-s_cos.o)
 .gnu.attributes
                0x0000000000000230       0x14 /usr/local/xenon/xenon/lib/32/libm.a(lib_a-sf_cos.o)
 .gnu.attributes
                0x0000000000000244       0x14 /usr/local/xenon/xenon/lib/32/libm.a(lib_a-sf_fabs.o)
 .gnu.attributes
                0x0000000000000258       0x14 /usr/local/xenon/xenon/lib/32/libm.a(lib_a-sf_floor.o)
 .gnu.attributes
                0x000000000000026c       0x14 /usr/local/xenon/xenon/lib/32/libm.a(lib_a-sf_scalbn.o)
 .gnu.attributes
                0x0000000000000280       0x14 /usr/local/xenon/xenon/lib/32/libm.a(lib_a-sf_sin.o)
 .gnu.attributes
                0x0000000000000294       0x14 /usr/local/xenon/xenon/lib/32/libm.a(lib_a-s_sin.o)
 .gnu.attributes
                0x00000000000002a8       0x14 /usr/local/xenon/xenon/lib/32/libm.a(lib_a-e_rem_pio2.o)
 .gnu.attributes
                0x00000000000002bc       0x14 /usr/local/xenon/xenon/lib/32/libm.a(lib_a-k_cos.o)
 .gnu.attributes
                0x00000000000002d0       0x14 /usr/local/xenon/xenon/lib/32/libm.a(lib_a-kf_cos.o)
 .gnu.attributes
                0x00000000000002e4       0x14 /usr/local/xenon/xenon/lib/32/libm.a(lib_a-kf_sin.o)
 .gnu.attributes
                0x00000000000002f8       0x14 /usr/local/xenon/xenon/lib/32/libm.a(lib_a-k_rem_pio2.o)
 .gnu.attributes
                0x000000000000030c       0x14 /usr/local/xenon/xenon/lib/32/libm.a(lib_a-k_sin.o)
 .gnu.attributes
                0x0000000000000320       0x14 /usr/local/xenon/xenon/lib/32/libm.a(lib_a-s_fabs.o)
 .gnu.attributes
                0x0000000000000334       0x14 /usr/local/xenon/xenon/lib/32/libm.a(lib_a-sf_copysign.o)
 .gnu.attributes
                0x0000000000000348       0x14 /usr/local/xenon/xenon/lib/32/libm.a(lib_a-s_floor.o)
 .gnu.attributes
                0x000000000000035c       0x14 /usr/local/xenon/xenon/lib/32/libm.a(lib_a-s_scalbn.o)
 .gnu.attributes
                0x0000000000000370       0x14 /usr/local/xenon/xenon/lib/32/libm.a(lib_a-s_copysign.o)
 .gnu.attributes
                0x0000000000000384       0x14 /usr/local/xenon/xenon/lib/32/libc.a(lib_a-abort.o)
 .gnu.attributes
                0x0000000000000398       0x14 /usr/local/xenon/xenon/lib/32/libc.a(lib_a-assert.o)
 .gnu.attributes
                0x00000000000003ac       0x14 /usr/local/xenon/xenon/lib/32/libc.a(lib_a-errno.o)
 .gnu.attributes
                0x00000000000003c0       0x14 /usr/local/xenon/xenon/lib/32/libc.a(lib_a-fclose.o)
 .gnu.attributes
                0x00000000000003d4       0x14 /usr/local/xenon/xenon/lib/32/libc.a(lib_a-fflush.o)
 .gnu.attributes
                0x00000000000003e8       0x14 /usr/local/xenon/xenon/lib/32/libc.a(lib_a-findfp.o)
 .gnu.attributes
                0x00000000000003fc       0x14 /usr/local/xenon/xenon/lib/32/libc.a(lib_a-fiprintf.o)
 .gnu.attributes
                0x0000000000000410       0x14 /usr/local/xenon/xenon/lib/32/libc.a(lib_a-fopen.o)
 .gnu.attributes
                0x0000000000000424       0x14 /usr/local/xenon/xenon/lib/32/libc.a(lib_a-fread.o)
 .gnu.attributes
                0x0000000000000438       0x14 /usr/local/xenon/xenon/lib/32/libc.a(lib_a-freer.o)
 .gnu.attributes
                0x000000000000044c       0x14 /usr/local/xenon/xenon/lib/32/libc.a(lib_a-fseek.o)
 .gnu.attributes
                0x0000000000000460       0x14 /usr/local/xenon/xenon/lib/32/libc.a(lib_a-fstatr.o)
 .gnu.attributes
                0x0000000000000474       0x14 /usr/local/xenon/xenon/lib/32/libc.a(lib_a-ftell.o)
 .gnu.attributes
                0x0000000000000488       0x14 /usr/local/xenon/xenon/lib/32/libc.a(lib_a-fwalk.o)
 .gnu.attributes
                0x000000000000049c       0x14 /usr/local/xenon/xenon/lib/32/libc.a(lib_a-impure.o)
 .gnu.attributes
                0x00000000000004b0       0x14 /usr/local/xenon/xenon/lib/32/libc.a(lib_a-makebuf.o)
 .gnu.attributes
                0x00000000000004c4       0x14 /usr/local/xenon/xenon/lib/32/libc.a(lib_a-malloc.o)
 .gnu.attributes
                0x00000000000004d8       0x14 /usr/local/xenon/xenon/lib/32/libc.a(lib_a-mallocr.o)
 .gnu.attributes
                0x00000000000004ec       0x14 /usr/local/xenon/xenon/lib/32/libc.a(lib_a-memcpy.o)
 .gnu.attributes
                0x0000000000000500       0x14 /usr/local/xenon/xenon/lib/32/libc.a(lib_a-memset.o)
 .gnu.attributes
                0x0000000000000514       0x14 /usr/local/xenon/xenon/lib/32/libc.a(lib_a-mlock.o)
 .gnu.attributes
                0x0000000000000528       0x14 /usr/local/xenon/xenon/lib/32/libc.a(lib_a-openr.o)
 .gnu.attributes
                0x000000000000053c       0x14 /usr/local/xenon/xenon/lib/32/libc.a(lib_a-printf.o)
 .gnu.attributes
                0x0000000000000550       0x14 /usr/local/xenon/xenon/lib/32/libc.a(lib_a-putchar.o)
 .gnu.attributes
                0x0000000000000564       0x14 /usr/local/xenon/xenon/lib/32/libc.a(lib_a-putc.o)
 .gnu.attributes
                0x0000000000000578       0x14 /usr/local/xenon/xenon/lib/32/libc.a(lib_a-puts.o)
 .gnu.attributes
                0x000000000000058c       0x14 /usr/local/xenon/xenon/lib/32/libc.a(lib_a-reent.o)
 .gnu.attributes
                0x00000000000005a0       0x14 /usr/local/xenon/xenon/lib/32/libc.a(lib_a-refill.o)
 .gnu.attributes
                0x00000000000005b4       0x14 /usr/local/xenon/xenon/lib/32/libc.a(lib_a-sbrkr.o)
 .gnu.attributes
                0x00000000000005c8       0x14 /usr/local/xenon/xenon/lib/32/libc.a(lib_a-signal.o)
 .gnu.attributes
                0x00000000000005dc       0x14 /usr/local/xenon/xenon/lib/32/libc.a(lib_a-signalr.o)
 .gnu.attributes
                0x00000000000005f0       0x14 /usr/local/xenon/xenon/lib/32/libc.a(lib_a-stdio.o)
 .gnu.attributes
                0x0000000000000604       0x14 /usr/local/xenon/xenon/lib/32/libc.a(lib_a-strcmp.o)
 .gnu.attributes
                0x0000000000000618       0x14 /usr/local/xenon/xenon/lib/32/libc.a(lib_a-strcpy.o)
 .gnu.attributes
                0x000000000000062c       0x14 /usr/local/xenon/xenon/lib/32/libc.a(lib_a-strlen.o)
 .gnu.attributes
                0x0000000000000640       0x14 /usr/local/xenon/xenon/lib/32/libc.a(lib_a-strncmp.o)
 .gnu.attributes
                0x0000000000000654       0x14 /usr/local/xenon/xenon/lib/32/libc.a(lib_a-vfiprintf.o)
 .gnu.attributes
                0x0000000000000668       0x14 /usr/local/xenon/xenon/lib/32/libc.a(lib_a-vfprintf.o)
 .gnu.attributes
                0x000000000000067c       0x14 /usr/local/xenon/xenon/lib/32/libc.a(lib_a-vprintf.o)
 .gnu.attributes
                0x0000000000000690       0x14 /usr/local/xenon/xenon/lib/32/libc.a(lib_a-wbuf.o)
 .gnu.attributes
                0x00000000000006a4       0x14 /usr/local/xenon/xenon/lib/32/libc.a(lib_a-writer.o)
 .gnu.attributes
                0x00000000000006b8       0x14 /usr/local/xenon/xenon/lib/32/libc.a(lib_a-wsetup.o)
 .gnu.attributes
                0x00000000000006cc       0x14 /usr/local/xenon/xenon/lib/32/libc.a(lib_a-closer.o)
 .gnu.attributes
                0x00000000000006e0       0x14 /usr/local/xenon/xenon/lib/32/libc.a(lib_a-dtoa.o)
 .gnu.attributes
                0x00000000000006f4       0x14 /usr/local/xenon/xenon/lib/32/libc.a(lib_a-flags.o)
 .gnu.attributes
                0x0000000000000708       0x14 /usr/local/xenon/xenon/lib/32/libc.a(lib_a-fvwrite.o)
 .gnu.attributes
                0x000000000000071c       0x14 /usr/local/xenon/xenon/lib/32/libc.a(lib_a-isattyr.o)
 .gnu.attributes
                0x0000000000000730       0x14 /usr/local/xenon/xenon/lib/32/libc.a(lib_a-locale.o)
 .gnu.attributes
                0x0000000000000744       0x14 /usr/local/xenon/xenon/lib/32/libc.a(lib_a-lseekr.o)
 .gnu.attributes
                0x0000000000000758       0x14 /usr/local/xenon/xenon/lib/32/libc.a(lib_a-memchr.o)
 .gnu.attributes
                0x000000000000076c       0x14 /usr/local/xenon/xenon/lib/32/libc.a(lib_a-memmove.o)
 .gnu.attributes
                0x0000000000000780       0x14 /usr/local/xenon/xenon/lib/32/libc.a(lib_a-mprec.o)
 .gnu.attributes
                0x0000000000000794       0x14 /usr/local/xenon/xenon/lib/32/libc.a(lib_a-readr.o)
 .gnu.attributes
                0x00000000000007a8       0x14 /usr/local/xenon/xenon/lib/32/libc.a(lib_a-reallocr.o)
 .gnu.attributes
                0x00000000000007bc       0x14 /usr/local/xenon/xenon/lib/32/libc.a(lib_a-s_isinfd.o)
 .gnu.attributes
                0x00000000000007d0       0x14 /usr/local/xenon/xenon/lib/32/libc.a(lib_a-s_isnand.o)
 .gnu.attributes
                0x00000000000007e4       0x14 /usr/local/xenon/xenon/lib/32/libc.a(lib_a-callocr.o)
 .gnu.attributes
                0x00000000000007f8       0x14 /usr/local/xenon/lib/gcc/xenon/4.4.0/32/crtend.o
